EXPORTS 
	??_R0?AV?$_Binder@U_Unforced@std@@P8CrossDoor@@EAA?AW4NodeStatus@BT@@XZPEAV3@@std@@@8 	 DATA
	??_R0?AV?$_Func_base@W4NodeStatus@BT@@AEAVTreeNode@2@@std@@@8 	 DATA
	??_R0?AV?$_Func_impl_no_alloc@V?$_Binder@U_Unforced@std@@P8CrossDoor@@EAA?AW4NodeStatus@BT@@XZPEAV3@@std@@W4NodeStatus@BT@@AEAVTreeNode@4@@std@@@8 	 DATA
	??_R0?AVbad_alloc@std@@@8 	 DATA
	??_R0?AVbad_array_new_length@std@@@8 	 DATA
	??_R0?AVexception@std@@@8 	 DATA
	_Avx2WmemEnabledWeakValue 	 DATA
	??$?0$$V@?$_Compressed_pair@V?$allocator@D@std@@V?$_String_val@U?$_Simple_types@D@std@@@2@$00@std@@QEAA@U_Zero_then_variadic_args_t@1@@Z
	??$?0AEAVTreeNode@BT@@$0A@@?$tuple@AEAVTreeNode@BT@@@std@@QEAA@AEAVTreeNode@BT@@@Z
	??$?0AEAVTreeNode@BT@@@?$_Tuple_val@AEAVTreeNode@BT@@@std@@QEAA@AEAVTreeNode@BT@@@Z
	??$?0AEBV?$_Binder@U_Unforced@std@@P8CrossDoor@@EAA?AW4NodeStatus@BT@@XZPEAV3@@std@@$0A@@?$_Func_impl_no_alloc@V?$_Binder@U_Unforced@std@@P8CrossDoor@@EAA?AW4NodeStatus@BT@@XZPEAV3@@std@@W4NodeStatus@BT@@AEAVTreeNode@4@@std@@QEAA@AEBV?$_Binder@U_Unforced@std@@P8CrossDoor@@EAA?AW4NodeStatus@BT@@XZPEAV3@@1@@Z
	??$?0AEBV?$allocator@U?$pair@$$CBV?$basic_string@DU?$char_traits@D@std@@V?$allocator@D@2@@std@@VPortInfo@BT@@@std@@@std@@$$V@?$_Compressed_pair@V?$allocator@U?$_List_node@U?$pair@$$CBV?$basic_string@DU?$char_traits@D@std@@V?$allocator@D@2@@std@@VPortInfo@BT@@@std@@PEAX@std@@@std@@V?$_List_val@U?$_List_simple_types@U?$pair@$$CBV?$basic_string@DU?$char_traits@D@std@@V?$allocator@D@2@@std@@VPortInfo@BT@@@std@@@std@@@2@$00@std@@QEAA@U_One_then_variadic_args_t@1@AEBV?$allocator@U?$pair@$$CBV?$basic_string@DU?$char_traits@D@std@@V?$allocator@D@2@@std@@VPortInfo@BT@@@std@@@1@@Z
	??$?0AEBV?$allocator@U?$pair@$$CBV?$basic_string@DU?$char_traits@D@std@@V?$allocator@D@2@@std@@VPortInfo@BT@@@std@@@std@@$$V@?$_Compressed_pair@V?$allocator@V?$_List_unchecked_iterator@V?$_List_val@U?$_List_simple_types@U?$pair@$$CBV?$basic_string@DU?$char_traits@D@std@@V?$allocator@D@2@@std@@VPortInfo@BT@@@std@@@std@@@std@@@std@@@std@@V?$_Vector_val@U?$_Simple_types@V?$_List_unchecked_iterator@V?$_List_val@U?$_List_simple_types@U?$pair@$$CBV?$basic_string@DU?$char_traits@D@std@@V?$allocator@D@2@@std@@VPortInfo@BT@@@std@@@std@@@std@@@std@@@std@@@2@$00@std@@QEAA@U_One_then_variadic_args_t@1@AEBV?$allocator@U?$pair@$$CBV?$basic_string@DU?$char_traits@D@std@@V?$allocator@D@2@@std@@VPortInfo@BT@@@std@@@1@@Z
	??$?0AEBV?$allocator@U?$pair@$$CBV?$basic_string@DU?$char_traits@D@std@@V?$allocator@D@2@@std@@VPortInfo@BT@@@std@@@std@@$0A@@?$_Hash_vec@V?$allocator@V?$_List_unchecked_iterator@V?$_List_val@U?$_List_simple_types@U?$pair@$$CBV?$basic_string@DU?$char_traits@D@std@@V?$allocator@D@2@@std@@VPortInfo@BT@@@std@@@std@@@std@@@std@@@std@@@std@@QEAA@AEBV?$allocator@U?$pair@$$CBV?$basic_string@DU?$char_traits@D@std@@V?$allocator@D@2@@std@@VPortInfo@BT@@@std@@@1@@Z
	??$?0H$0A@@?$duration@_JU?$ratio@$00$0DOI@@std@@@chrono@std@@QEAA@AEBH@Z
	??$?0M@?$_Compressed_pair@U?$equal_to@V?$basic_string@DU?$char_traits@D@std@@V?$allocator@D@2@@std@@@std@@M$00@std@@QEAA@U_Zero_then_variadic_args_t@1@$$QEAM@Z
	??$?0N$0A@@?$duration@NU?$ratio@$00$0DLJKMKAA@@std@@@chrono@std@@QEAA@AEBN@Z
	??$?0NU?$ratio@$00$00@std@@$0A@@?$duration@NU?$ratio@$00$0DLJKMKAA@@std@@@chrono@std@@QEAA@AEBV?$duration@NU?$ratio@$00$00@std@@@12@@Z
	??$?0P8CrossDoor@@EAA?AW4NodeStatus@BT@@XZPEAV0@@?$_Compressed_pair@P8CrossDoor@@EAA?AW4NodeStatus@BT@@XZV?$tuple@PEAVCrossDoor@@@std@@$0A@@std@@QEAA@U_One_then_variadic_args_t@1@$$QEAP8CrossDoor@@EAA?AW4NodeStatus@BT@@XZ$$QEAPEAV3@@Z
	??$?0PEAVCrossDoor@@$$V$0A@@?$tuple@PEAVCrossDoor@@@std@@QEAA@$$QEAPEAVCrossDoor@@@Z
	??$?0PEAVCrossDoor@@@?$_Tuple_val@PEAVCrossDoor@@@std@@QEAA@$$QEAPEAVCrossDoor@@@Z
	??$?0U?$pair@$$CBV?$basic_string@DU?$char_traits@D@std@@V?$allocator@D@2@@std@@VPortInfo@BT@@@std@@@?$allocator@U?$_List_node@U?$pair@$$CBV?$basic_string@DU?$char_traits@D@std@@V?$allocator@D@2@@std@@VPortInfo@BT@@@std@@PEAX@std@@@std@@QEAA@AEBV?$allocator@U?$pair@$$CBV?$basic_string@DU?$char_traits@D@std@@V?$allocator@D@2@@std@@VPortInfo@BT@@@std@@@1@@Z
	??$?0U?$pair@$$CBV?$basic_string@DU?$char_traits@D@std@@V?$allocator@D@2@@std@@VPortInfo@BT@@@std@@@?$allocator@V?$_List_unchecked_iterator@V?$_List_val@U?$_List_simple_types@U?$pair@$$CBV?$basic_string@DU?$char_traits@D@std@@V?$allocator@D@2@@std@@VPortInfo@BT@@@std@@@std@@@std@@@std@@@std@@QEAA@AEBV?$allocator@U?$pair@$$CBV?$basic_string@DU?$char_traits@D@std@@V?$allocator@D@2@@std@@VPortInfo@BT@@@std@@@1@@Z
	??$?0U_Exact_args_t@std@@$0A@@?$tuple@$$V@std@@QEAA@U_Exact_args_t@1@@Z
	??$?0U_Exact_args_t@std@@AEAVTreeNode@BT@@$$V$0A@@?$tuple@AEAVTreeNode@BT@@@std@@QEAA@U_Exact_args_t@1@AEAVTreeNode@BT@@@Z
	??$?0U_Exact_args_t@std@@PEAVCrossDoor@@$$V$0A@@?$tuple@PEAVCrossDoor@@@std@@QEAA@U_Exact_args_t@1@$$QEAPEAVCrossDoor@@@Z
	??$?0U_Zero_then_variadic_args_t@std@@M@?$_Compressed_pair@U?$hash@V?$basic_string@DU?$char_traits@D@std@@V?$allocator@D@2@@std@@@std@@V?$_Compressed_pair@U?$equal_to@V?$basic_string@DU?$char_traits@D@std@@V?$allocator@D@2@@std@@@std@@M$00@2@$00@std@@QEAA@U_Zero_then_variadic_args_t@1@$$QEAU21@$$QEAM@Z
	??$?0V?$_Binder@U_Unforced@std@@P8CrossDoor@@EAA?AW4NodeStatus@BT@@XZPEAV3@@std@@$0A@@?$_Func_impl_no_alloc@V?$_Binder@U_Unforced@std@@P8CrossDoor@@EAA?AW4NodeStatus@BT@@XZPEAV3@@std@@W4NodeStatus@BT@@AEAVTreeNode@4@@std@@QEAA@$$QEAV?$_Binder@U_Unforced@std@@P8CrossDoor@@EAA?AW4NodeStatus@BT@@XZPEAV3@@1@@Z
	??$?0V?$_Binder@U_Unforced@std@@P8CrossDoor@@EAA?AW4NodeStatus@BT@@XZPEAV3@@std@@$0A@@?$function@$$A6A?AW4NodeStatus@BT@@AEAVTreeNode@2@@Z@std@@QEAA@V?$_Binder@U_Unforced@std@@P8CrossDoor@@EAA?AW4NodeStatus@BT@@XZPEAV3@@1@@Z
	??$?0_J$0A@@?$duration@_JU?$ratio@$00$00@std@@@chrono@std@@QEAA@AEB_J@Z
	??$?0_J$0A@@?$duration@_JU?$ratio@$00$0DLJKMKAA@@std@@@chrono@std@@QEAA@AEB_J@Z
	??$?0_J$0A@@?$duration@_JU?$ratio@$00$0JIJGIA@@std@@@chrono@std@@QEAA@AEB_J@Z
	??$?0_JU?$ratio@$00$00@std@@$0A@@?$duration@_JU?$ratio@$00$0DLJKMKAA@@std@@@chrono@std@@QEAA@AEBV?$duration@_JU?$ratio@$00$00@std@@@12@@Z
	??$?0_JU?$ratio@$00$0DLJKMKAA@@std@@$0A@@?$duration@NU?$ratio@$00$0DLJKMKAA@@std@@@chrono@std@@QEAA@AEBV?$duration@_JU?$ratio@$00$0DLJKMKAA@@std@@@12@@Z
	??$?0_JU?$ratio@$00$0DOI@@std@@$0A@@?$duration@_JU?$ratio@$00$0DLJKMKAA@@std@@@chrono@std@@QEAA@AEBV?$duration@_JU?$ratio@$00$0DOI@@std@@@12@@Z
	??$?0_JU?$ratio@$00$0JIJGIA@@std@@$0A@@?$duration@_JU?$ratio@$00$0DLJKMKAA@@std@@@chrono@std@@QEAA@AEBV?$duration@_JU?$ratio@$00$0JIJGIA@@std@@@12@@Z
	??$?GUsteady_clock@chrono@std@@V?$duration@_JU?$ratio@$00$0DLJKMKAA@@std@@@12@V312@@chrono@std@@YA?AV?$duration@_JU?$ratio@$00$0DLJKMKAA@@std@@@01@AEBV?$time_point@Usteady_clock@chrono@std@@V?$duration@_JU?$ratio@$00$0DLJKMKAA@@std@@@23@@01@0@Z
	??$?GUsteady_clock@chrono@std@@V?$duration@_JU?$ratio@$00$0DLJKMKAA@@std@@@12@_JU?$ratio@$00$0DOI@@2@@chrono@std@@YA?AV?$time_point@Usteady_clock@chrono@std@@V?$duration@_JU?$ratio@$00$0DLJKMKAA@@std@@@23@@01@AEBV201@AEBV?$duration@_JU?$ratio@$00$0DOI@@std@@@01@@Z
	??$?G_JU?$ratio@$00$0DLJKMKAA@@std@@_JU01@@chrono@std@@YA?AV?$duration@_JU?$ratio@$00$0DLJKMKAA@@std@@@01@AEBV201@0@Z
	??$?G_JU?$ratio@$00$0DLJKMKAA@@std@@_JU?$ratio@$00$0DOI@@1@@chrono@std@@YA?AV?$duration@_JU?$ratio@$00$0DLJKMKAA@@std@@@01@AEBV201@AEBV?$duration@_JU?$ratio@$00$0DOI@@std@@@01@@Z
	??$?MNU?$ratio@$00$00@std@@_JU?$ratio@$00$0DLJKMKAA@@1@@chrono@std@@YA_NAEBV?$duration@NU?$ratio@$00$00@std@@@01@AEBV?$duration@_JU?$ratio@$00$0DLJKMKAA@@std@@@01@@Z
	??$?MUsteady_clock@chrono@std@@V?$duration@_JU?$ratio@$00$0DLJKMKAA@@std@@@12@V312@@chrono@std@@YA_NAEBV?$time_point@Usteady_clock@chrono@std@@V?$duration@_JU?$ratio@$00$0DLJKMKAA@@std@@@23@@01@0@Z
	??$?M_JU?$ratio@$00$0DLJKMKAA@@std@@_JU01@@chrono@std@@YA_NAEBV?$duration@_JU?$ratio@$00$0DLJKMKAA@@std@@@01@0@Z
	??$?M_JU?$ratio@$00$0DOI@@std@@_JU01@@chrono@std@@YA_NAEBV?$duration@_JU?$ratio@$00$0DOI@@std@@@01@0@Z
	??$?NUsteady_clock@chrono@std@@V?$duration@_JU?$ratio@$00$0DLJKMKAA@@std@@@12@V312@@chrono@std@@YA_NAEBV?$time_point@Usteady_clock@chrono@std@@V?$duration@_JU?$ratio@$00$0DLJKMKAA@@std@@@23@@01@0@Z
	??$?O_JU?$ratio@$00$0DOI@@std@@_JU01@@chrono@std@@YA_NAEBV?$duration@_JU?$ratio@$00$0DOI@@std@@@01@0@Z
	??$?RAEAVTreeNode@BT@@@?$_Binder@U_Unforced@std@@P8CrossDoor@@EAA?AW4NodeStatus@BT@@XZPEAV3@@std@@QEAA?AW4NodeStatus@BT@@AEAVTreeNode@3@@Z
	??$_Adl_verify_range@PEAV?$_List_unchecked_iterator@V?$_List_val@U?$_List_simple_types@U?$pair@$$CBV?$basic_string@DU?$char_traits@D@std@@V?$allocator@D@2@@std@@VPortInfo@BT@@@std@@@std@@@std@@@std@@PEAV12@@std@@YAXAEBQEAV?$_List_unchecked_iterator@V?$_List_val@U?$_List_simple_types@U?$pair@$$CBV?$basic_string@DU?$char_traits@D@std@@V?$allocator@D@2@@std@@VPortInfo@BT@@@std@@@std@@@std@@@0@0@Z
	??$_Allocate@$0BA@U_Default_allocate_traits@std@@$0A@@std@@YAPEAX_K@Z
	??$_Allocate_manually_vector_aligned@U_Default_allocate_traits@std@@@std@@YAPEAX_K@Z
	??$_Call@AEAP8CrossDoor@@EAA?AW4NodeStatus@BT@@XZAEAPEAV1@@?$_Invoker_ret@U_Unforced@std@@$0A@@std@@SA?AW4NodeStatus@BT@@AEAP8CrossDoor@@EAA?AW423@XZAEAPEAV4@@Z
	??$_Call@AEAV?$_Binder@U_Unforced@std@@P8CrossDoor@@EAA?AW4NodeStatus@BT@@XZPEAV3@@std@@AEAVTreeNode@BT@@@?$_Invoker_ret@W4NodeStatus@BT@@$0A@@std@@SA?AW4NodeStatus@BT@@AEAV?$_Binder@U_Unforced@std@@P8CrossDoor@@EAA?AW4NodeStatus@BT@@XZPEAV3@@1@AEAVTreeNode@3@@Z
	??$_Call_binder@U_Unforced@std@@$0A@P8CrossDoor@@EAA?AW4NodeStatus@BT@@XZV?$tuple@PEAVCrossDoor@@@2@V?$tuple@AEAVTreeNode@BT@@@2@@std@@YA?AW4NodeStatus@BT@@U?$_Invoker_ret@U_Unforced@std@@$0A@@0@U?$integer_sequence@_K$0A@@0@AEAP8CrossDoor@@EAA?AW412@XZAEAV?$tuple@PEAVCrossDoor@@@0@$$QEAV?$tuple@AEAVTreeNode@BT@@@0@@Z
	??$_Construct_in_place@PEADAEBQEAD@std@@YAXAEAPEADAEBQEAD@Z
	??$_Construct_in_place@PEAU?$_List_node@U?$pair@$$CBV?$basic_string@DU?$char_traits@D@std@@V?$allocator@D@2@@std@@VPortInfo@BT@@@std@@PEAX@std@@AEAPEAU12@@std@@YAXAEAPEAU?$_List_node@U?$pair@$$CBV?$basic_string@DU?$char_traits@D@std@@V?$allocator@D@2@@std@@VPortInfo@BT@@@std@@PEAX@0@0@Z
	??$_Construct_in_place@V?$_List_unchecked_iterator@V?$_List_val@U?$_List_simple_types@U?$pair@$$CBV?$basic_string@DU?$char_traits@D@std@@V?$allocator@D@2@@std@@VPortInfo@BT@@@std@@@std@@@std@@@std@@AEBV12@@std@@YAXAEAV?$_List_unchecked_iterator@V?$_List_val@U?$_List_simple_types@U?$pair@$$CBV?$basic_string@DU?$char_traits@D@std@@V?$allocator@D@2@@std@@VPortInfo@BT@@@std@@@std@@@std@@@0@AEBV10@@Z
	??$_Convert_size@_K@std@@YA_K_K@Z
	??$_Deallocate@$07$0A@@std@@YAXPEAX_K@Z
	??$_Deallocate@$0BA@$0A@@std@@YAXPEAX_K@Z
	??$_Destroy_in_place@PEAD@std@@YAXAEAPEAD@Z
	??$_Destroy_in_place@PEAU?$_List_node@U?$pair@$$CBV?$basic_string@DU?$char_traits@D@std@@V?$allocator@D@2@@std@@VPortInfo@BT@@@std@@PEAX@std@@@std@@YAXAEAPEAU?$_List_node@U?$pair@$$CBV?$basic_string@DU?$char_traits@D@std@@V?$allocator@D@2@@std@@VPortInfo@BT@@@std@@PEAX@0@@Z
	??$_Destroy_range@PEAV?$_List_unchecked_iterator@V?$_List_val@U?$_List_simple_types@U?$pair@$$CBV?$basic_string@DU?$char_traits@D@std@@V?$allocator@D@2@@std@@VPortInfo@BT@@@std@@@std@@@std@@@std@@PEAV12@@std@@YAXPEAV?$_List_unchecked_iterator@V?$_List_val@U?$_List_simple_types@U?$pair@$$CBV?$basic_string@DU?$char_traits@D@std@@V?$allocator@D@2@@std@@VPortInfo@BT@@@std@@@std@@@std@@@0@QEAV10@@Z
	??$_Emplace_back@AEBV?$_List_unchecked_iterator@V?$_List_val@U?$_List_simple_types@U?$pair@$$CBV?$basic_string@DU?$char_traits@D@std@@V?$allocator@D@2@@std@@VPortInfo@BT@@@std@@@std@@@std@@@std@@@?$_Uninitialized_backout@PEAV?$_List_unchecked_iterator@V?$_List_val@U?$_List_simple_types@U?$pair@$$CBV?$basic_string@DU?$char_traits@D@std@@V?$allocator@D@2@@std@@VPortInfo@BT@@@std@@@std@@@std@@@std@@@std@@QEAAXAEBV?$_List_unchecked_iterator@V?$_List_val@U?$_List_simple_types@U?$pair@$$CBV?$basic_string@DU?$char_traits@D@std@@V?$allocator@D@2@@std@@VPortInfo@BT@@@std@@@std@@@std@@@1@@Z
	??$_Fix@V?$tuple@AEAVTreeNode@BT@@@std@@@?$_Select_fixer@PEAVCrossDoor@@$0A@$0A@$0A@@std@@SAAEAPEAVCrossDoor@@AEAPEAV2@$$QEAV?$tuple@AEAVTreeNode@BT@@@1@@Z
	??$_Fix_arg@PEAVCrossDoor@@V?$tuple@AEAVTreeNode@BT@@@std@@@std@@YAAEAPEAVCrossDoor@@AEAPEAV1@$$QEAV?$tuple@AEAVTreeNode@BT@@@0@@Z
	??$_Free_non_head@V?$allocator@U?$_List_node@U?$pair@$$CBV?$basic_string@DU?$char_traits@D@std@@V?$allocator@D@2@@std@@VPortInfo@BT@@@std@@PEAX@std@@@std@@@?$_List_node@U?$pair@$$CBV?$basic_string@DU?$char_traits@D@std@@V?$allocator@D@2@@std@@VPortInfo@BT@@@std@@PEAX@std@@SAXAEAV?$allocator@U?$_List_node@U?$pair@$$CBV?$basic_string@DU?$char_traits@D@std@@V?$allocator@D@2@@std@@VPortInfo@BT@@@std@@PEAX@std@@@1@PEAU01@@Z
	??$_Freenode0@V?$allocator@U?$_List_node@U?$pair@$$CBV?$basic_string@DU?$char_traits@D@std@@V?$allocator@D@2@@std@@VPortInfo@BT@@@std@@PEAX@std@@@std@@@?$_List_node@U?$pair@$$CBV?$basic_string@DU?$char_traits@D@std@@V?$allocator@D@2@@std@@VPortInfo@BT@@@std@@PEAX@std@@SAXAEAV?$allocator@U?$_List_node@U?$pair@$$CBV?$basic_string@DU?$char_traits@D@std@@V?$allocator@D@2@@std@@VPortInfo@BT@@@std@@PEAX@std@@@1@PEAU01@@Z
	??$_Freenode@V?$allocator@U?$_List_node@U?$pair@$$CBV?$basic_string@DU?$char_traits@D@std@@V?$allocator@D@2@@std@@VPortInfo@BT@@@std@@PEAX@std@@@std@@@?$_List_node@U?$pair@$$CBV?$basic_string@DU?$char_traits@D@std@@V?$allocator@D@2@@std@@VPortInfo@BT@@@std@@PEAX@std@@SAXAEAV?$allocator@U?$_List_node@U?$pair@$$CBV?$basic_string@DU?$char_traits@D@std@@V?$allocator@D@2@@std@@VPortInfo@BT@@@std@@PEAX@std@@@1@PEAU01@@Z
	??$_Get_size_of_n@$00@std@@YA_K_K@Z
	??$_Get_size_of_n@$07@std@@YA_K_K@Z
	??$_Get_size_of_n@$0MA@@std@@YA_K_K@Z
	??$_Get_unwrapped@AEBQEAV?$_List_unchecked_iterator@V?$_List_val@U?$_List_simple_types@U?$pair@$$CBV?$basic_string@DU?$char_traits@D@std@@V?$allocator@D@2@@std@@VPortInfo@BT@@@std@@@std@@@std@@@std@@@std@@YA?A_TAEBQEAV?$_List_unchecked_iterator@V?$_List_val@U?$_List_simple_types@U?$pair@$$CBV?$basic_string@DU?$char_traits@D@std@@V?$allocator@D@2@@std@@VPortInfo@BT@@@std@@@std@@@std@@@0@@Z
	??$_Reallocate_for@V<lambda_66f57f934f28d61049862f64df852ff0>@@PEBD@?$basic_string@DU?$char_traits@D@std@@V?$allocator@D@2@@std@@AEAAAEAV01@_KV<lambda_66f57f934f28d61049862f64df852ff0>@@PEBD@Z
	??$_Reset@V?$_Binder@U_Unforced@std@@P8CrossDoor@@EAA?AW4NodeStatus@BT@@XZPEAV3@@std@@@?$_Func_class@W4NodeStatus@BT@@AEAVTreeNode@2@@std@@IEAAX$$QEAV?$_Binder@U_Unforced@std@@P8CrossDoor@@EAA?AW4NodeStatus@BT@@XZPEAV3@@1@@Z
	??$_Test_callable@V?$_Binder@U_Unforced@std@@P8CrossDoor@@EAA?AW4NodeStatus@BT@@XZPEAV3@@std@@@std@@YA_NAEBV?$_Binder@U_Unforced@std@@P8CrossDoor@@EAA?AW4NodeStatus@BT@@XZPEAV3@@0@@Z
	??$_To_absolute_time@_JU?$ratio@$00$0DOI@@std@@@std@@YA?A_PAEBV?$duration@_JU?$ratio@$00$0DOI@@std@@@chrono@0@@Z
	??$_To_xtime_10_day_clamped@_JU?$ratio@$00$0DLJKMKAA@@std@@@std@@YA_NAEAUxtime@@AEBV?$duration@_JU?$ratio@$00$0DLJKMKAA@@std@@@chrono@0@@Z
	??$_Unfancy@D@std@@YAPEADPEAD@Z
	??$_Voidify_iter@PEAPEAD@std@@YAPEAXPEAPEAD@Z
	??$_Voidify_iter@PEAPEAU?$_List_node@U?$pair@$$CBV?$basic_string@DU?$char_traits@D@std@@V?$allocator@D@2@@std@@VPortInfo@BT@@@std@@PEAX@std@@@std@@YAPEAXPEAPEAU?$_List_node@U?$pair@$$CBV?$basic_string@DU?$char_traits@D@std@@V?$allocator@D@2@@std@@VPortInfo@BT@@@std@@PEAX@0@@Z
	??$_Voidify_iter@PEAV?$_List_unchecked_iterator@V?$_List_val@U?$_List_simple_types@U?$pair@$$CBV?$basic_string@DU?$char_traits@D@std@@V?$allocator@D@2@@std@@VPortInfo@BT@@@std@@@std@@@std@@@std@@@std@@YAPEAXPEAV?$_List_unchecked_iterator@V?$_List_val@U?$_List_simple_types@U?$pair@$$CBV?$basic_string@DU?$char_traits@D@std@@V?$allocator@D@2@@std@@VPortInfo@BT@@@std@@@std@@@std@@@0@@Z
	??$addressof@$$CBV?$_Binder@U_Unforced@std@@P8CrossDoor@@EAA?AW4NodeStatus@BT@@XZPEAV3@@std@@@std@@YAPEBV?$_Binder@U_Unforced@std@@P8CrossDoor@@EAA?AW4NodeStatus@BT@@XZPEAV3@@0@AEBV10@@Z
	??$addressof@PEAD@std@@YAPEAPEADAEAPEAD@Z
	??$addressof@PEAU?$_List_node@U?$pair@$$CBV?$basic_string@DU?$char_traits@D@std@@V?$allocator@D@2@@std@@VPortInfo@BT@@@std@@PEAX@std@@@std@@YAPEAPEAU?$_List_node@U?$pair@$$CBV?$basic_string@DU?$char_traits@D@std@@V?$allocator@D@2@@std@@VPortInfo@BT@@@std@@PEAX@0@AEAPEAU10@@Z
	??$addressof@U?$pair@$$CBV?$basic_string@DU?$char_traits@D@std@@V?$allocator@D@2@@std@@VPortInfo@BT@@@std@@@std@@YAPEAU?$pair@$$CBV?$basic_string@DU?$char_traits@D@std@@V?$allocator@D@2@@std@@VPortInfo@BT@@@0@AEAU10@@Z
	??$addressof@V?$_List_unchecked_iterator@V?$_List_val@U?$_List_simple_types@U?$pair@$$CBV?$basic_string@DU?$char_traits@D@std@@V?$allocator@D@2@@std@@VPortInfo@BT@@@std@@@std@@@std@@@std@@@std@@YAPEAV?$_List_unchecked_iterator@V?$_List_val@U?$_List_simple_types@U?$pair@$$CBV?$basic_string@DU?$char_traits@D@std@@V?$allocator@D@2@@std@@VPortInfo@BT@@@std@@@std@@@std@@@0@AEAV10@@Z
	??$bind@P8CrossDoor@@EAA?AW4NodeStatus@BT@@XZPEAV1@@std@@YA?AV?$_Binder@U_Unforced@std@@P8CrossDoor@@EAA?AW4NodeStatus@BT@@XZPEAV3@@0@$$QEAP8CrossDoor@@EAA?AW4NodeStatus@BT@@XZ$$QEAPEAV2@@Z
	??$destroy@U?$pair@$$CBV?$basic_string@DU?$char_traits@D@std@@V?$allocator@D@2@@std@@VPortInfo@BT@@@std@@@?$_Default_allocator_traits@V?$allocator@U?$_List_node@U?$pair@$$CBV?$basic_string@DU?$char_traits@D@std@@V?$allocator@D@2@@std@@VPortInfo@BT@@@std@@PEAX@std@@@std@@@std@@SAXAEAV?$allocator@U?$_List_node@U?$pair@$$CBV?$basic_string@DU?$char_traits@D@std@@V?$allocator@D@2@@std@@VPortInfo@BT@@@std@@PEAX@std@@@1@QEAU?$pair@$$CBV?$basic_string@DU?$char_traits@D@std@@V?$allocator@D@2@@std@@VPortInfo@BT@@@1@@Z
	??$duration_cast@V?$duration@NU?$ratio@$00$0DLJKMKAA@@std@@@chrono@std@@NU?$ratio@$00$00@3@$0A@@chrono@std@@YA?AV?$duration@NU?$ratio@$00$0DLJKMKAA@@std@@@01@AEBV?$duration@NU?$ratio@$00$00@std@@@01@@Z
	??$duration_cast@V?$duration@NU?$ratio@$00$0DLJKMKAA@@std@@@chrono@std@@_JU?$ratio@$00$0DLJKMKAA@@3@$0A@@chrono@std@@YA?AV?$duration@NU?$ratio@$00$0DLJKMKAA@@std@@@01@AEBV?$duration@_JU?$ratio@$00$0DLJKMKAA@@std@@@01@@Z
	??$duration_cast@V?$duration@_JU?$ratio@$00$00@std@@@chrono@std@@_JU?$ratio@$00$0DLJKMKAA@@3@$0A@@chrono@std@@YA?AV?$duration@_JU?$ratio@$00$00@std@@@01@AEBV?$duration@_JU?$ratio@$00$0DLJKMKAA@@std@@@01@@Z
	??$duration_cast@V?$duration@_JU?$ratio@$00$0DLJKMKAA@@std@@@chrono@std@@_JU?$ratio@$00$00@3@$0A@@chrono@std@@YA?AV?$duration@_JU?$ratio@$00$0DLJKMKAA@@std@@@01@AEBV?$duration@_JU?$ratio@$00$00@std@@@01@@Z
	??$duration_cast@V?$duration@_JU?$ratio@$00$0DLJKMKAA@@std@@@chrono@std@@_JU?$ratio@$00$0DLJKMKAA@@3@$0A@@chrono@std@@YA?AV?$duration@_JU?$ratio@$00$0DLJKMKAA@@std@@@01@AEBV201@@Z
	??$duration_cast@V?$duration@_JU?$ratio@$00$0DLJKMKAA@@std@@@chrono@std@@_JU?$ratio@$00$0DOI@@3@$0A@@chrono@std@@YA?AV?$duration@_JU?$ratio@$00$0DLJKMKAA@@std@@@01@AEBV?$duration@_JU?$ratio@$00$0DOI@@std@@@01@@Z
	??$duration_cast@V?$duration@_JU?$ratio@$00$0DLJKMKAA@@std@@@chrono@std@@_JU?$ratio@$00$0JIJGIA@@3@$0A@@chrono@std@@YA?AV?$duration@_JU?$ratio@$00$0DLJKMKAA@@std@@@01@AEBV?$duration@_JU?$ratio@$00$0JIJGIA@@std@@@01@@Z
	??$fill@PEAV?$_List_unchecked_iterator@V?$_List_val@U?$_List_simple_types@U?$pair@$$CBV?$basic_string@DU?$char_traits@D@std@@V?$allocator@D@2@@std@@VPortInfo@BT@@@std@@@std@@@std@@@std@@V12@@std@@YAXQEAV?$_List_unchecked_iterator@V?$_List_val@U?$_List_simple_types@U?$pair@$$CBV?$basic_string@DU?$char_traits@D@std@@V?$allocator@D@2@@std@@VPortInfo@BT@@@std@@@std@@@std@@@0@0AEBV10@@Z
	??$forward@AEAPEAU?$_List_node@U?$pair@$$CBV?$basic_string@DU?$char_traits@D@std@@V?$allocator@D@2@@std@@VPortInfo@BT@@@std@@PEAX@std@@@std@@YAAEAPEAU?$_List_node@U?$pair@$$CBV?$basic_string@DU?$char_traits@D@std@@V?$allocator@D@2@@std@@VPortInfo@BT@@@std@@PEAX@0@AEAPEAU10@@Z
	??$forward@AEAVTreeNode@BT@@@std@@YAAEAVTreeNode@BT@@AEAV12@@Z
	??$forward@AEBQEAD@std@@YAAEBQEADAEBQEAD@Z
	??$forward@AEBV?$_Binder@U_Unforced@std@@P8CrossDoor@@EAA?AW4NodeStatus@BT@@XZPEAV3@@std@@@std@@YAAEBV?$_Binder@U_Unforced@std@@P8CrossDoor@@EAA?AW4NodeStatus@BT@@XZPEAV3@@0@AEBV10@@Z
	??$forward@AEBV?$_List_unchecked_iterator@V?$_List_val@U?$_List_simple_types@U?$pair@$$CBV?$basic_string@DU?$char_traits@D@std@@V?$allocator@D@2@@std@@VPortInfo@BT@@@std@@@std@@@std@@@std@@@std@@YAAEBV?$_List_unchecked_iterator@V?$_List_val@U?$_List_simple_types@U?$pair@$$CBV?$basic_string@DU?$char_traits@D@std@@V?$allocator@D@2@@std@@VPortInfo@BT@@@std@@@std@@@std@@@0@AEBV10@@Z
	??$forward@AEBV?$allocator@U?$pair@$$CBV?$basic_string@DU?$char_traits@D@std@@V?$allocator@D@2@@std@@VPortInfo@BT@@@std@@@std@@@std@@YAAEBV?$allocator@U?$pair@$$CBV?$basic_string@DU?$char_traits@D@std@@V?$allocator@D@2@@std@@VPortInfo@BT@@@std@@@0@AEBV10@@Z
	??$forward@M@std@@YA$$QEAMAEAM@Z
	??$forward@P8CrossDoor@@EAA?AW4NodeStatus@BT@@XZ@std@@YA$$QEAP8CrossDoor@@EAA?AW4NodeStatus@BT@@XZAEAP81@EAA?AW423@XZ@Z
	??$forward@PEAVCrossDoor@@@std@@YA$$QEAPEAVCrossDoor@@AEAPEAV1@@Z
	??$forward@U_Zero_then_variadic_args_t@std@@@std@@YA$$QEAU_Zero_then_variadic_args_t@0@AEAU10@@Z
	??$forward@V?$_Binder@U_Unforced@std@@P8CrossDoor@@EAA?AW4NodeStatus@BT@@XZPEAV3@@std@@@std@@YA$$QEAV?$_Binder@U_Unforced@std@@P8CrossDoor@@EAA?AW4NodeStatus@BT@@XZPEAV3@@0@AEAV10@@Z
	??$forward_as_tuple@AEAVTreeNode@BT@@@std@@YA?AV?$tuple@AEAVTreeNode@BT@@@0@AEAVTreeNode@BT@@@Z
	??$get@$0A@PEAVCrossDoor@@@std@@YAAEAPEAVCrossDoor@@AEAV?$tuple@PEAVCrossDoor@@@0@@Z
	??$invoke@AEAP8CrossDoor@@EAA?AW4NodeStatus@BT@@XZAEAPEAV1@$$V@std@@YA?AW4NodeStatus@BT@@AEAP8CrossDoor@@EAA?AW412@XZAEAPEAV3@@Z
	??$invoke@AEAV?$_Binder@U_Unforced@std@@P8CrossDoor@@EAA?AW4NodeStatus@BT@@XZPEAV3@@std@@AEAVTreeNode@BT@@$$V@std@@YA?AW4NodeStatus@BT@@AEAV?$_Binder@U_Unforced@std@@P8CrossDoor@@EAA?AW4NodeStatus@BT@@XZPEAV3@@0@AEAVTreeNode@2@@Z
	??$max@_K@std@@YAAEB_KAEB_K0@Z
	??$min@_K@std@@YAAEB_KAEB_K0@Z
	??$move@AEAV?$_Binder@U_Unforced@std@@P8CrossDoor@@EAA?AW4NodeStatus@BT@@XZPEAV3@@std@@@std@@YA$$QEAV?$_Binder@U_Unforced@std@@P8CrossDoor@@EAA?AW4NodeStatus@BT@@XZPEAV3@@0@AEAV10@@Z
	??$move@AEAV?$tuple@AEAVTreeNode@BT@@@std@@@std@@YA$$QEAV?$tuple@AEAVTreeNode@BT@@@0@AEAV10@@Z
	??$sleep_for@_JU?$ratio@$00$0DOI@@std@@@this_thread@std@@YAXAEBV?$duration@_JU?$ratio@$00$0DOI@@std@@@chrono@1@@Z
	??$sleep_until@Usteady_clock@chrono@std@@V?$duration@_JU?$ratio@$00$0DLJKMKAA@@std@@@23@@this_thread@std@@YAXAEBV?$time_point@Usteady_clock@chrono@std@@V?$duration@_JU?$ratio@$00$0DLJKMKAA@@std@@@23@@chrono@1@@Z
	??$uninitialized_fill@PEAV?$_List_unchecked_iterator@V?$_List_val@U?$_List_simple_types@U?$pair@$$CBV?$basic_string@DU?$char_traits@D@std@@V?$allocator@D@2@@std@@VPortInfo@BT@@@std@@@std@@@std@@@std@@V12@@std@@YAXQEAV?$_List_unchecked_iterator@V?$_List_val@U?$_List_simple_types@U?$pair@$$CBV?$basic_string@DU?$char_traits@D@std@@V?$allocator@D@2@@std@@VPortInfo@BT@@@std@@@std@@@std@@@0@0AEBV10@@Z
	??0?$_Binder@U_Unforced@std@@P8CrossDoor@@EAA?AW4NodeStatus@BT@@XZPEAV3@@std@@QEAA@$$QEAP8CrossDoor@@EAA?AW4NodeStatus@BT@@XZ$$QEAPEAV2@@Z
	??0?$_Binder@U_Unforced@std@@P8CrossDoor@@EAA?AW4NodeStatus@BT@@XZPEAV3@@std@@QEAA@$$QEAV01@@Z
	??0?$_Binder@U_Unforced@std@@P8CrossDoor@@EAA?AW4NodeStatus@BT@@XZPEAV3@@std@@QEAA@AEBV01@@Z
	??0?$_Compressed_pair@P8CrossDoor@@EAA?AW4NodeStatus@BT@@XZV?$tuple@PEAVCrossDoor@@@std@@$0A@@std@@QEAA@$$QEAV01@@Z
	??0?$_Compressed_pair@P8CrossDoor@@EAA?AW4NodeStatus@BT@@XZV?$tuple@PEAVCrossDoor@@@std@@$0A@@std@@QEAA@AEBV01@@Z
	??0?$_Func_base@W4NodeStatus@BT@@AEAVTreeNode@2@@std@@QEAA@XZ
	??0?$_Func_class@W4NodeStatus@BT@@AEAVTreeNode@2@@std@@QEAA@XZ
	??0?$_Hash@V?$_Umap_traits@V?$basic_string@DU?$char_traits@D@std@@V?$allocator@D@2@@std@@VPortInfo@BT@@V?$_Uhash_compare@V?$basic_string@DU?$char_traits@D@std@@V?$allocator@D@2@@std@@U?$hash@V?$basic_string@DU?$char_traits@D@std@@V?$allocator@D@2@@std@@@2@U?$equal_to@V?$basic_string@DU?$char_traits@D@std@@V?$allocator@D@2@@std@@@2@@2@V?$allocator@U?$pair@$$CBV?$basic_string@DU?$char_traits@D@std@@V?$allocator@D@2@@std@@VPortInfo@BT@@@std@@@2@$0A@@std@@@std@@IEAA@AEBV?$_Uhash_compare@V?$basic_string@DU?$char_traits@D@std@@V?$allocator@D@2@@std@@U?$hash@V?$basic_string@DU?$char_traits@D@std@@V?$allocator@D@2@@std@@@2@U?$equal_to@V?$basic_string@DU?$char_traits@D@std@@V?$allocator@D@2@@std@@@2@@1@AEBV?$allocator@U?$pair@$$CBV?$basic_string@DU?$char_traits@D@std@@V?$allocator@D@2@@std@@VPortInfo@BT@@@std@@@1@@Z
	??0?$_List_unchecked_const_iterator@V?$_List_val@U?$_List_simple_types@U?$pair@$$CBV?$basic_string@DU?$char_traits@D@std@@V?$allocator@D@2@@std@@VPortInfo@BT@@@std@@@std@@@std@@U_Iterator_base0@2@@std@@QEAA@PEAU?$_List_node@U?$pair@$$CBV?$basic_string@DU?$char_traits@D@std@@V?$allocator@D@2@@std@@VPortInfo@BT@@@std@@PEAX@1@PEBV?$_List_val@U?$_List_simple_types@U?$pair@$$CBV?$basic_string@DU?$char_traits@D@std@@V?$allocator@D@2@@std@@VPortInfo@BT@@@std@@@std@@@1@@Z
	??0?$_List_unchecked_iterator@V?$_List_val@U?$_List_simple_types@U?$pair@$$CBV?$basic_string@DU?$char_traits@D@std@@V?$allocator@D@2@@std@@VPortInfo@BT@@@std@@@std@@@std@@@std@@QEAA@PEAU?$_List_node@U?$pair@$$CBV?$basic_string@DU?$char_traits@D@std@@V?$allocator@D@2@@std@@VPortInfo@BT@@@std@@PEAX@1@PEBV?$_List_val@U?$_List_simple_types@U?$pair@$$CBV?$basic_string@DU?$char_traits@D@std@@V?$allocator@D@2@@std@@VPortInfo@BT@@@std@@@std@@@1@@Z
	??0?$_List_val@U?$_List_simple_types@U?$pair@$$CBV?$basic_string@DU?$char_traits@D@std@@V?$allocator@D@2@@std@@VPortInfo@BT@@@std@@@std@@@std@@QEAA@XZ
	??0?$_String_val@U?$_Simple_types@D@std@@@std@@QEAA@XZ
	??0?$_Uhash_compare@V?$basic_string@DU?$char_traits@D@std@@V?$allocator@D@2@@std@@U?$hash@V?$basic_string@DU?$char_traits@D@std@@V?$allocator@D@2@@std@@@2@U?$equal_to@V?$basic_string@DU?$char_traits@D@std@@V?$allocator@D@2@@std@@@2@@std@@QEAA@XZ
	??0?$_Umap_traits@V?$basic_string@DU?$char_traits@D@std@@V?$allocator@D@2@@std@@VPortInfo@BT@@V?$_Uhash_compare@V?$basic_string@DU?$char_traits@D@std@@V?$allocator@D@2@@std@@U?$hash@V?$basic_string@DU?$char_traits@D@std@@V?$allocator@D@2@@std@@@2@U?$equal_to@V?$basic_string@DU?$char_traits@D@std@@V?$allocator@D@2@@std@@@2@@2@V?$allocator@U?$pair@$$CBV?$basic_string@DU?$char_traits@D@std@@V?$allocator@D@2@@std@@VPortInfo@BT@@@std@@@2@$0A@@std@@QEAA@AEBV?$_Uhash_compare@V?$basic_string@DU?$char_traits@D@std@@V?$allocator@D@2@@std@@U?$hash@V?$basic_string@DU?$char_traits@D@std@@V?$allocator@D@2@@std@@@2@U?$equal_to@V?$basic_string@DU?$char_traits@D@std@@V?$allocator@D@2@@std@@@2@@1@@Z
	??0?$_Uninitialized_backout@PEAV?$_List_unchecked_iterator@V?$_List_val@U?$_List_simple_types@U?$pair@$$CBV?$basic_string@DU?$char_traits@D@std@@V?$allocator@D@2@@std@@VPortInfo@BT@@@std@@@std@@@std@@@std@@@std@@QEAA@PEAV?$_List_unchecked_iterator@V?$_List_val@U?$_List_simple_types@U?$pair@$$CBV?$basic_string@DU?$char_traits@D@std@@V?$allocator@D@2@@std@@VPortInfo@BT@@@std@@@std@@@std@@@1@@Z
	??0?$_Vector_val@U?$_Simple_types@V?$_List_unchecked_iterator@V?$_List_val@U?$_List_simple_types@U?$pair@$$CBV?$basic_string@DU?$char_traits@D@std@@V?$allocator@D@2@@std@@VPortInfo@BT@@@std@@@std@@@std@@@std@@@std@@@std@@QEAA@XZ
	??0?$allocator@D@std@@QEAA@XZ
	??0?$allocator@U?$pair@$$CBV?$basic_string@DU?$char_traits@D@std@@V?$allocator@D@2@@std@@VPortInfo@BT@@@std@@@std@@QEAA@XZ
	??0?$basic_string@DU?$char_traits@D@std@@V?$allocator@D@2@@std@@QEAA@QEBD@Z
	??0?$list@U?$pair@$$CBV?$basic_string@DU?$char_traits@D@std@@V?$allocator@D@2@@std@@VPortInfo@BT@@@std@@V?$allocator@U?$pair@$$CBV?$basic_string@DU?$char_traits@D@std@@V?$allocator@D@2@@std@@VPortInfo@BT@@@std@@@2@@std@@QEAA@AEBV?$allocator@U?$pair@$$CBV?$basic_string@DU?$char_traits@D@std@@V?$allocator@D@2@@std@@VPortInfo@BT@@@std@@@1@@Z
	??0?$time_point@Usteady_clock@chrono@std@@V?$duration@_JU?$ratio@$00$0DLJKMKAA@@std@@@23@@chrono@std@@QEAA@AEBV?$duration@_JU?$ratio@$00$0DLJKMKAA@@std@@@12@@Z
	??0?$time_point@Usystem_clock@chrono@std@@V?$duration@_JU?$ratio@$00$0JIJGIA@@std@@@23@@chrono@std@@QEAA@AEBV?$duration@_JU?$ratio@$00$0JIJGIA@@std@@@12@@Z
	??0?$tuple@$$V@std@@QEAA@AEBV01@@Z
	??0?$tuple@PEAVCrossDoor@@@std@@QEAA@$$QEAV01@@Z
	??0?$tuple@PEAVCrossDoor@@@std@@QEAA@AEBV01@@Z
	??0?$unordered_map@V?$basic_string@DU?$char_traits@D@std@@V?$allocator@D@2@@std@@VPortInfo@BT@@U?$hash@V?$basic_string@DU?$char_traits@D@std@@V?$allocator@D@2@@std@@@2@U?$equal_to@V?$basic_string@DU?$char_traits@D@std@@V?$allocator@D@2@@std@@@2@V?$allocator@U?$pair@$$CBV?$basic_string@DU?$char_traits@D@std@@V?$allocator@D@2@@std@@VPortInfo@BT@@@std@@@2@@std@@QEAA@XZ
	??0_Bxty@?$_String_val@U?$_Simple_types@D@std@@@std@@QEAA@XZ
	??0_Fake_proxy_ptr_impl@std@@QEAA@AEBU_Fake_allocator@1@AEBU_Container_base0@1@@Z
	??0bad_alloc@std@@AEAA@QEBD@Z
	??0bad_alloc@std@@QEAA@AEBV01@@Z
	??0bad_array_new_length@std@@QEAA@AEBV01@@Z
	??0bad_array_new_length@std@@QEAA@XZ
	??0exception@std@@QEAA@AEBV01@@Z
	??0exception@std@@QEAA@QEBDH@Z
	??1?$_Compressed_pair@V?$allocator@D@std@@V?$_String_val@U?$_Simple_types@D@std@@@2@$00@std@@QEAA@XZ
	??1?$_Func_class@VAny@BT@@V?$basic_string_view@DU?$char_traits@D@std@@@std@@@std@@QEAA@XZ
	??1?$_Func_class@W4NodeStatus@BT@@AEAVTreeNode@2@@std@@QEAA@XZ
	??1?$_Hash@V?$_Umap_traits@V?$basic_string@DU?$char_traits@D@std@@V?$allocator@D@2@@std@@VPortInfo@BT@@V?$_Uhash_compare@V?$basic_string@DU?$char_traits@D@std@@V?$allocator@D@2@@std@@U?$hash@V?$basic_string@DU?$char_traits@D@std@@V?$allocator@D@2@@std@@@2@U?$equal_to@V?$basic_string@DU?$char_traits@D@std@@V?$allocator@D@2@@std@@@2@@2@V?$allocator@U?$pair@$$CBV?$basic_string@DU?$char_traits@D@std@@V?$allocator@D@2@@std@@VPortInfo@BT@@@std@@@2@$0A@@std@@@std@@QEAA@XZ
	??1?$_Hash_vec@V?$allocator@V?$_List_unchecked_iterator@V?$_List_val@U?$_List_simple_types@U?$pair@$$CBV?$basic_string@DU?$char_traits@D@std@@V?$allocator@D@2@@std@@VPortInfo@BT@@@std@@@std@@@std@@@std@@@std@@@std@@QEAA@XZ
	??1?$_String_val@U?$_Simple_types@D@std@@@std@@QEAA@XZ
	??1?$_Uninitialized_backout@PEAV?$_List_unchecked_iterator@V?$_List_val@U?$_List_simple_types@U?$pair@$$CBV?$basic_string@DU?$char_traits@D@std@@V?$allocator@D@2@@std@@VPortInfo@BT@@@std@@@std@@@std@@@std@@@std@@QEAA@XZ
	??1?$basic_string@DU?$char_traits@D@std@@V?$allocator@D@2@@std@@QEAA@XZ
	??1?$function@$$A6A?AVAny@BT@@V?$basic_string_view@DU?$char_traits@D@std@@@std@@@Z@std@@QEAA@XZ
	??1?$function@$$A6A?AW4NodeStatus@BT@@AEAVTreeNode@2@@Z@std@@QEAA@XZ
	??1?$list@U?$pair@$$CBV?$basic_string@DU?$char_traits@D@std@@V?$allocator@D@2@@std@@VPortInfo@BT@@@std@@V?$allocator@U?$pair@$$CBV?$basic_string@DU?$char_traits@D@std@@V?$allocator@D@2@@std@@VPortInfo@BT@@@std@@@2@@std@@QEAA@XZ
	??1?$pair@$$CBV?$basic_string@DU?$char_traits@D@std@@V?$allocator@D@2@@std@@VPortInfo@BT@@@std@@QEAA@XZ
	??1?$unordered_map@V?$basic_string@DU?$char_traits@D@std@@V?$allocator@D@2@@std@@VPortInfo@BT@@U?$hash@V?$basic_string@DU?$char_traits@D@std@@V?$allocator@D@2@@std@@@2@U?$equal_to@V?$basic_string@DU?$char_traits@D@std@@V?$allocator@D@2@@std@@@2@V?$allocator@U?$pair@$$CBV?$basic_string@DU?$char_traits@D@std@@V?$allocator@D@2@@std@@VPortInfo@BT@@@std@@@2@@std@@QEAA@XZ
	??1PortInfo@BT@@QEAA@XZ
	??1_Bxty@?$_String_val@U?$_Simple_types@D@std@@@std@@QEAA@XZ
	??1bad_alloc@std@@UEAA@XZ
	??1bad_array_new_length@std@@UEAA@XZ
	??1exception@std@@UEAA@XZ
	??2@YAPEAX_KPEAX@Z
	??R<lambda_66f57f934f28d61049862f64df852ff0>@@QEBA@QEAD_KQEBD@Z
	??Y?$duration@_JU?$ratio@$00$0DLJKMKAA@@std@@@chrono@std@@QEAAAEAV012@AEBV012@@Z
	??Y?$time_point@Usteady_clock@chrono@std@@V?$duration@_JU?$ratio@$00$0DLJKMKAA@@std@@@23@@chrono@std@@QEAAAEAV012@AEBV?$duration@_JU?$ratio@$00$0DLJKMKAA@@std@@@12@@Z
	??Z?$duration@_JU?$ratio@$00$0DLJKMKAA@@std@@@chrono@std@@QEAAAEAV012@AEBV012@@Z
	??_7?$_Func_impl_no_alloc@V?$_Binder@U_Unforced@std@@P8CrossDoor@@EAA?AW4NodeStatus@BT@@XZPEAV3@@std@@W4NodeStatus@BT@@AEAVTreeNode@4@@std@@6B@
	??_7bad_alloc@std@@6B@
	??_7bad_array_new_length@std@@6B@
	??_7exception@std@@6B@
	?SleepMS@@YAXH@Z
	?_Adjust_manually_vector_aligned@std@@YAXAEAPEAXAEA_K@Z
	?_Adopt@_Iterator_base0@std@@QEAAXPEBX@Z
	?_Alloc_proxy@_Container_base0@std@@QEAAXAEBU_Fake_allocator@2@@Z
	?_Alloc_sentinel_and_proxy@?$list@U?$pair@$$CBV?$basic_string@DU?$char_traits@D@std@@V?$allocator@D@2@@std@@VPortInfo@BT@@@std@@V?$allocator@U?$pair@$$CBV?$basic_string@DU?$char_traits@D@std@@V?$allocator@D@2@@std@@VPortInfo@BT@@@std@@@2@@std@@AEAAXXZ
	?_Allocate@_Default_allocate_traits@std@@SAPEAX_K@Z
	?_Assign_grow@?$_Hash_vec@V?$allocator@V?$_List_unchecked_iterator@V?$_List_val@U?$_List_simple_types@U?$pair@$$CBV?$basic_string@DU?$char_traits@D@std@@V?$allocator@D@2@@std@@VPortInfo@BT@@@std@@@std@@@std@@@std@@@std@@@std@@QEAAX_KV?$_List_unchecked_iterator@V?$_List_val@U?$_List_simple_types@U?$pair@$$CBV?$basic_string@DU?$char_traits@D@std@@V?$allocator@D@2@@std@@VPortInfo@BT@@@std@@@std@@@std@@@2@@Z
	?_Calculate_growth@?$basic_string@DU?$char_traits@D@std@@V?$allocator@D@2@@std@@AEBA_K_K@Z
	?_Calculate_growth@?$basic_string@DU?$char_traits@D@std@@V?$allocator@D@2@@std@@CA_K_K00@Z
	?_Copy@?$_Func_impl_no_alloc@V?$_Binder@U_Unforced@std@@P8CrossDoor@@EAA?AW4NodeStatus@BT@@XZPEAV3@@std@@W4NodeStatus@BT@@AEAVTreeNode@4@@std@@EEBAPEAV?$_Func_base@W4NodeStatus@BT@@AEAVTreeNode@2@@2@PEAX@Z
	?_Delete_this@?$_Func_impl_no_alloc@V?$_Binder@U_Unforced@std@@P8CrossDoor@@EAA?AW4NodeStatus@BT@@XZPEAV3@@std@@W4NodeStatus@BT@@AEAVTreeNode@4@@std@@EEAAX_N@Z
	?_Do_call@?$_Func_impl_no_alloc@V?$_Binder@U_Unforced@std@@P8CrossDoor@@EAA?AW4NodeStatus@BT@@XZPEAV3@@std@@W4NodeStatus@BT@@AEAVTreeNode@4@@std@@EEAA?AW4NodeStatus@BT@@AEAVTreeNode@4@@Z
	?_Empty@?$_Func_class@VAny@BT@@V?$basic_string_view@DU?$char_traits@D@std@@@std@@@std@@IEBA_NXZ
	?_Empty@?$_Func_class@W4NodeStatus@BT@@AEAVTreeNode@2@@std@@IEBA_NXZ
	?_Get@?$_Func_impl_no_alloc@V?$_Binder@U_Unforced@std@@P8CrossDoor@@EAA?AW4NodeStatus@BT@@XZPEAV3@@std@@W4NodeStatus@BT@@AEAVTreeNode@4@@std@@EEBAPEBXXZ
	?_Get_first@?$_Compressed_pair@P8CrossDoor@@EAA?AW4NodeStatus@BT@@XZV?$tuple@PEAVCrossDoor@@@std@@$0A@@std@@QEAAAEAP8CrossDoor@@EAA?AW4NodeStatus@BT@@XZXZ
	?_Get_first@?$_Compressed_pair@V?$allocator@D@std@@V?$_String_val@U?$_Simple_types@D@std@@@2@$00@std@@QEAAAEAV?$allocator@D@2@XZ
	?_Get_first@?$_Compressed_pair@V?$allocator@D@std@@V?$_String_val@U?$_Simple_types@D@std@@@2@$00@std@@QEBAAEBV?$allocator@D@2@XZ
	?_Get_first@?$_Compressed_pair@V?$allocator@U?$_List_node@U?$pair@$$CBV?$basic_string@DU?$char_traits@D@std@@V?$allocator@D@2@@std@@VPortInfo@BT@@@std@@PEAX@std@@@std@@V?$_List_val@U?$_List_simple_types@U?$pair@$$CBV?$basic_string@DU?$char_traits@D@std@@V?$allocator@D@2@@std@@VPortInfo@BT@@@std@@@std@@@2@$00@std@@QEAAAEAV?$allocator@U?$_List_node@U?$pair@$$CBV?$basic_string@DU?$char_traits@D@std@@V?$allocator@D@2@@std@@VPortInfo@BT@@@std@@PEAX@std@@@2@XZ
	?_Get_first@?$_Compressed_pair@V?$allocator@V?$_List_unchecked_iterator@V?$_List_val@U?$_List_simple_types@U?$pair@$$CBV?$basic_string@DU?$char_traits@D@std@@V?$allocator@D@2@@std@@VPortInfo@BT@@@std@@@std@@@std@@@std@@@std@@V?$_Vector_val@U?$_Simple_types@V?$_List_unchecked_iterator@V?$_List_val@U?$_List_simple_types@U?$pair@$$CBV?$basic_string@DU?$char_traits@D@std@@V?$allocator@D@2@@std@@VPortInfo@BT@@@std@@@std@@@std@@@std@@@std@@@2@$00@std@@QEAAAEAV?$allocator@V?$_List_unchecked_iterator@V?$_List_val@U?$_List_simple_types@U?$pair@$$CBV?$basic_string@DU?$char_traits@D@std@@V?$allocator@D@2@@std@@VPortInfo@BT@@@std@@@std@@@std@@@std@@@2@XZ
	?_Get_max_bucket_size@?$_Uhash_compare@V?$basic_string@DU?$char_traits@D@std@@V?$allocator@D@2@@std@@U?$hash@V?$basic_string@DU?$char_traits@D@std@@V?$allocator@D@2@@std@@@2@U?$equal_to@V?$basic_string@DU?$char_traits@D@std@@V?$allocator@D@2@@std@@@2@@std@@QEAAAEAMXZ
	?_Getal@?$basic_string@DU?$char_traits@D@std@@V?$allocator@D@2@@std@@AEAAAEAV?$allocator@D@2@XZ
	?_Getal@?$basic_string@DU?$char_traits@D@std@@V?$allocator@D@2@@std@@AEBAAEBV?$allocator@D@2@XZ
	?_Getal@?$list@U?$pair@$$CBV?$basic_string@DU?$char_traits@D@std@@V?$allocator@D@2@@std@@VPortInfo@BT@@@std@@V?$allocator@U?$pair@$$CBV?$basic_string@DU?$char_traits@D@std@@V?$allocator@D@2@@std@@VPortInfo@BT@@@std@@@2@@std@@AEAAAEAV?$allocator@U?$_List_node@U?$pair@$$CBV?$basic_string@DU?$char_traits@D@std@@V?$allocator@D@2@@std@@VPortInfo@BT@@@std@@PEAX@std@@@2@XZ
	?_Getimpl@?$_Func_class@VAny@BT@@V?$basic_string_view@DU?$char_traits@D@std@@@std@@@std@@AEBAPEAV?$_Func_base@VAny@BT@@V?$basic_string_view@DU?$char_traits@D@std@@@std@@@2@XZ
	?_Getimpl@?$_Func_class@W4NodeStatus@BT@@AEAVTreeNode@2@@std@@AEBAPEAV?$_Func_base@W4NodeStatus@BT@@AEAVTreeNode@2@@2@XZ
	?_Large_string_engaged@?$_String_val@U?$_Simple_types@D@std@@@std@@QEBA_NXZ
	?_Local@?$_Func_class@VAny@BT@@V?$basic_string_view@DU?$char_traits@D@std@@@std@@@std@@AEBA_NXZ
	?_Local@?$_Func_class@W4NodeStatus@BT@@AEAVTreeNode@2@@std@@AEBA_NXZ
	?_Max_bucket_size@?$_Hash@V?$_Umap_traits@V?$basic_string@DU?$char_traits@D@std@@V?$allocator@D@2@@std@@VPortInfo@BT@@V?$_Uhash_compare@V?$basic_string@DU?$char_traits@D@std@@V?$allocator@D@2@@std@@U?$hash@V?$basic_string@DU?$char_traits@D@std@@V?$allocator@D@2@@std@@@2@U?$equal_to@V?$basic_string@DU?$char_traits@D@std@@V?$allocator@D@2@@std@@@2@@2@V?$allocator@U?$pair@$$CBV?$basic_string@DU?$char_traits@D@std@@V?$allocator@D@2@@std@@VPortInfo@BT@@@std@@@2@$0A@@std@@@std@@IEAAAEAMXZ
	?_Move@?$_Func_impl_no_alloc@V?$_Binder@U_Unforced@std@@P8CrossDoor@@EAA?AW4NodeStatus@BT@@XZPEAV3@@std@@W4NodeStatus@BT@@AEAVTreeNode@4@@std@@EEAAPEAV?$_Func_base@W4NodeStatus@BT@@AEAVTreeNode@2@@2@PEAX@Z
	?_Myptr@?$_String_val@U?$_Simple_types@D@std@@@std@@QEAAPEADXZ
	?_Orphan_all@_Container_base0@std@@QEAAXXZ
	?_Release@?$_Uninitialized_backout@PEAV?$_List_unchecked_iterator@V?$_List_val@U?$_List_simple_types@U?$pair@$$CBV?$basic_string@DU?$char_traits@D@std@@V?$allocator@D@2@@std@@VPortInfo@BT@@@std@@@std@@@std@@@std@@@std@@QEAAPEAV?$_List_unchecked_iterator@V?$_List_val@U?$_List_simple_types@U?$pair@$$CBV?$basic_string@DU?$char_traits@D@std@@V?$allocator@D@2@@std@@VPortInfo@BT@@@std@@@std@@@std@@@2@XZ
	?_Release@_Fake_proxy_ptr_impl@std@@QEAAXXZ
	?_Set@?$_Func_class@VAny@BT@@V?$basic_string_view@DU?$char_traits@D@std@@@std@@@std@@AEAAXPEAV?$_Func_base@VAny@BT@@V?$basic_string_view@DU?$char_traits@D@std@@@std@@@2@@Z
	?_Set@?$_Func_class@W4NodeStatus@BT@@AEAVTreeNode@2@@std@@AEAAXPEAV?$_Func_base@W4NodeStatus@BT@@AEAVTreeNode@2@@2@@Z
	?_Target_type@?$_Func_impl_no_alloc@V?$_Binder@U_Unforced@std@@P8CrossDoor@@EAA?AW4NodeStatus@BT@@XZPEAV3@@std@@W4NodeStatus@BT@@AEAVTreeNode@4@@std@@EEBAAEBVtype_info@@XZ
	?_Throw_bad_array_new_length@std@@YAXXZ
	?_Tidy@?$_Func_class@VAny@BT@@V?$basic_string_view@DU?$char_traits@D@std@@@std@@@std@@IEAAXXZ
	?_Tidy@?$_Func_class@W4NodeStatus@BT@@AEAVTreeNode@2@@std@@IEAAXXZ
	?_Tidy@?$_Hash_vec@V?$allocator@V?$_List_unchecked_iterator@V?$_List_val@U?$_List_simple_types@U?$pair@$$CBV?$basic_string@DU?$char_traits@D@std@@V?$allocator@D@2@@std@@VPortInfo@BT@@@std@@@std@@@std@@@std@@@std@@@std@@QEAAXXZ
	?_Tidy@?$list@U?$pair@$$CBV?$basic_string@DU?$char_traits@D@std@@V?$allocator@D@2@@std@@VPortInfo@BT@@@std@@V?$allocator@U?$pair@$$CBV?$basic_string@DU?$char_traits@D@std@@V?$allocator@D@2@@std@@VPortInfo@BT@@@std@@@2@@std@@AEAAXXZ
	?_Tidy_deallocate@?$basic_string@DU?$char_traits@D@std@@V?$allocator@D@2@@std@@AEAAXXZ
	?_Tidy_init@?$basic_string@DU?$char_traits@D@std@@V?$allocator@D@2@@std@@AEAAXXZ
	?_Unchecked_end@?$list@U?$pair@$$CBV?$basic_string@DU?$char_traits@D@std@@V?$allocator@D@2@@std@@VPortInfo@BT@@@std@@V?$allocator@U?$pair@$$CBV?$basic_string@DU?$char_traits@D@std@@V?$allocator@D@2@@std@@VPortInfo@BT@@@std@@@2@@std@@QEAA?AV?$_List_unchecked_iterator@V?$_List_val@U?$_List_simple_types@U?$pair@$$CBV?$basic_string@DU?$char_traits@D@std@@V?$allocator@D@2@@std@@VPortInfo@BT@@@std@@@std@@@std@@@2@XZ
	?_Xlen_string@std@@YAXXZ
	?allocate@?$allocator@D@std@@QEAAPEAD_K@Z
	?allocate@?$allocator@U?$_List_node@U?$pair@$$CBV?$basic_string@DU?$char_traits@D@std@@V?$allocator@D@2@@std@@VPortInfo@BT@@@std@@PEAX@std@@@std@@QEAAPEAU?$_List_node@U?$pair@$$CBV?$basic_string@DU?$char_traits@D@std@@V?$allocator@D@2@@std@@VPortInfo@BT@@@std@@PEAX@2@_K@Z
	?allocate@?$allocator@V?$_List_unchecked_iterator@V?$_List_val@U?$_List_simple_types@U?$pair@$$CBV?$basic_string@DU?$char_traits@D@std@@V?$allocator@D@2@@std@@VPortInfo@BT@@@std@@@std@@@std@@@std@@@std@@QEAAPEAV?$_List_unchecked_iterator@V?$_List_val@U?$_List_simple_types@U?$pair@$$CBV?$basic_string@DU?$char_traits@D@std@@V?$allocator@D@2@@std@@VPortInfo@BT@@@std@@@std@@@std@@@2@_K@Z
	?assign@?$_Narrow_char_traits@DH@std@@SAXAEADAEBD@Z
	?assign@?$basic_string@DU?$char_traits@D@std@@V?$allocator@D@2@@std@@QEAAAEAV12@QEBD@Z
	?assign@?$basic_string@DU?$char_traits@D@std@@V?$allocator@D@2@@std@@QEAAAEAV12@QEBD_K@Z
	?copy@?$_Char_traits@DH@std@@SAPEADQEADQEBD_K@Z
	?count@?$duration@NU?$ratio@$00$00@std@@@chrono@std@@QEBANXZ
	?count@?$duration@NU?$ratio@$00$0DLJKMKAA@@std@@@chrono@std@@QEBANXZ
	?count@?$duration@_JU?$ratio@$00$00@std@@@chrono@std@@QEBA_JXZ
	?count@?$duration@_JU?$ratio@$00$0DLJKMKAA@@std@@@chrono@std@@QEBA_JXZ
	?count@?$duration@_JU?$ratio@$00$0DOI@@std@@@chrono@std@@QEBA_JXZ
	?count@?$duration@_JU?$ratio@$00$0JIJGIA@@std@@@chrono@std@@QEBA_JXZ
	?deallocate@?$_Default_allocator_traits@V?$allocator@U?$_List_node@U?$pair@$$CBV?$basic_string@DU?$char_traits@D@std@@V?$allocator@D@2@@std@@VPortInfo@BT@@@std@@PEAX@std@@@std@@@std@@SAXAEAV?$allocator@U?$_List_node@U?$pair@$$CBV?$basic_string@DU?$char_traits@D@std@@V?$allocator@D@2@@std@@VPortInfo@BT@@@std@@PEAX@std@@@2@QEAU?$_List_node@U?$pair@$$CBV?$basic_string@DU?$char_traits@D@std@@V?$allocator@D@2@@std@@VPortInfo@BT@@@std@@PEAX@2@_K@Z
	?deallocate@?$allocator@D@std@@QEAAXQEAD_K@Z
	?deallocate@?$allocator@V?$_List_unchecked_iterator@V?$_List_val@U?$_List_simple_types@U?$pair@$$CBV?$basic_string@DU?$char_traits@D@std@@V?$allocator@D@2@@std@@VPortInfo@BT@@@std@@@std@@@std@@@std@@@std@@QEAAXQEAV?$_List_unchecked_iterator@V?$_List_val@U?$_List_simple_types@U?$pair@$$CBV?$basic_string@DU?$char_traits@D@std@@V?$allocator@D@2@@std@@VPortInfo@BT@@@std@@@std@@@std@@@2@_K@Z
	?isDoorClosed@CrossDoor@@QEAA?AW4NodeStatus@BT@@XZ
	?length@?$_Narrow_char_traits@DH@std@@SA_KQEBD@Z
	?max@?$numeric_limits@_J@std@@SA_JXZ
	?max_size@?$_Default_allocator_traits@V?$allocator@D@std@@@std@@SA_KAEBV?$allocator@D@2@@Z
	?max_size@?$basic_string@DU?$char_traits@D@std@@V?$allocator@D@2@@std@@QEBA_KXZ
	?move@?$_Char_traits@DH@std@@SAPEADQEADQEBD_K@Z
	?now@steady_clock@chrono@std@@SA?AV?$time_point@Usteady_clock@chrono@std@@V?$duration@_JU?$ratio@$00$0DLJKMKAA@@std@@@23@@23@XZ
	?now@system_clock@chrono@std@@SA?AV?$time_point@Usystem_clock@chrono@std@@V?$duration@_JU?$ratio@$00$0JIJGIA@@std@@@23@@23@XZ
	?openDoor@CrossDoor@@QEAA?AW4NodeStatus@BT@@XZ
	?passThroughDoor@CrossDoor@@QEAA?AW4NodeStatus@BT@@XZ
	?pickLock@CrossDoor@@QEAA?AW4NodeStatus@BT@@XZ
	?registerNodes@CrossDoor@@QEAAXAEAVBehaviorTreeFactory@BT@@@Z
	?size@?$_Hash_vec@V?$allocator@V?$_List_unchecked_iterator@V?$_List_val@U?$_List_simple_types@U?$pair@$$CBV?$basic_string@DU?$char_traits@D@std@@V?$allocator@D@2@@std@@VPortInfo@BT@@@std@@@std@@@std@@@std@@@std@@@std@@QEBA_KXZ
	?smashDoor@CrossDoor@@QEAA?AW4NodeStatus@BT@@XZ
	?time_since_epoch@?$time_point@Usteady_clock@chrono@std@@V?$duration@_JU?$ratio@$00$0DLJKMKAA@@std@@@23@@chrono@std@@QEBA?AV?$duration@_JU?$ratio@$00$0DLJKMKAA@@std@@@23@XZ
	?time_since_epoch@?$time_point@Usystem_clock@chrono@std@@V?$duration@_JU?$ratio@$00$0JIJGIA@@std@@@23@@chrono@std@@QEBA?AV?$duration@_JU?$ratio@$00$0JIJGIA@@std@@@23@XZ
	?what@exception@std@@UEBAPEBDXZ
