EXPORTS 
	?$TSS0@?1??_GetStaticAmbientSchedulerStorage@details@Concurrency@@YAPEAV?$shared_ptr@Uscheduler_interface@Concurrency@@@std@@XZ@4HA 	 DATA
	??_R0$$T@8 	 DATA
	??_R0?AU?$_Task_impl@E@details@Concurrency@@@8 	 DATA
	??_R0?AU?$default_delete@UExprComparison@Ast@BT@@@std@@@8 	 DATA
	??_R0?AU?$default_delete@VTreeNode@BT@@@std@@@8 	 DATA
	??_R0?AUAnyTypeAllowed@PortInfo@BT@@@8 	 DATA
	??_R0?AUExprAssignment@Ast@BT@@@8 	 DATA
	??_R0?AUExprBase@Ast@BT@@@8 	 DATA
	??_R0?AUExprBinaryArithmetic@Ast@BT@@@8 	 DATA
	??_R0?AUExprComparison@Ast@BT@@@8 	 DATA
	??_R0?AUExprIf@Ast@BT@@@8 	 DATA
	??_R0?AUExprLiteral@Ast@BT@@@8 	 DATA
	??_R0?AUExprName@Ast@BT@@@8 	 DATA
	??_R0?AUExprUnaryArithmetic@Ast@BT@@@8 	 DATA
	??_R0?AU_TaskProcHandle@details@Concurrency@@@8 	 DATA
	??_R0?AU_Task_impl_base@details@Concurrency@@@8 	 DATA
	??_R0?AUforced_unwind@detail@context@boost@@@8 	 DATA
	??_R0?AUscheduler_interface@Concurrency@@@8 	 DATA
	??_R0?AV<lambda_1>@?1???$CreateBuilder@V?$SwitchNode@$01@BT@@$$V@BT@@YA?AV?$function@$$A6A?AV?$unique_ptr@VTreeNode@BT@@U?$default_delete@VTreeNode@BT@@@std@@@std@@AEBV?$basic_string@DU?$char_traits@D@std@@V?$allocator@D@2@@2@AEBUNodeConfig@BT@@@Z@std@@XZ@@8 	 DATA
	??_R0?AV<lambda_1>@?1???$CreateBuilder@V?$SwitchNode@$02@BT@@$$V@BT@@YA?AV?$function@$$A6A?AV?$unique_ptr@VTreeNode@BT@@U?$default_delete@VTreeNode@BT@@@std@@@std@@AEBV?$basic_string@DU?$char_traits@D@std@@V?$allocator@D@2@@2@AEBUNodeConfig@BT@@@Z@std@@XZ@@8 	 DATA
	??_R0?AV<lambda_1>@?1???$CreateBuilder@V?$SwitchNode@$03@BT@@$$V@BT@@YA?AV?$function@$$A6A?AV?$unique_ptr@VTreeNode@BT@@U?$default_delete@VTreeNode@BT@@@std@@@std@@AEBV?$basic_string@DU?$char_traits@D@std@@V?$allocator@D@2@@2@AEBUNodeConfig@BT@@@Z@std@@XZ@@8 	 DATA
	??_R0?AV<lambda_1>@?1???$CreateBuilder@V?$SwitchNode@$04@BT@@$$V@BT@@YA?AV?$function@$$A6A?AV?$unique_ptr@VTreeNode@BT@@U?$default_delete@VTreeNode@BT@@@std@@@std@@AEBV?$basic_string@DU?$char_traits@D@std@@V?$allocator@D@2@@2@AEBUNodeConfig@BT@@@Z@std@@XZ@@8 	 DATA
	??_R0?AV<lambda_1>@?1???$CreateBuilder@V?$SwitchNode@$05@BT@@$$V@BT@@YA?AV?$function@$$A6A?AV?$unique_ptr@VTreeNode@BT@@U?$default_delete@VTreeNode@BT@@@std@@@std@@AEBV?$basic_string@DU?$char_traits@D@std@@V?$allocator@D@2@@2@AEBUNodeConfig@BT@@@Z@std@@XZ@@8 	 DATA
	??_R0?AV<lambda_1>@?1???$CreateBuilder@V?$TimeoutNode@Usteady_clock@chrono@std@@V?$duration@_JU?$ratio@$00$0DLJKMKAA@@std@@@23@@BT@@$$V@BT@@YA?AV?$function@$$A6A?AV?$unique_ptr@VTreeNode@BT@@U?$default_delete@VTreeNode@BT@@@std@@@std@@AEBV?$basic_string@DU?$char_traits@D@std@@V?$allocator@D@2@@2@AEBUNodeConfig@BT@@@Z@std@@XZ@@8 	 DATA
	??_R0?AV<lambda_1>@?1???$CreateBuilder@VAlwaysFailureNode@BT@@$$V@BT@@YA?AV?$function@$$A6A?AV?$unique_ptr@VTreeNode@BT@@U?$default_delete@VTreeNode@BT@@@std@@@std@@AEBV?$basic_string@DU?$char_traits@D@std@@V?$allocator@D@2@@2@AEBUNodeConfig@BT@@@Z@std@@XZ@@8 	 DATA
	??_R0?AV<lambda_1>@?1???$CreateBuilder@VAlwaysSuccessNode@BT@@$$V@BT@@YA?AV?$function@$$A6A?AV?$unique_ptr@VTreeNode@BT@@U?$default_delete@VTreeNode@BT@@@std@@@std@@AEBV?$basic_string@DU?$char_traits@D@std@@V?$allocator@D@2@@2@AEBUNodeConfig@BT@@@Z@std@@XZ@@8 	 DATA
	??_R0?AV<lambda_1>@?1???$CreateBuilder@VDelayNode@BT@@$$V@BT@@YA?AV?$function@$$A6A?AV?$unique_ptr@VTreeNode@BT@@U?$default_delete@VTreeNode@BT@@@std@@@std@@AEBV?$basic_string@DU?$char_traits@D@std@@V?$allocator@D@2@@2@AEBUNodeConfig@BT@@@Z@std@@XZ@@8 	 DATA
	??_R0?AV<lambda_1>@?1???$CreateBuilder@VFallbackNode@BT@@$$V@BT@@YA?AV?$function@$$A6A?AV?$unique_ptr@VTreeNode@BT@@U?$default_delete@VTreeNode@BT@@@std@@@std@@AEBV?$basic_string@DU?$char_traits@D@std@@V?$allocator@D@2@@2@AEBUNodeConfig@BT@@@Z@std@@XZ@@8 	 DATA
	??_R0?AV<lambda_1>@?1???$CreateBuilder@VForceFailureNode@BT@@$$V@BT@@YA?AV?$function@$$A6A?AV?$unique_ptr@VTreeNode@BT@@U?$default_delete@VTreeNode@BT@@@std@@@std@@AEBV?$basic_string@DU?$char_traits@D@std@@V?$allocator@D@2@@2@AEBUNodeConfig@BT@@@Z@std@@XZ@@8 	 DATA
	??_R0?AV<lambda_1>@?1???$CreateBuilder@VForceSuccessNode@BT@@$$V@BT@@YA?AV?$function@$$A6A?AV?$unique_ptr@VTreeNode@BT@@U?$default_delete@VTreeNode@BT@@@std@@@std@@AEBV?$basic_string@DU?$char_traits@D@std@@V?$allocator@D@2@@2@AEBUNodeConfig@BT@@@Z@std@@XZ@@8 	 DATA
	??_R0?AV<lambda_1>@?1???$CreateBuilder@VIfThenElseNode@BT@@$$V@BT@@YA?AV?$function@$$A6A?AV?$unique_ptr@VTreeNode@BT@@U?$default_delete@VTreeNode@BT@@@std@@@std@@AEBV?$basic_string@DU?$char_traits@D@std@@V?$allocator@D@2@@2@AEBUNodeConfig@BT@@@Z@std@@XZ@@8 	 DATA
	??_R0?AV<lambda_1>@?1???$CreateBuilder@VInverterNode@BT@@$$V@BT@@YA?AV?$function@$$A6A?AV?$unique_ptr@VTreeNode@BT@@U?$default_delete@VTreeNode@BT@@@std@@@std@@AEBV?$basic_string@DU?$char_traits@D@std@@V?$allocator@D@2@@2@AEBUNodeConfig@BT@@@Z@std@@XZ@@8 	 DATA
	??_R0?AV<lambda_1>@?1???$CreateBuilder@VKeepRunningUntilFailureNode@BT@@$$V@BT@@YA?AV?$function@$$A6A?AV?$unique_ptr@VTreeNode@BT@@U?$default_delete@VTreeNode@BT@@@std@@@std@@AEBV?$basic_string@DU?$char_traits@D@std@@V?$allocator@D@2@@2@AEBUNodeConfig@BT@@@Z@std@@XZ@@8 	 DATA
	??_R0?AV<lambda_1>@?1???$CreateBuilder@VParallelNode@BT@@$$V@BT@@YA?AV?$function@$$A6A?AV?$unique_ptr@VTreeNode@BT@@U?$default_delete@VTreeNode@BT@@@std@@@std@@AEBV?$basic_string@DU?$char_traits@D@std@@V?$allocator@D@2@@2@AEBUNodeConfig@BT@@@Z@std@@XZ@@8 	 DATA
	??_R0?AV<lambda_1>@?1???$CreateBuilder@VPreconditionNode@BT@@$$V@BT@@YA?AV?$function@$$A6A?AV?$unique_ptr@VTreeNode@BT@@U?$default_delete@VTreeNode@BT@@@std@@@std@@AEBV?$basic_string@DU?$char_traits@D@std@@V?$allocator@D@2@@2@AEBUNodeConfig@BT@@@Z@std@@XZ@@8 	 DATA
	??_R0?AV<lambda_1>@?1???$CreateBuilder@VReactiveFallback@BT@@$$V@BT@@YA?AV?$function@$$A6A?AV?$unique_ptr@VTreeNode@BT@@U?$default_delete@VTreeNode@BT@@@std@@@std@@AEBV?$basic_string@DU?$char_traits@D@std@@V?$allocator@D@2@@2@AEBUNodeConfig@BT@@@Z@std@@XZ@@8 	 DATA
	??_R0?AV<lambda_1>@?1???$CreateBuilder@VReactiveSequence@BT@@$$V@BT@@YA?AV?$function@$$A6A?AV?$unique_ptr@VTreeNode@BT@@U?$default_delete@VTreeNode@BT@@@std@@@std@@AEBV?$basic_string@DU?$char_traits@D@std@@V?$allocator@D@2@@2@AEBUNodeConfig@BT@@@Z@std@@XZ@@8 	 DATA
	??_R0?AV<lambda_1>@?1???$CreateBuilder@VRepeatNode@BT@@$$V@BT@@YA?AV?$function@$$A6A?AV?$unique_ptr@VTreeNode@BT@@U?$default_delete@VTreeNode@BT@@@std@@@std@@AEBV?$basic_string@DU?$char_traits@D@std@@V?$allocator@D@2@@2@AEBUNodeConfig@BT@@@Z@std@@XZ@@8 	 DATA
	??_R0?AV<lambda_1>@?1???$CreateBuilder@VRetryNode@BT@@$$V@BT@@YA?AV?$function@$$A6A?AV?$unique_ptr@VTreeNode@BT@@U?$default_delete@VTreeNode@BT@@@std@@@std@@AEBV?$basic_string@DU?$char_traits@D@std@@V?$allocator@D@2@@2@AEBUNodeConfig@BT@@@Z@std@@XZ@@8 	 DATA
	??_R0?AV<lambda_1>@?1???$CreateBuilder@VScriptNode@BT@@$$V@BT@@YA?AV?$function@$$A6A?AV?$unique_ptr@VTreeNode@BT@@U?$default_delete@VTreeNode@BT@@@std@@@std@@AEBV?$basic_string@DU?$char_traits@D@std@@V?$allocator@D@2@@2@AEBUNodeConfig@BT@@@Z@std@@XZ@@8 	 DATA
	??_R0?AV<lambda_1>@?1???$CreateBuilder@VSequenceNode@BT@@$$V@BT@@YA?AV?$function@$$A6A?AV?$unique_ptr@VTreeNode@BT@@U?$default_delete@VTreeNode@BT@@@std@@@std@@AEBV?$basic_string@DU?$char_traits@D@std@@V?$allocator@D@2@@2@AEBUNodeConfig@BT@@@Z@std@@XZ@@8 	 DATA
	??_R0?AV<lambda_1>@?1???$CreateBuilder@VSequenceWithMemory@BT@@$$V@BT@@YA?AV?$function@$$A6A?AV?$unique_ptr@VTreeNode@BT@@U?$default_delete@VTreeNode@BT@@@std@@@std@@AEBV?$basic_string@DU?$char_traits@D@std@@V?$allocator@D@2@@2@AEBUNodeConfig@BT@@@Z@std@@XZ@@8 	 DATA
	??_R0?AV<lambda_1>@?1???$CreateBuilder@VSetBlackboard@BT@@$$V@BT@@YA?AV?$function@$$A6A?AV?$unique_ptr@VTreeNode@BT@@U?$default_delete@VTreeNode@BT@@@std@@@std@@AEBV?$basic_string@DU?$char_traits@D@std@@V?$allocator@D@2@@2@AEBUNodeConfig@BT@@@Z@std@@XZ@@8 	 DATA
	??_R0?AV<lambda_1>@?1???$CreateBuilder@VSubTreeNode@BT@@$$V@BT@@YA?AV?$function@$$A6A?AV?$unique_ptr@VTreeNode@BT@@U?$default_delete@VTreeNode@BT@@@std@@@std@@AEBV?$basic_string@DU?$char_traits@D@std@@V?$allocator@D@2@@2@AEBUNodeConfig@BT@@@Z@std@@XZ@@8 	 DATA
	??_R0?AV<lambda_1>@?1???$CreateBuilder@VWhileDoElseNode@BT@@$$V@BT@@YA?AV?$function@$$A6A?AV?$unique_ptr@VTreeNode@BT@@U?$default_delete@VTreeNode@BT@@@std@@@std@@AEBV?$basic_string@DU?$char_traits@D@std@@V?$allocator@D@2@@2@AEBUNodeConfig@BT@@@Z@std@@XZ@@8 	 DATA
	??_R0?AV<lambda_1>@?1???$GetAnyFromStringFunctor@H@BT@@YA?AV?$function@$$A6A?AVAny@BT@@V?$basic_string_view@DU?$char_traits@D@std@@@std@@@Z@std@@XZ@@8 	 DATA
	??_R0?AV<lambda_1>@?1???$GetAnyFromStringFunctor@I@BT@@YA?AV?$function@$$A6A?AVAny@BT@@V?$basic_string_view@DU?$char_traits@D@std@@@std@@@Z@std@@XZ@@8 	 DATA
	??_R0?AV<lambda_1>@?1???$GetAnyFromStringFunctor@V?$basic_string@DU?$char_traits@D@std@@V?$allocator@D@2@@std@@@BT@@YA?AV?$function@$$A6A?AVAny@BT@@V?$basic_string_view@DU?$char_traits@D@std@@@std@@@Z@std@@XZ@@8 	 DATA
	??_R0?AV<lambda_1>@?1???$GetAnyFromStringFunctor@W4NodeStatus@BT@@@BT@@YA?AV?$function@$$A6A?AVAny@BT@@V?$basic_string_view@DU?$char_traits@D@std@@@std@@@Z@std@@XZ@@8 	 DATA
	??_R0?AV<lambda_1>@?1???$GetAnyFromStringFunctor@_N@BT@@YA?AV?$function@$$A6A?AVAny@BT@@V?$basic_string_view@DU?$char_traits@D@std@@@std@@@Z@std@@XZ@@8 	 DATA
	??_R0?AV<lambda_1>@?1???0StatusChangeLogger@BT@@QEAA@PEAVTreeNode@2@@Z@@8 	 DATA
	??_R0?AV<lambda_1>@?1???1?$TimerQueue@Usteady_clock@chrono@std@@V?$duration@_JU?$ratio@$00$0DLJKMKAA@@std@@@23@@BT@@QEAA@XZ@@8 	 DATA
	??_R0?AV<lambda_1>@?1??CreateFlatbuffersBehaviorTree@BT@@YAXAEAVFlatBufferBuilder@flatbuffers@@AEBVTree@2@@Z@@8 	 DATA
	??_R0?AV<lambda_1>@?1??_MakeVoidToUnitFunc@details@Concurrency@@YA?AV?$function@$$A6AEXZ@std@@AEBV?$function@$$A6AXXZ@5@@Z@@8 	 DATA
	??_R0?AV<lambda_1>@?1??haltTree@Tree@BT@@QEAAXXZ@@8 	 DATA
	??_R0?AV<lambda_1>@?4??_ScheduleContinuationTask@_Task_impl_base@details@Concurrency@@QEAAXPEAU_ContinuationTaskHandleBase@34@@Z@@8 	 DATA
	??_R0?AV<lambda_1>@?7???R0?4??_ScheduleContinuationTask@_Task_impl_base@details@Concurrency@@QEAAXPEAU_ContinuationTaskHandleBase@34@@Z@QEBA@XZ@@8 	 DATA
	??_R0?AV<lambda_1>@?CC@??_CancelAndRunContinuations@?$_Task_impl@E@details@Concurrency@@UEAA_N_N00AEBV?$shared_ptr@U_ExceptionHolder@details@Concurrency@@@std@@@Z@@8 	 DATA
	??_R0?AV<lambda_1>@?O@??tick@?$TimeoutNode@Usteady_clock@chrono@std@@V?$duration@_JU?$ratio@$00$0DLJKMKAA@@std@@@23@@BT@@EEAA?AW4NodeStatus@3@XZ@@8 	 DATA
	??_R0?AV<lambda_2>@?1???0StatusChangeLogger@BT@@QEAA@PEAVTreeNode@2@@Z@@8 	 DATA
	??_R0?AV?$MemPoolT@$0FA@@tinyxml2@@@8 	 DATA
	??_R0?AV?$MemPoolT@$0GI@@tinyxml2@@@8 	 DATA
	??_R0?AV?$MemPoolT@$0HA@@tinyxml2@@@8 	 DATA
	??_R0?AV?$MemPoolT@$0HI@@tinyxml2@@@8 	 DATA
	??_R0?AV?$SwitchNode@$01@BT@@@8 	 DATA
	??_R0?AV?$SwitchNode@$02@BT@@@8 	 DATA
	??_R0?AV?$SwitchNode@$03@BT@@@8 	 DATA
	??_R0?AV?$SwitchNode@$04@BT@@@8 	 DATA
	??_R0?AV?$SwitchNode@$05@BT@@@8 	 DATA
	??_R0?AV?$TimeoutNode@Usteady_clock@chrono@std@@V?$duration@_JU?$ratio@$00$0DLJKMKAA@@std@@@23@@BT@@@8 	 DATA
	??_R0?AV?$_Associated_state@H@std@@@8 	 DATA
	??_R0?AV?$_CancellationTokenCallback@V<lambda_1>@?1??_RegisterCancellation@_Task_impl_base@details@Concurrency@@QEAAXV?$weak_ptr@U_Task_impl_base@details@Concurrency@@@std@@@Z@@details@Concurrency@@@8 	 DATA
	??_R0?AV?$_Deferred_async_state@X@std@@@8 	 DATA
	??_R0?AV?$_Func_base@E$$V@std@@@8 	 DATA
	??_R0?AV?$_Func_base@V?$unique_ptr@VTreeNode@BT@@U?$default_delete@VTreeNode@BT@@@std@@@std@@AEBV?$basic_string@DU?$char_traits@D@std@@V?$allocator@D@2@@2@AEBUNodeConfig@BT@@@std@@@8 	 DATA
	??_R0?AV?$_Func_base@VAny@BT@@AEAUEnvironment@Ast@2@@std@@@8 	 DATA
	??_R0?AV?$_Func_base@VAny@BT@@V?$basic_string_view@DU?$char_traits@D@std@@@std@@@std@@@8 	 DATA
	??_R0?AV?$_Func_base@X$$V@std@@@8 	 DATA
	??_R0?AV?$_Func_base@XAEAV?$push_coroutine@X@detail@coroutines2@boost@@@std@@@8 	 DATA
	??_R0?AV?$_Func_base@XAEBV?$shared_ptr@VTreeNode@BT@@@std@@V?$shared_ptr@USubtree@Tree@BT@@@2@PEBVXMLElement@tinyxml2@@@std@@@8 	 DATA
	??_R0?AV?$_Func_base@XIPEBVTreeNode@BT@@@std@@@8 	 DATA
	??_R0?AV?$_Func_base@XPEAVTreeNode@BT@@@std@@@8 	 DATA
	??_R0?AV?$_Func_base@XPEBVXMLElement@tinyxml2@@@std@@@8 	 DATA
	??_R0?AV?$_Func_base@XV?$time_point@Usteady_clock@chrono@std@@V?$duration@_JU?$ratio@$00$0DLJKMKAA@@std@@@23@@chrono@std@@AEBVTreeNode@BT@@W4NodeStatus@5@W465@@std@@@8 	 DATA
	??_R0?AV?$_Func_base@X_N@std@@@8 	 DATA
	??_R0?AV?$_Func_impl_no_alloc@V<lambda_1>@?1???$CreateBuilder@V?$SwitchNode@$01@BT@@$$V@BT@@YA?AV?$function@$$A6A?AV?$unique_ptr@VTreeNode@BT@@U?$default_delete@VTreeNode@BT@@@std@@@std@@AEBV?$basic_string@DU?$char_traits@D@std@@V?$allocator@D@2@@2@AEBUNodeConfig@BT@@@Z@std@@XZ@V?$unique_ptr@VTreeNode@BT@@U?$default_delete@VTreeNode@BT@@@std@@@4@AEBV?$basic_string@DU?$char_traits@D@std@@V?$allocator@D@2@@4@AEBUNodeConfig@2@@std@@@8 	 DATA
	??_R0?AV?$_Func_impl_no_alloc@V<lambda_1>@?1???$CreateBuilder@V?$SwitchNode@$02@BT@@$$V@BT@@YA?AV?$function@$$A6A?AV?$unique_ptr@VTreeNode@BT@@U?$default_delete@VTreeNode@BT@@@std@@@std@@AEBV?$basic_string@DU?$char_traits@D@std@@V?$allocator@D@2@@2@AEBUNodeConfig@BT@@@Z@std@@XZ@V?$unique_ptr@VTreeNode@BT@@U?$default_delete@VTreeNode@BT@@@std@@@4@AEBV?$basic_string@DU?$char_traits@D@std@@V?$allocator@D@2@@4@AEBUNodeConfig@2@@std@@@8 	 DATA
	??_R0?AV?$_Func_impl_no_alloc@V<lambda_1>@?1???$CreateBuilder@V?$SwitchNode@$03@BT@@$$V@BT@@YA?AV?$function@$$A6A?AV?$unique_ptr@VTreeNode@BT@@U?$default_delete@VTreeNode@BT@@@std@@@std@@AEBV?$basic_string@DU?$char_traits@D@std@@V?$allocator@D@2@@2@AEBUNodeConfig@BT@@@Z@std@@XZ@V?$unique_ptr@VTreeNode@BT@@U?$default_delete@VTreeNode@BT@@@std@@@4@AEBV?$basic_string@DU?$char_traits@D@std@@V?$allocator@D@2@@4@AEBUNodeConfig@2@@std@@@8 	 DATA
	??_R0?AV?$_Func_impl_no_alloc@V<lambda_1>@?1???$CreateBuilder@V?$SwitchNode@$04@BT@@$$V@BT@@YA?AV?$function@$$A6A?AV?$unique_ptr@VTreeNode@BT@@U?$default_delete@VTreeNode@BT@@@std@@@std@@AEBV?$basic_string@DU?$char_traits@D@std@@V?$allocator@D@2@@2@AEBUNodeConfig@BT@@@Z@std@@XZ@V?$unique_ptr@VTreeNode@BT@@U?$default_delete@VTreeNode@BT@@@std@@@4@AEBV?$basic_string@DU?$char_traits@D@std@@V?$allocator@D@2@@4@AEBUNodeConfig@2@@std@@@8 	 DATA
	??_R0?AV?$_Func_impl_no_alloc@V<lambda_1>@?1???$CreateBuilder@V?$SwitchNode@$05@BT@@$$V@BT@@YA?AV?$function@$$A6A?AV?$unique_ptr@VTreeNode@BT@@U?$default_delete@VTreeNode@BT@@@std@@@std@@AEBV?$basic_string@DU?$char_traits@D@std@@V?$allocator@D@2@@2@AEBUNodeConfig@BT@@@Z@std@@XZ@V?$unique_ptr@VTreeNode@BT@@U?$default_delete@VTreeNode@BT@@@std@@@4@AEBV?$basic_string@DU?$char_traits@D@std@@V?$allocator@D@2@@4@AEBUNodeConfig@2@@std@@@8 	 DATA
	??_R0?AV?$_Func_impl_no_alloc@V<lambda_1>@?1???$CreateBuilder@V?$TimeoutNode@Usteady_clock@chrono@std@@V?$duration@_JU?$ratio@$00$0DLJKMKAA@@std@@@23@@BT@@$$V@BT@@YA?AV?$function@$$A6A?AV?$unique_ptr@VTreeNode@BT@@U?$default_delete@VTreeNode@BT@@@std@@@std@@AEBV?$basic_string@DU?$char_traits@D@std@@V?$allocator@D@2@@2@AEBUNodeConfig@BT@@@Z@std@@XZ@V?$unique_ptr@VTreeNode@BT@@U?$default_delete@VTreeNode@BT@@@std@@@4@AEBV?$basic_string@DU?$char_traits@D@std@@V?$allocator@D@2@@4@AEBUNodeConfig@2@@std@@@8 	 DATA
	??_R0?AV?$_Func_impl_no_alloc@V<lambda_1>@?1???$CreateBuilder@VAlwaysFailureNode@BT@@$$V@BT@@YA?AV?$function@$$A6A?AV?$unique_ptr@VTreeNode@BT@@U?$default_delete@VTreeNode@BT@@@std@@@std@@AEBV?$basic_string@DU?$char_traits@D@std@@V?$allocator@D@2@@2@AEBUNodeConfig@BT@@@Z@std@@XZ@V?$unique_ptr@VTreeNode@BT@@U?$default_delete@VTreeNode@BT@@@std@@@4@AEBV?$basic_string@DU?$char_traits@D@std@@V?$allocator@D@2@@4@AEBUNodeConfig@2@@std@@@8 	 DATA
	??_R0?AV?$_Func_impl_no_alloc@V<lambda_1>@?1???$CreateBuilder@VAlwaysSuccessNode@BT@@$$V@BT@@YA?AV?$function@$$A6A?AV?$unique_ptr@VTreeNode@BT@@U?$default_delete@VTreeNode@BT@@@std@@@std@@AEBV?$basic_string@DU?$char_traits@D@std@@V?$allocator@D@2@@2@AEBUNodeConfig@BT@@@Z@std@@XZ@V?$unique_ptr@VTreeNode@BT@@U?$default_delete@VTreeNode@BT@@@std@@@4@AEBV?$basic_string@DU?$char_traits@D@std@@V?$allocator@D@2@@4@AEBUNodeConfig@2@@std@@@8 	 DATA
	??_R0?AV?$_Func_impl_no_alloc@V<lambda_1>@?1???$CreateBuilder@VDelayNode@BT@@$$V@BT@@YA?AV?$function@$$A6A?AV?$unique_ptr@VTreeNode@BT@@U?$default_delete@VTreeNode@BT@@@std@@@std@@AEBV?$basic_string@DU?$char_traits@D@std@@V?$allocator@D@2@@2@AEBUNodeConfig@BT@@@Z@std@@XZ@V?$unique_ptr@VTreeNode@BT@@U?$default_delete@VTreeNode@BT@@@std@@@4@AEBV?$basic_string@DU?$char_traits@D@std@@V?$allocator@D@2@@4@AEBUNodeConfig@2@@std@@@8 	 DATA
	??_R0?AV?$_Func_impl_no_alloc@V<lambda_1>@?1???$CreateBuilder@VFallbackNode@BT@@$$V@BT@@YA?AV?$function@$$A6A?AV?$unique_ptr@VTreeNode@BT@@U?$default_delete@VTreeNode@BT@@@std@@@std@@AEBV?$basic_string@DU?$char_traits@D@std@@V?$allocator@D@2@@2@AEBUNodeConfig@BT@@@Z@std@@XZ@V?$unique_ptr@VTreeNode@BT@@U?$default_delete@VTreeNode@BT@@@std@@@4@AEBV?$basic_string@DU?$char_traits@D@std@@V?$allocator@D@2@@4@AEBUNodeConfig@2@@std@@@8 	 DATA
	??_R0?AV?$_Func_impl_no_alloc@V<lambda_1>@?1???$CreateBuilder@VForceFailureNode@BT@@$$V@BT@@YA?AV?$function@$$A6A?AV?$unique_ptr@VTreeNode@BT@@U?$default_delete@VTreeNode@BT@@@std@@@std@@AEBV?$basic_string@DU?$char_traits@D@std@@V?$allocator@D@2@@2@AEBUNodeConfig@BT@@@Z@std@@XZ@V?$unique_ptr@VTreeNode@BT@@U?$default_delete@VTreeNode@BT@@@std@@@4@AEBV?$basic_string@DU?$char_traits@D@std@@V?$allocator@D@2@@4@AEBUNodeConfig@2@@std@@@8 	 DATA
	??_R0?AV?$_Func_impl_no_alloc@V<lambda_1>@?1???$CreateBuilder@VForceSuccessNode@BT@@$$V@BT@@YA?AV?$function@$$A6A?AV?$unique_ptr@VTreeNode@BT@@U?$default_delete@VTreeNode@BT@@@std@@@std@@AEBV?$basic_string@DU?$char_traits@D@std@@V?$allocator@D@2@@2@AEBUNodeConfig@BT@@@Z@std@@XZ@V?$unique_ptr@VTreeNode@BT@@U?$default_delete@VTreeNode@BT@@@std@@@4@AEBV?$basic_string@DU?$char_traits@D@std@@V?$allocator@D@2@@4@AEBUNodeConfig@2@@std@@@8 	 DATA
	??_R0?AV?$_Func_impl_no_alloc@V<lambda_1>@?1???$CreateBuilder@VIfThenElseNode@BT@@$$V@BT@@YA?AV?$function@$$A6A?AV?$unique_ptr@VTreeNode@BT@@U?$default_delete@VTreeNode@BT@@@std@@@std@@AEBV?$basic_string@DU?$char_traits@D@std@@V?$allocator@D@2@@2@AEBUNodeConfig@BT@@@Z@std@@XZ@V?$unique_ptr@VTreeNode@BT@@U?$default_delete@VTreeNode@BT@@@std@@@4@AEBV?$basic_string@DU?$char_traits@D@std@@V?$allocator@D@2@@4@AEBUNodeConfig@2@@std@@@8 	 DATA
	??_R0?AV?$_Func_impl_no_alloc@V<lambda_1>@?1???$CreateBuilder@VInverterNode@BT@@$$V@BT@@YA?AV?$function@$$A6A?AV?$unique_ptr@VTreeNode@BT@@U?$default_delete@VTreeNode@BT@@@std@@@std@@AEBV?$basic_string@DU?$char_traits@D@std@@V?$allocator@D@2@@2@AEBUNodeConfig@BT@@@Z@std@@XZ@V?$unique_ptr@VTreeNode@BT@@U?$default_delete@VTreeNode@BT@@@std@@@4@AEBV?$basic_string@DU?$char_traits@D@std@@V?$allocator@D@2@@4@AEBUNodeConfig@2@@std@@@8 	 DATA
	??_R0?AV?$_Func_impl_no_alloc@V<lambda_1>@?1???$CreateBuilder@VKeepRunningUntilFailureNode@BT@@$$V@BT@@YA?AV?$function@$$A6A?AV?$unique_ptr@VTreeNode@BT@@U?$default_delete@VTreeNode@BT@@@std@@@std@@AEBV?$basic_string@DU?$char_traits@D@std@@V?$allocator@D@2@@2@AEBUNodeConfig@BT@@@Z@std@@XZ@V?$unique_ptr@VTreeNode@BT@@U?$default_delete@VTreeNode@BT@@@std@@@4@AEBV?$basic_string@DU?$char_traits@D@std@@V?$allocator@D@2@@4@AEBUNodeConfig@2@@std@@@8 	 DATA
	??_R0?AV?$_Func_impl_no_alloc@V<lambda_1>@?1???$CreateBuilder@VParallelNode@BT@@$$V@BT@@YA?AV?$function@$$A6A?AV?$unique_ptr@VTreeNode@BT@@U?$default_delete@VTreeNode@BT@@@std@@@std@@AEBV?$basic_string@DU?$char_traits@D@std@@V?$allocator@D@2@@2@AEBUNodeConfig@BT@@@Z@std@@XZ@V?$unique_ptr@VTreeNode@BT@@U?$default_delete@VTreeNode@BT@@@std@@@4@AEBV?$basic_string@DU?$char_traits@D@std@@V?$allocator@D@2@@4@AEBUNodeConfig@2@@std@@@8 	 DATA
	??_R0?AV?$_Func_impl_no_alloc@V<lambda_1>@?1???$CreateBuilder@VPreconditionNode@BT@@$$V@BT@@YA?AV?$function@$$A6A?AV?$unique_ptr@VTreeNode@BT@@U?$default_delete@VTreeNode@BT@@@std@@@std@@AEBV?$basic_string@DU?$char_traits@D@std@@V?$allocator@D@2@@2@AEBUNodeConfig@BT@@@Z@std@@XZ@V?$unique_ptr@VTreeNode@BT@@U?$default_delete@VTreeNode@BT@@@std@@@4@AEBV?$basic_string@DU?$char_traits@D@std@@V?$allocator@D@2@@4@AEBUNodeConfig@2@@std@@@8 	 DATA
	??_R0?AV?$_Func_impl_no_alloc@V<lambda_1>@?1???$CreateBuilder@VReactiveFallback@BT@@$$V@BT@@YA?AV?$function@$$A6A?AV?$unique_ptr@VTreeNode@BT@@U?$default_delete@VTreeNode@BT@@@std@@@std@@AEBV?$basic_string@DU?$char_traits@D@std@@V?$allocator@D@2@@2@AEBUNodeConfig@BT@@@Z@std@@XZ@V?$unique_ptr@VTreeNode@BT@@U?$default_delete@VTreeNode@BT@@@std@@@4@AEBV?$basic_string@DU?$char_traits@D@std@@V?$allocator@D@2@@4@AEBUNodeConfig@2@@std@@@8 	 DATA
	??_R0?AV?$_Func_impl_no_alloc@V<lambda_1>@?1???$CreateBuilder@VReactiveSequence@BT@@$$V@BT@@YA?AV?$function@$$A6A?AV?$unique_ptr@VTreeNode@BT@@U?$default_delete@VTreeNode@BT@@@std@@@std@@AEBV?$basic_string@DU?$char_traits@D@std@@V?$allocator@D@2@@2@AEBUNodeConfig@BT@@@Z@std@@XZ@V?$unique_ptr@VTreeNode@BT@@U?$default_delete@VTreeNode@BT@@@std@@@4@AEBV?$basic_string@DU?$char_traits@D@std@@V?$allocator@D@2@@4@AEBUNodeConfig@2@@std@@@8 	 DATA
	??_R0?AV?$_Func_impl_no_alloc@V<lambda_1>@?1???$CreateBuilder@VRepeatNode@BT@@$$V@BT@@YA?AV?$function@$$A6A?AV?$unique_ptr@VTreeNode@BT@@U?$default_delete@VTreeNode@BT@@@std@@@std@@AEBV?$basic_string@DU?$char_traits@D@std@@V?$allocator@D@2@@2@AEBUNodeConfig@BT@@@Z@std@@XZ@V?$unique_ptr@VTreeNode@BT@@U?$default_delete@VTreeNode@BT@@@std@@@4@AEBV?$basic_string@DU?$char_traits@D@std@@V?$allocator@D@2@@4@AEBUNodeConfig@2@@std@@@8 	 DATA
	??_R0?AV?$_Func_impl_no_alloc@V<lambda_1>@?1???$CreateBuilder@VRetryNode@BT@@$$V@BT@@YA?AV?$function@$$A6A?AV?$unique_ptr@VTreeNode@BT@@U?$default_delete@VTreeNode@BT@@@std@@@std@@AEBV?$basic_string@DU?$char_traits@D@std@@V?$allocator@D@2@@2@AEBUNodeConfig@BT@@@Z@std@@XZ@V?$unique_ptr@VTreeNode@BT@@U?$default_delete@VTreeNode@BT@@@std@@@4@AEBV?$basic_string@DU?$char_traits@D@std@@V?$allocator@D@2@@4@AEBUNodeConfig@2@@std@@@8 	 DATA
	??_R0?AV?$_Func_impl_no_alloc@V<lambda_1>@?1???$CreateBuilder@VScriptNode@BT@@$$V@BT@@YA?AV?$function@$$A6A?AV?$unique_ptr@VTreeNode@BT@@U?$default_delete@VTreeNode@BT@@@std@@@std@@AEBV?$basic_string@DU?$char_traits@D@std@@V?$allocator@D@2@@2@AEBUNodeConfig@BT@@@Z@std@@XZ@V?$unique_ptr@VTreeNode@BT@@U?$default_delete@VTreeNode@BT@@@std@@@4@AEBV?$basic_string@DU?$char_traits@D@std@@V?$allocator@D@2@@4@AEBUNodeConfig@2@@std@@@8 	 DATA
	??_R0?AV?$_Func_impl_no_alloc@V<lambda_1>@?1???$CreateBuilder@VSequenceNode@BT@@$$V@BT@@YA?AV?$function@$$A6A?AV?$unique_ptr@VTreeNode@BT@@U?$default_delete@VTreeNode@BT@@@std@@@std@@AEBV?$basic_string@DU?$char_traits@D@std@@V?$allocator@D@2@@2@AEBUNodeConfig@BT@@@Z@std@@XZ@V?$unique_ptr@VTreeNode@BT@@U?$default_delete@VTreeNode@BT@@@std@@@4@AEBV?$basic_string@DU?$char_traits@D@std@@V?$allocator@D@2@@4@AEBUNodeConfig@2@@std@@@8 	 DATA
	??_R0?AV?$_Func_impl_no_alloc@V<lambda_1>@?1???$CreateBuilder@VSequenceWithMemory@BT@@$$V@BT@@YA?AV?$function@$$A6A?AV?$unique_ptr@VTreeNode@BT@@U?$default_delete@VTreeNode@BT@@@std@@@std@@AEBV?$basic_string@DU?$char_traits@D@std@@V?$allocator@D@2@@2@AEBUNodeConfig@BT@@@Z@std@@XZ@V?$unique_ptr@VTreeNode@BT@@U?$default_delete@VTreeNode@BT@@@std@@@4@AEBV?$basic_string@DU?$char_traits@D@std@@V?$allocator@D@2@@4@AEBUNodeConfig@2@@std@@@8 	 DATA
	??_R0?AV?$_Func_impl_no_alloc@V<lambda_1>@?1???$CreateBuilder@VSetBlackboard@BT@@$$V@BT@@YA?AV?$function@$$A6A?AV?$unique_ptr@VTreeNode@BT@@U?$default_delete@VTreeNode@BT@@@std@@@std@@AEBV?$basic_string@DU?$char_traits@D@std@@V?$allocator@D@2@@2@AEBUNodeConfig@BT@@@Z@std@@XZ@V?$unique_ptr@VTreeNode@BT@@U?$default_delete@VTreeNode@BT@@@std@@@4@AEBV?$basic_string@DU?$char_traits@D@std@@V?$allocator@D@2@@4@AEBUNodeConfig@2@@std@@@8 	 DATA
	??_R0?AV?$_Func_impl_no_alloc@V<lambda_1>@?1???$CreateBuilder@VSubTreeNode@BT@@$$V@BT@@YA?AV?$function@$$A6A?AV?$unique_ptr@VTreeNode@BT@@U?$default_delete@VTreeNode@BT@@@std@@@std@@AEBV?$basic_string@DU?$char_traits@D@std@@V?$allocator@D@2@@2@AEBUNodeConfig@BT@@@Z@std@@XZ@V?$unique_ptr@VTreeNode@BT@@U?$default_delete@VTreeNode@BT@@@std@@@4@AEBV?$basic_string@DU?$char_traits@D@std@@V?$allocator@D@2@@4@AEBUNodeConfig@2@@std@@@8 	 DATA
	??_R0?AV?$_Func_impl_no_alloc@V<lambda_1>@?1???$CreateBuilder@VWhileDoElseNode@BT@@$$V@BT@@YA?AV?$function@$$A6A?AV?$unique_ptr@VTreeNode@BT@@U?$default_delete@VTreeNode@BT@@@std@@@std@@AEBV?$basic_string@DU?$char_traits@D@std@@V?$allocator@D@2@@2@AEBUNodeConfig@BT@@@Z@std@@XZ@V?$unique_ptr@VTreeNode@BT@@U?$default_delete@VTreeNode@BT@@@std@@@4@AEBV?$basic_string@DU?$char_traits@D@std@@V?$allocator@D@2@@4@AEBUNodeConfig@2@@std@@@8 	 DATA
	??_R0?AV?$_Func_impl_no_alloc@V<lambda_1>@?1???$GetAnyFromStringFunctor@H@BT@@YA?AV?$function@$$A6A?AVAny@BT@@V?$basic_string_view@DU?$char_traits@D@std@@@std@@@Z@std@@XZ@VAny@2@V?$basic_string_view@DU?$char_traits@D@std@@@4@@std@@@8 	 DATA
	??_R0?AV?$_Func_impl_no_alloc@V<lambda_1>@?1???$GetAnyFromStringFunctor@I@BT@@YA?AV?$function@$$A6A?AVAny@BT@@V?$basic_string_view@DU?$char_traits@D@std@@@std@@@Z@std@@XZ@VAny@2@V?$basic_string_view@DU?$char_traits@D@std@@@4@@std@@@8 	 DATA
	??_R0?AV?$_Func_impl_no_alloc@V<lambda_1>@?1???$GetAnyFromStringFunctor@V?$basic_string@DU?$char_traits@D@std@@V?$allocator@D@2@@std@@@BT@@YA?AV?$function@$$A6A?AVAny@BT@@V?$basic_string_view@DU?$char_traits@D@std@@@std@@@Z@std@@XZ@VAny@2@V?$basic_string_view@DU?$char_traits@D@std@@@4@@std@@@8 	 DATA
	??_R0?AV?$_Func_impl_no_alloc@V<lambda_1>@?1???$GetAnyFromStringFunctor@W4NodeStatus@BT@@@BT@@YA?AV?$function@$$A6A?AVAny@BT@@V?$basic_string_view@DU?$char_traits@D@std@@@std@@@Z@std@@XZ@VAny@2@V?$basic_string_view@DU?$char_traits@D@std@@@4@@std@@@8 	 DATA
	??_R0?AV?$_Func_impl_no_alloc@V<lambda_1>@?1???$GetAnyFromStringFunctor@_N@BT@@YA?AV?$function@$$A6A?AVAny@BT@@V?$basic_string_view@DU?$char_traits@D@std@@@std@@@Z@std@@XZ@VAny@2@V?$basic_string_view@DU?$char_traits@D@std@@@4@@std@@@8 	 DATA
	??_R0?AV?$_Func_impl_no_alloc@V<lambda_1>@?1???0StatusChangeLogger@BT@@QEAA@PEAVTreeNode@3@@Z@XV?$time_point@Usteady_clock@chrono@std@@V?$duration@_JU?$ratio@$00$0DLJKMKAA@@std@@@23@@chrono@std@@AEBV43@W4NodeStatus@3@W483@@std@@@8 	 DATA
	??_R0?AV?$_Func_impl_no_alloc@V<lambda_1>@?1???1?$TimerQueue@Usteady_clock@chrono@std@@V?$duration@_JU?$ratio@$00$0DLJKMKAA@@std@@@23@@BT@@QEAA@XZ@X_N@std@@@8 	 DATA
	??_R0?AV?$_Func_impl_no_alloc@V<lambda_1>@?1??CreateFlatbuffersBehaviorTree@BT@@YAXAEAVFlatBufferBuilder@flatbuffers@@AEBVTree@3@@Z@XPEAVTreeNode@3@@std@@@8 	 DATA
	??_R0?AV?$_Func_impl_no_alloc@V<lambda_1>@?1??_MakeVoidToUnitFunc@details@Concurrency@@YA?AV?$function@$$A6AEXZ@std@@AEBV?$function@$$A6AXXZ@6@@Z@E$$V@std@@@8 	 DATA
	??_R0?AV?$_Func_impl_no_alloc@V<lambda_1>@?1??haltTree@Tree@BT@@QEAAXXZ@XPEAVTreeNode@4@@std@@@8 	 DATA
	??_R0?AV?$_Func_impl_no_alloc@V<lambda_1>@?4??_ScheduleContinuationTask@_Task_impl_base@details@Concurrency@@QEAAXPEAU_ContinuationTaskHandleBase@45@@Z@X$$V@std@@@8 	 DATA
	??_R0?AV?$_Func_impl_no_alloc@V<lambda_1>@?7???R1?4??_ScheduleContinuationTask@_Task_impl_base@details@Concurrency@@QEAAXPEAU_ContinuationTaskHandleBase@45@@Z@QEBA@XZ@X$$V@std@@@8 	 DATA
	??_R0?AV?$_Func_impl_no_alloc@V<lambda_1>@?CC@??_CancelAndRunContinuations@?$_Task_impl@E@details@Concurrency@@UEAA_N_N00AEBV?$shared_ptr@U_ExceptionHolder@details@Concurrency@@@std@@@Z@X$$V@std@@@8 	 DATA
	??_R0?AV?$_Func_impl_no_alloc@V<lambda_1>@?O@??tick@?$TimeoutNode@Usteady_clock@chrono@std@@V?$duration@_JU?$ratio@$00$0DLJKMKAA@@std@@@23@@BT@@EEAA?AW4NodeStatus@4@XZ@X_N@std@@@8 	 DATA
	??_R0?AV?$_Func_impl_no_alloc@V<lambda_2>@?1???0StatusChangeLogger@BT@@QEAA@PEAVTreeNode@3@@Z@XPEAV43@@std@@@8 	 DATA
	??_R0?AV?$_Iosb@H@std@@@8 	 DATA
	??_R0?AV?$_Packaged_state@$$A6AXXZ@std@@@8 	 DATA
	??_R0?AV?$_Ref_count@UExprAssignment@Ast@BT@@@std@@@8 	 DATA
	??_R0?AV?$_Ref_count@UExprBinaryArithmetic@Ast@BT@@@std@@@8 	 DATA
	??_R0?AV?$_Ref_count@UExprIf@Ast@BT@@@std@@@8 	 DATA
	??_R0?AV?$_Ref_count@UExprLiteral@Ast@BT@@@std@@@8 	 DATA
	??_R0?AV?$_Ref_count@UExprName@Ast@BT@@@std@@@8 	 DATA
	??_R0?AV?$_Ref_count@UExprUnaryArithmetic@Ast@BT@@@std@@@8 	 DATA
	??_R0?AV?$_Ref_count@VBlackboard@BT@@@std@@@8 	 DATA
	??_R0?AV?$_Ref_count_obj2@U?$_Task_impl@E@details@Concurrency@@@std@@@8 	 DATA
	??_R0?AV?$_Ref_count_obj2@USubtree@Tree@BT@@@std@@@8 	 DATA
	??_R0?AV?$_Ref_count_obj2@U_ExceptionHolder@details@Concurrency@@@std@@@8 	 DATA
	??_R0?AV?$_Ref_count_obj2@V?$function@$$A6AXV?$time_point@Usteady_clock@chrono@std@@V?$duration@_JU?$ratio@$00$0DLJKMKAA@@std@@@23@@chrono@std@@AEBVTreeNode@BT@@W4NodeStatus@5@2@Z@std@@@std@@@8 	 DATA
	??_R0?AV?$_Ref_count_obj2@V?$unordered_map@V?$basic_string@DU?$char_traits@D@std@@V?$allocator@D@2@@std@@HU?$hash@V?$basic_string@DU?$char_traits@D@std@@V?$allocator@D@2@@std@@@2@U?$equal_to@V?$basic_string@DU?$char_traits@D@std@@V?$allocator@D@2@@std@@@2@V?$allocator@U?$pair@$$CBV?$basic_string@DU?$char_traits@D@std@@V?$allocator@D@2@@std@@H@std@@@2@@std@@@std@@@8 	 DATA
	??_R0?AV?$_Ref_count_obj2@VWakeUpSignal@BT@@@std@@@8 	 DATA
	??_R0?AV?$_Ref_count_obj2@VXMLParser@BT@@@std@@@8 	 DATA
	??_R0?AV?$_Ref_count_resource@PEAUExprComparison@Ast@BT@@U?$default_delete@UExprComparison@Ast@BT@@@std@@@std@@@8 	 DATA
	??_R0?AV?$_Ref_count_resource@PEAVTreeNode@BT@@U?$default_delete@VTreeNode@BT@@@std@@@std@@@8 	 DATA
	??_R0?AV?$_Task_async_state@X@std@@@8 	 DATA
	??_R0?AV?$bad_expected_access@V?$basic_string@DU?$char_traits@D@std@@V?$allocator@D@2@@std@@@expected_lite@nonstd@@@8 	 DATA
	??_R0?AV?$bad_expected_access@X@expected_lite@nonstd@@@8 	 DATA
	??_R0?AV?$basic_filebuf@DU?$char_traits@D@std@@@std@@@8 	 DATA
	??_R0?AV?$basic_ios@DU?$char_traits@D@std@@@std@@@8 	 DATA
	??_R0?AV?$basic_ofstream@DU?$char_traits@D@std@@@std@@@8 	 DATA
	??_R0?AV?$basic_ostream@DU?$char_traits@D@std@@@std@@@8 	 DATA
	??_R0?AV?$basic_streambuf@DU?$char_traits@D@std@@@std@@@8 	 DATA
	??_R0?AV?$basic_string@DU?$char_traits@D@std@@V?$allocator@D@2@@std@@@8 	 DATA
	??_R0?AVActionNodeBase@BT@@@8 	 DATA
	??_R0?AVAllocator@flatbuffers@@@8 	 DATA
	??_R0?AVAlwaysFailureNode@BT@@@8 	 DATA
	??_R0?AVAlwaysSuccessNode@BT@@@8 	 DATA
	??_R0?AVBehaviorTreeException@BT@@@8 	 DATA
	??_R0?AVBlackboard@BT@@@8 	 DATA
	??_R0?AVConditionNode@BT@@@8 	 DATA
	??_R0?AVControlNode@BT@@@8 	 DATA
	??_R0?AVCoroActionNode@BT@@@8 	 DATA
	??_R0?AVDecoratorNode@BT@@@8 	 DATA
	??_R0?AVDefaultAllocator@flatbuffers@@@8 	 DATA
	??_R0?AVDelayNode@BT@@@8 	 DATA
	??_R0?AVFallbackNode@BT@@@8 	 DATA
	??_R0?AVFileLogger@BT@@@8 	 DATA
	??_R0?AVForceFailureNode@BT@@@8 	 DATA
	??_R0?AVForceSuccessNode@BT@@@8 	 DATA
	??_R0?AVIfThenElseNode@BT@@@8 	 DATA
	??_R0?AVInverterNode@BT@@@8 	 DATA
	??_R0?AVKeepRunningUntilFailureNode@BT@@@8 	 DATA
	??_R0?AVLeafNode@BT@@@8 	 DATA
	??_R0?AVLogicError@BT@@@8 	 DATA
	??_R0?AVMemPool@tinyxml2@@@8 	 DATA
	??_R0?AVMinitraceLogger@BT@@@8 	 DATA
	??_R0?AVParallelNode@BT@@@8 	 DATA
	??_R0?AVParser@BT@@@8 	 DATA
	??_R0?AVPreconditionNode@BT@@@8 	 DATA
	??_R0?AVPublisherZMQ@BT@@@8 	 DATA
	??_R0?AVReactiveFallback@BT@@@8 	 DATA
	??_R0?AVReactiveSequence@BT@@@8 	 DATA
	??_R0?AVRepeatNode@BT@@@8 	 DATA
	??_R0?AVRetryNode@BT@@@8 	 DATA
	??_R0?AVRuntimeError@BT@@@8 	 DATA
	??_R0?AVScriptNode@BT@@@8 	 DATA
	??_R0?AVSequenceNode@BT@@@8 	 DATA
	??_R0?AVSequenceWithMemory@BT@@@8 	 DATA
	??_R0?AVSetBlackboard@BT@@@8 	 DATA
	??_R0?AVSharedLibrary@BT@@@8 	 DATA
	??_R0?AVSimpleActionNode@BT@@@8 	 DATA
	??_R0?AVSimpleConditionNode@BT@@@8 	 DATA
	??_R0?AVSimpleDecoratorNode@BT@@@8 	 DATA
	??_R0?AVSimpleString@SafeAny@@@8 	 DATA
	??_R0?AVStatusChangeLogger@BT@@@8 	 DATA
	??_R0?AVStdCoutLogger@BT@@@8 	 DATA
	??_R0?AVSubTreeNode@BT@@@8 	 DATA
	??_R0?AVSyncActionNode@BT@@@8 	 DATA
	??_R0?AVTreeNode@BT@@@8 	 DATA
	??_R0?AVWhileDoElseNode@BT@@@8 	 DATA
	??_R0?AVXMLAttribute@tinyxml2@@@8 	 DATA
	??_R0?AVXMLComment@tinyxml2@@@8 	 DATA
	??_R0?AVXMLDeclaration@tinyxml2@@@8 	 DATA
	??_R0?AVXMLDocument@tinyxml2@@@8 	 DATA
	??_R0?AVXMLElement@tinyxml2@@@8 	 DATA
	??_R0?AVXMLNode@tinyxml2@@@8 	 DATA
	??_R0?AVXMLParser@BT@@@8 	 DATA
	??_R0?AVXMLPrinter@tinyxml2@@@8 	 DATA
	??_R0?AVXMLText@tinyxml2@@@8 	 DATA
	??_R0?AVXMLUnknown@tinyxml2@@@8 	 DATA
	??_R0?AVXMLVisitor@tinyxml2@@@8 	 DATA
	??_R0?AV_CancellationTokenRegistration@details@Concurrency@@@8 	 DATA
	??_R0?AV_DefaultPPLTaskScheduler@details@Concurrency@@@8 	 DATA
	??_R0?AV_Future_error_category2@std@@@8 	 DATA
	??_R0?AV_Generic_error_category@std@@@8 	 DATA
	??_R0?AV_Interruption_exception@details@Concurrency@@@8 	 DATA
	??_R0?AV_RefCounter@details@Concurrency@@@8 	 DATA
	??_R0?AV_Ref_count_base@std@@@8 	 DATA
	??_R0?AV_System_error@std@@@8 	 DATA
	??_R0?AV_System_error_category@std@@@8 	 DATA
	??_R0?AVbad_alloc@std@@@8 	 DATA
	??_R0?AVbad_any_cast@linb@@@8 	 DATA
	??_R0?AVbad_array_new_length@std@@@8 	 DATA
	??_R0?AVbad_cast@std@@@8 	 DATA
	??_R0?AVerror_category@std@@@8 	 DATA
	??_R0?AVerror_t@zmq@@@8 	 DATA
	??_R0?AVexception@std@@@8 	 DATA
	??_R0?AVfilesystem_error@filesystem@std@@@8 	 DATA
	??_R0?AVinvalid_operation@Concurrency@@@8 	 DATA
	??_R0?AVios_base@std@@@8 	 DATA
	??_R0?AVlogic_error@std@@@8 	 DATA
	??_R0?AVruntime_error@std@@@8 	 DATA
	??_R0?AVsystem_error@std@@@8 	 DATA
	??_R0?AVtask_canceled@Concurrency@@@8 	 DATA
	??_R0?AW4NodeStatus@BT@@@8 	 DATA
	??_R0H@8 	 DATA
	??_R0I@8 	 DATA
	??_R0N@8 	 DATA
	??_R0X@8 	 DATA
	??_R0_J@8 	 DATA
	??_R0_K@8 	 DATA
	??_R0_N@8 	 DATA
	?StrEqual@BT@@3V<lambda>@01@A 	 DATA
	?_Flag@?1??_GetStaticAmbientSchedulerRef@details@Concurrency@@YAAEAV?$shared_ptr@Uscheduler_interface@Concurrency@@@std@@XZ@4Uonce_flag@5@A 	 DATA
	?_OptionsStorage@?1??__local_stdio_printf_options@@9@4_KA 	 DATA
	?_OptionsStorage@?1??__local_stdio_scanf_options@@9@4_KA 	 DATA
	?_Psave@?$_Facetptr@V?$codecvt@DDU_Mbstatet@@@std@@@std@@2PEBVfacet@locale@2@EB 	 DATA
	?_S_scheduler@?1??_GetStaticAmbientSchedulerStorage@details@Concurrency@@YAPEAV?$shared_ptr@Uscheduler_interface@Concurrency@@@std@@XZ@4V45@A 	 DATA
	?_S_scheduler_address@?1??_GetStaticAmbientSchedulerRef@details@Concurrency@@YAAEAV?$shared_ptr@Uscheduler_interface@Concurrency@@@std@@XZ@4PEAV45@EA 	 DATA
	?_Static@?1???$_Immortalize_memcpy_image@V_Future_error_category2@std@@@std@@YAAEBV_Future_error_category2@1@XZ@4V21@B 	 DATA
	?_Static@?1???$_Immortalize_memcpy_image@V_Generic_error_category@std@@@std@@YAAEBV_Generic_error_category@1@XZ@4V21@B 	 DATA
	?_Static@?1???$_Immortalize_memcpy_image@V_System_error_category@std@@@std@@YAAEBV_System_error_category@1@XZ@4V21@B 	 DATA
	?_Stinit@?1??_Init@?$basic_filebuf@DU?$char_traits@D@std@@@std@@IEAAXPEAU_iobuf@@W4_Initfl@23@@Z@4U_Mbstatet@@A 	 DATA
	?_errorNames@XMLDocument@tinyxml2@@0PAPEBDA 	 DATA
	?prev@?1??mtr_time_usec@minitrace@@YA_JXZ@4_JA 	 DATA
	?ref_count@MinitraceLogger@BT@@0U?$atomic@_N@std@@A 	 DATA
	?ref_count@PublisherZMQ@BT@@0U?$atomic@_N@std@@A 	 DATA
	?ref_count@StdCoutLogger@BT@@0U?$atomic@_N@std@@A 	 DATA
	?t@?1???$data@GV?$allocator@G@std@@@flatbuffers@@YAPEBGAEBV?$vector@GV?$allocator@G@std@@@std@@@Z@4EA 	 DATA
	?t@?1???$data@U?$Offset@UNodeModel@Serialization@@@flatbuffers@@V?$allocator@U?$Offset@UNodeModel@Serialization@@@flatbuffers@@@std@@@flatbuffers@@YAPEBU?$Offset@UNodeModel@Serialization@@@1@AEBV?$vector@U?$Offset@UNodeModel@Serialization@@@flatbuffers@@V?$allocator@U?$Offset@UNodeModel@Serialization@@@flatbuffers@@@std@@@std@@@Z@4EA 	 DATA
	?t@?1???$data@U?$Offset@UPortConfig@Serialization@@@flatbuffers@@V?$allocator@U?$Offset@UPortConfig@Serialization@@@flatbuffers@@@std@@@flatbuffers@@YAPEBU?$Offset@UPortConfig@Serialization@@@1@AEBV?$vector@U?$Offset@UPortConfig@Serialization@@@flatbuffers@@V?$allocator@U?$Offset@UPortConfig@Serialization@@@flatbuffers@@@std@@@std@@@Z@4EA 	 DATA
	?t@?1???$data@U?$Offset@UPortModel@Serialization@@@flatbuffers@@V?$allocator@U?$Offset@UPortModel@Serialization@@@flatbuffers@@@std@@@flatbuffers@@YAPEBU?$Offset@UPortModel@Serialization@@@1@AEBV?$vector@U?$Offset@UPortModel@Serialization@@@flatbuffers@@V?$allocator@U?$Offset@UPortModel@Serialization@@@flatbuffers@@@std@@@std@@@Z@4EA 	 DATA
	?t@?1???$data@U?$Offset@UTreeNode@Serialization@@@flatbuffers@@V?$allocator@U?$Offset@UTreeNode@Serialization@@@flatbuffers@@@std@@@flatbuffers@@YAPEBU?$Offset@UTreeNode@Serialization@@@1@AEBV?$vector@U?$Offset@UTreeNode@Serialization@@@flatbuffers@@V?$allocator@U?$Offset@UTreeNode@Serialization@@@flatbuffers@@@std@@@std@@@Z@4EA 	 DATA
	?table@?1???$vtable_for_type@N@any@linb@@CAPEAUvtable_type@12@XZ@4U312@A 	 DATA
	?table@?1???$vtable_for_type@VSimpleString@SafeAny@@@any@linb@@CAPEAUvtable_type@12@XZ@4U312@A 	 DATA
	?table@?1???$vtable_for_type@_J@any@linb@@CAPEAUvtable_type@12@XZ@4U312@A 	 DATA
	?table@?1???$vtable_for_type@_K@any@linb@@CAPEAUvtable_type@12@XZ@4U312@A 	 DATA
	?writeBoolFalse@XMLUtil@tinyxml2@@0PEBDEB 	 DATA
	?writeBoolTrue@XMLUtil@tinyxml2@@0PEBDEB 	 DATA
	_Avx2WmemEnabledWeakValue 	 DATA
	?<lambda_invoker_cdecl>@_Closure_wrapper_addf24d9_1@@CAXPEAVany_base@_detail@lexy@@Uproduction_info@4@PEBV234@PEB_QAEBV?$error@U_pr8@lexy@@X@4@@Z
	?<lambda_invoker_cdecl>@_Closure_wrapper_addf24d9_2@@CAXPEAVany_base@_detail@lexy@@Uproduction_info@4@PEBV234@PEB_QAEBV?$error@U_pr8@lexy@@Uexpected_literal@2@@4@@Z
	?<lambda_invoker_cdecl>@_Closure_wrapper_addf24d9_3@@CAXPEAVany_base@_detail@lexy@@Uproduction_info@4@PEBV234@PEB_QAEBV?$error@U_pr8@lexy@@Uexpected_keyword@2@@4@@Z
	?<lambda_invoker_cdecl>@_Closure_wrapper_addf24d9_4@@CAXPEAVany_base@_detail@lexy@@Uproduction_info@4@PEBV234@PEB_QAEBV?$error@U_pr8@lexy@@Uexpected_char_class@2@@4@@Z
	??$?0$$BY01DV?$basic_string@DU?$char_traits@D@std@@V?$allocator@D@2@@std@@$$BY0CF@D@BehaviorTreeException@BT@@QEAA@AEAY01$$CBDAEBV?$basic_string@DU?$char_traits@D@std@@V?$allocator@D@2@@std@@AEAY0CF@$$CBD@Z
	??$?0$$BY01DV?$basic_string@DU?$char_traits@D@std@@V?$allocator@D@2@@std@@$$BY0CF@D@LogicError@BT@@QEAA@AEAY01$$CBDAEBV?$basic_string@DU?$char_traits@D@std@@V?$allocator@D@2@@std@@AEAY0CF@$$CBD@Z
	??$?0$$BY04DV?$basic_string@DU?$char_traits@D@std@@V?$allocator@D@2@@std@@$$BY0BF@D@BehaviorTreeException@BT@@QEAA@AEAY04$$CBDAEBV?$basic_string@DU?$char_traits@D@std@@V?$allocator@D@2@@std@@AEAY0BF@$$CBD@Z
	??$?0$$BY06DV?$basic_string@DU?$char_traits@D@std@@V?$allocator@D@2@@std@@$$BY0HJ@D@BehaviorTreeException@BT@@QEAA@AEAY06$$CBDAEBV?$basic_string@DU?$char_traits@D@std@@V?$allocator@D@2@@std@@AEAY0HJ@$$CBD@Z
	??$?0$$BY06DV?$basic_string@DU?$char_traits@D@std@@V?$allocator@D@2@@std@@$$BY0HJ@D@RuntimeError@BT@@QEAA@AEAY06$$CBDAEBV?$basic_string@DU?$char_traits@D@std@@V?$allocator@D@2@@std@@AEAY0HJ@$$CBD@Z
	??$?0$$BY0BAA@D@BehaviorTreeException@BT@@QEAA@AEAY0BAA@$$CBD@Z
	??$?0$$BY0BAA@D@RuntimeError@BT@@QEAA@AEAY0BAA@$$CBD@Z
	??$?0$$BY0BE@DPEBD$$BY0BA@D@BehaviorTreeException@BT@@QEAA@AEAY0BE@$$CBDAEBQEBDAEAY0BA@$$CBD@Z
	??$?0$$BY0BE@DPEBD$$BY0BA@D@RuntimeError@BT@@QEAA@AEAY0BE@$$CBDAEBQEBDAEAY0BA@$$CBD@Z
	??$?0$$BY0BE@DPEBD$$BY0BC@D@BehaviorTreeException@BT@@QEAA@AEAY0BE@$$CBDAEBQEBDAEAY0BC@$$CBD@Z
	??$?0$$BY0BE@DPEBD$$BY0BC@D@RuntimeError@BT@@QEAA@AEAY0BE@$$CBDAEBQEBDAEAY0BC@$$CBD@Z
	??$?0$$BY0BE@DPEBD$$BY0P@D@BehaviorTreeException@BT@@QEAA@AEAY0BE@$$CBDAEBQEBDAEAY0P@$$CBD@Z
	??$?0$$BY0BE@DPEBD$$BY0P@D@RuntimeError@BT@@QEAA@AEAY0BE@$$CBDAEBQEBDAEAY0P@$$CBD@Z
	??$?0$$BY0BF@D@BehaviorTreeException@BT@@QEAA@AEAY0BF@$$CBD@Z
	??$?0$$BY0BF@D@RuntimeError@BT@@QEAA@AEAY0BF@$$CBD@Z
	??$?0$$BY0BG@DV?$basic_string@DU?$char_traits@D@std@@V?$allocator@D@2@@std@@$$BY02DV01@@BehaviorTreeException@BT@@QEAA@AEAY0BG@$$CBDAEBV?$basic_string@DU?$char_traits@D@std@@V?$allocator@D@2@@std@@AEAY02$$CBD1@Z
	??$?0$$BY0BG@DV?$basic_string@DU?$char_traits@D@std@@V?$allocator@D@2@@std@@$$BY02DV01@@LogicError@BT@@QEAA@AEAY0BG@$$CBDAEBV?$basic_string@DU?$char_traits@D@std@@V?$allocator@D@2@@std@@AEAY02$$CBD1@Z
	??$?0$$BY0BK@D@BehaviorTreeException@BT@@QEAA@AEAY0BK@$$CBD@Z
	??$?0$$BY0BK@D@RuntimeError@BT@@QEAA@AEAY0BK@$$CBD@Z
	??$?0$$BY0BK@DV?$basic_string@DU?$char_traits@D@std@@V?$allocator@D@2@@std@@$$BY0BB@D@BehaviorTreeException@BT@@QEAA@AEAY0BK@$$CBDAEBV?$basic_string@DU?$char_traits@D@std@@V?$allocator@D@2@@std@@AEAY0BB@$$CBD@Z
	??$?0$$BY0BK@DV?$basic_string@DU?$char_traits@D@std@@V?$allocator@D@2@@std@@$$BY0BB@D@RuntimeError@BT@@QEAA@AEAY0BK@$$CBDAEBV?$basic_string@DU?$char_traits@D@std@@V?$allocator@D@2@@std@@AEAY0BB@$$CBD@Z
	??$?0$$BY0CB@DV?$basic_string@DU?$char_traits@D@std@@V?$allocator@D@2@@std@@$$BY01D@BehaviorTreeException@BT@@QEAA@AEAY0CB@$$CBDAEBV?$basic_string@DU?$char_traits@D@std@@V?$allocator@D@2@@std@@AEAY01$$CBD@Z
	??$?0$$BY0CB@DV?$basic_string@DU?$char_traits@D@std@@V?$allocator@D@2@@std@@$$BY01D@RuntimeError@BT@@QEAA@AEAY0CB@$$CBDAEBV?$basic_string@DU?$char_traits@D@std@@V?$allocator@D@2@@std@@AEAY01$$CBD@Z
	??$?0$$BY0CD@DV?$basic_string@DU?$char_traits@D@std@@V?$allocator@D@2@@std@@$$BY01D@BehaviorTreeException@BT@@QEAA@AEAY0CD@$$CBDAEBV?$basic_string@DU?$char_traits@D@std@@V?$allocator@D@2@@std@@AEAY01$$CBD@Z
	??$?0$$BY0CD@DV?$basic_string@DU?$char_traits@D@std@@V?$allocator@D@2@@std@@$$BY01D@RuntimeError@BT@@QEAA@AEAY0CD@$$CBDAEBV?$basic_string@DU?$char_traits@D@std@@V?$allocator@D@2@@std@@AEAY01$$CBD@Z
	??$?0$$BY0CF@D@BehaviorTreeException@BT@@QEAA@AEAY0CF@$$CBD@Z
	??$?0$$BY0CF@D@RuntimeError@BT@@QEAA@AEAY0CF@$$CBD@Z
	??$?0$$BY0CH@D@BehaviorTreeException@BT@@QEAA@AEAY0CH@$$CBD@Z
	??$?0$$BY0CH@D@RuntimeError@BT@@QEAA@AEAY0CH@$$CBD@Z
	??$?0$$BY0CI@D@BehaviorTreeException@BT@@QEAA@AEAY0CI@$$CBD@Z
	??$?0$$BY0CI@D@RuntimeError@BT@@QEAA@AEAY0CI@$$CBD@Z
	??$?0$$BY0CJ@D@BehaviorTreeException@BT@@QEAA@AEAY0CJ@$$CBD@Z
	??$?0$$BY0CJ@D@LogicError@BT@@QEAA@AEAY0CJ@$$CBD@Z
	??$?0$$BY0CJ@D@RuntimeError@BT@@QEAA@AEAY0CJ@$$CBD@Z
	??$?0$$BY0CM@D@BehaviorTreeException@BT@@QEAA@AEAY0CM@$$CBD@Z
	??$?0$$BY0CM@D@RuntimeError@BT@@QEAA@AEAY0CM@$$CBD@Z
	??$?0$$BY0CN@D@BehaviorTreeException@BT@@QEAA@AEAY0CN@$$CBD@Z
	??$?0$$BY0CN@D@RuntimeError@BT@@QEAA@AEAY0CN@$$CBD@Z
	??$?0$$BY0CP@DV?$basic_string@DU?$char_traits@D@std@@V?$allocator@D@2@@std@@@BehaviorTreeException@BT@@QEAA@AEAY0CP@$$CBDAEBV?$basic_string@DU?$char_traits@D@std@@V?$allocator@D@2@@std@@@Z
	??$?0$$BY0CP@DV?$basic_string@DU?$char_traits@D@std@@V?$allocator@D@2@@std@@@RuntimeError@BT@@QEAA@AEAY0CP@$$CBDAEBV?$basic_string@DU?$char_traits@D@std@@V?$allocator@D@2@@std@@@Z
	??$?0$$BY0DB@DV?$basic_string@DU?$char_traits@D@std@@V?$allocator@D@2@@std@@$$BY01D@BehaviorTreeException@BT@@QEAA@AEAY0DB@$$CBDAEBV?$basic_string@DU?$char_traits@D@std@@V?$allocator@D@2@@std@@AEAY01$$CBD@Z
	??$?0$$BY0DB@DV?$basic_string@DU?$char_traits@D@std@@V?$allocator@D@2@@std@@$$BY01D@LogicError@BT@@QEAA@AEAY0DB@$$CBDAEBV?$basic_string@DU?$char_traits@D@std@@V?$allocator@D@2@@std@@AEAY01$$CBD@Z
	??$?0$$BY0DD@D@BehaviorTreeException@BT@@QEAA@AEAY0DD@$$CBD@Z
	??$?0$$BY0DD@D@LogicError@BT@@QEAA@AEAY0DD@$$CBD@Z
	??$?0$$BY0DD@D@RuntimeError@BT@@QEAA@AEAY0DD@$$CBD@Z
	??$?0$$BY0DD@DV?$basic_string@DU?$char_traits@D@std@@V?$allocator@D@2@@std@@$$BY0CE@DV01@$$BY0BE@DV01@$$BY0BL@D@BehaviorTreeException@BT@@QEAA@AEAY0DD@$$CBDAEBV?$basic_string@DU?$char_traits@D@std@@V?$allocator@D@2@@std@@AEAY0CE@$$CBD1AEAY0BE@$$CBD1AEAY0BL@$$CBD@Z
	??$?0$$BY0DD@DV?$basic_string@DU?$char_traits@D@std@@V?$allocator@D@2@@std@@$$BY0CE@DV01@$$BY0BE@DV01@$$BY0BL@D@RuntimeError@BT@@QEAA@AEAY0DD@$$CBDAEBV?$basic_string@DU?$char_traits@D@std@@V?$allocator@D@2@@std@@AEAY0CE@$$CBD1AEAY0BE@$$CBD1AEAY0BL@$$CBD@Z
	??$?0$$BY0DE@D@BehaviorTreeException@BT@@QEAA@AEAY0DE@$$CBD@Z
	??$?0$$BY0DE@D@LogicError@BT@@QEAA@AEAY0DE@$$CBD@Z
	??$?0$$BY0DF@D@BehaviorTreeException@BT@@QEAA@AEAY0DF@$$CBD@Z
	??$?0$$BY0DF@D@LogicError@BT@@QEAA@AEAY0DF@$$CBD@Z
	??$?0$$BY0DF@DV?$basic_string@DU?$char_traits@D@std@@V?$allocator@D@2@@std@@$$BY0M@DV01@$$BY03DV01@$$BY0EJ@D@BehaviorTreeException@BT@@QEAA@AEAY0DF@$$CBDAEBV?$basic_string@DU?$char_traits@D@std@@V?$allocator@D@2@@std@@AEAY0M@$$CBD1AEAY03$$CBD1AEAY0EJ@$$CBD@Z
	??$?0$$BY0DF@DV?$basic_string@DU?$char_traits@D@std@@V?$allocator@D@2@@std@@$$BY0M@DV01@$$BY03DV01@$$BY0EJ@D@RuntimeError@BT@@QEAA@AEAY0DF@$$CBDAEBV?$basic_string@DU?$char_traits@D@std@@V?$allocator@D@2@@std@@AEAY0M@$$CBD1AEAY03$$CBD1AEAY0EJ@$$CBD@Z
	??$?0$$BY0DG@D@BehaviorTreeException@BT@@QEAA@AEAY0DG@$$CBD@Z
	??$?0$$BY0DG@D@LogicError@BT@@QEAA@AEAY0DG@$$CBD@Z
	??$?0$$BY0DL@D@BehaviorTreeException@BT@@QEAA@AEAY0DL@$$CBD@Z
	??$?0$$BY0DL@D@LogicError@BT@@QEAA@AEAY0DL@$$CBD@Z
	??$?0$$BY0DN@D@BehaviorTreeException@BT@@QEAA@AEAY0DN@$$CBD@Z
	??$?0$$BY0DN@D@RuntimeError@BT@@QEAA@AEAY0DN@$$CBD@Z
	??$?0$$BY0DO@D@BehaviorTreeException@BT@@QEAA@AEAY0DO@$$CBD@Z
	??$?0$$BY0DO@D@LogicError@BT@@QEAA@AEAY0DO@$$CBD@Z
	??$?0$$BY0EA@D@BehaviorTreeException@BT@@QEAA@AEAY0EA@$$CBD@Z
	??$?0$$BY0EA@D@LogicError@BT@@QEAA@AEAY0EA@$$CBD@Z
	??$?0$$BY0EB@D@BehaviorTreeException@BT@@QEAA@AEAY0EB@$$CBD@Z
	??$?0$$BY0EB@D@LogicError@BT@@QEAA@AEAY0EB@$$CBD@Z
	??$?0$$BY0EG@D@BehaviorTreeException@BT@@QEAA@AEAY0EG@$$CBD@Z
	??$?0$$BY0EG@D@LogicError@BT@@QEAA@AEAY0EG@$$CBD@Z
	??$?0$$BY0FO@DV?$basic_string@DU?$char_traits@D@std@@V?$allocator@D@2@@std@@$$BY0BE@DV01@$$BY01D@BehaviorTreeException@BT@@QEAA@AEAY0FO@$$CBDAEBV?$basic_string@DU?$char_traits@D@std@@V?$allocator@D@2@@std@@AEAY0BE@$$CBD1AEAY01$$CBD@Z
	??$?0$$BY0FO@DV?$basic_string@DU?$char_traits@D@std@@V?$allocator@D@2@@std@@$$BY0BE@DV01@$$BY01D@LogicError@BT@@QEAA@AEAY0FO@$$CBDAEBV?$basic_string@DU?$char_traits@D@std@@V?$allocator@D@2@@std@@AEAY0BE@$$CBD1AEAY01$$CBD@Z
	??$?0$$BY0HD@D@BehaviorTreeException@BT@@QEAA@AEAY0HD@$$CBD@Z
	??$?0$$BY0HD@D@RuntimeError@BT@@QEAA@AEAY0HD@$$CBD@Z
	??$?0$$BY0IH@D@BehaviorTreeException@BT@@QEAA@AEAY0IH@$$CBD@Z
	??$?0$$BY0IH@D@RuntimeError@BT@@QEAA@AEAY0IH@$$CBD@Z
	??$?0$$BY0L@D@BehaviorTreeException@BT@@QEAA@AEAY0L@$$CBD@Z
	??$?0$$BY0L@D@RuntimeError@BT@@QEAA@AEAY0L@$$CBD@Z
	??$?0$$BY0M@DV?$basic_string@DU?$char_traits@D@std@@V?$allocator@D@2@@std@@$$BY0BP@D@BehaviorTreeException@BT@@QEAA@AEAY0M@$$CBDAEBV?$basic_string@DU?$char_traits@D@std@@V?$allocator@D@2@@std@@AEAY0BP@$$CBD@Z
	??$?0$$BY0MI@D@BehaviorTreeException@BT@@QEAA@AEAY0MI@$$CBD@Z
	??$?0$$BY0MI@D@RuntimeError@BT@@QEAA@AEAY0MI@$$CBD@Z
	??$?0$$CBV?$basic_string@DU?$char_traits@D@std@@V?$allocator@D@2@@std@@UTreeNodeManifest@BT@@$0A@@?$pair@$$CBV?$basic_string@DU?$char_traits@D@std@@V?$allocator@D@2@@std@@UTreeNodeManifest@BT@@@std@@QEAA@AEBV?$basic_string@DU?$char_traits@D@std@@V?$allocator@D@2@@1@AEBUTreeNodeManifest@BT@@@Z
	??$?0$$CBV?$basic_string@DU?$char_traits@D@std@@V?$allocator@D@2@@std@@V01@$0A@@?$pair@$$CBV?$basic_string@DU?$char_traits@D@std@@V?$allocator@D@2@@std@@V12@@std@@QEAA@AEBV?$basic_string@DU?$char_traits@D@std@@V?$allocator@D@2@@1@0@Z
	??$?0$$CBV?$basic_string@DU?$char_traits@D@std@@V?$allocator@D@2@@std@@V?$function@$$A6A?AV?$unique_ptr@VTreeNode@BT@@U?$default_delete@VTreeNode@BT@@@std@@@std@@AEBV?$basic_string@DU?$char_traits@D@std@@V?$allocator@D@2@@2@AEBUNodeConfig@BT@@@Z@1@$0A@@?$pair@$$CBV?$basic_string@DU?$char_traits@D@std@@V?$allocator@D@2@@std@@V?$function@$$A6A?AV?$unique_ptr@VTreeNode@BT@@U?$default_delete@VTreeNode@BT@@@std@@@std@@AEBV?$basic_string@DU?$char_traits@D@std@@V?$allocator@D@2@@2@AEBUNodeConfig@BT@@@Z@2@@std@@QEAA@AEBV?$basic_string@DU?$char_traits@D@std@@V?$allocator@D@2@@1@AEBV?$function@$$A6A?AV?$unique_ptr@VTreeNode@BT@@U?$default_delete@VTreeNode@BT@@@std@@@std@@AEBV?$basic_string@DU?$char_traits@D@std@@V?$allocator@D@2@@2@AEBUNodeConfig@BT@@@Z@1@@Z
	??$?0$$CBV?$basic_string@DU?$char_traits@D@std@@V?$allocator@D@2@@std@@W4NodeType@BT@@$0A@@?$pair@$$CBV?$basic_string@DU?$char_traits@D@std@@V?$allocator@D@2@@std@@W4NodeType@BT@@@std@@QEAA@AEBV?$basic_string@DU?$char_traits@D@std@@V?$allocator@D@2@@1@AEBW4NodeType@BT@@@Z
	??$?0$$QEAV?$basic_string@DU?$char_traits@D@std@@V?$allocator@D@2@@std@@$$Z$$V@?$pair@$$CBV?$basic_string@DU?$char_traits@D@std@@V?$allocator@D@2@@std@@H@std@@QEAA@Upiecewise_construct_t@1@V?$tuple@$$QEAV?$basic_string@DU?$char_traits@D@std@@V?$allocator@D@2@@std@@@1@V?$tuple@$$V@1@@Z
	??$?0$$V@?$_Compressed_pair@U?$default_delete@V?$pull_coroutine@X@detail@coroutines2@boost@@@std@@PEAV?$pull_coroutine@X@detail@coroutines2@boost@@$00@std@@QEAA@U_Zero_then_variadic_args_t@1@@Z
	??$?0$$V@?$_Compressed_pair@V?$allocator@D@std@@V?$_String_val@U?$_Simple_types@D@std@@@2@$00@std@@QEAA@U_Zero_then_variadic_args_t@1@@Z
	??$?0$$V@?$_Compressed_pair@V?$allocator@E@std@@V?$_Vector_val@U?$_Simple_types@E@std@@@2@$00@std@@QEAA@U_Zero_then_variadic_args_t@1@@Z
	??$?0$$V@?$_Compressed_pair@V?$allocator@G@std@@V?$_Vector_val@U?$_Simple_types@G@std@@@2@$00@std@@QEAA@U_Zero_then_variadic_args_t@1@@Z
	??$?0$$V@?$_Compressed_pair@V?$allocator@H@std@@V?$_Vector_val@U?$_Simple_types@H@std@@@2@$00@std@@QEAA@U_Zero_then_variadic_args_t@1@@Z
	??$?0$$V@?$_Compressed_pair@V?$allocator@N@std@@V?$_Vector_val@U?$_Simple_types@N@std@@@2@$00@std@@QEAA@U_Zero_then_variadic_args_t@1@@Z
	??$?0$$V@?$_Compressed_pair@V?$allocator@PEAVTreeNode@BT@@@std@@V?$_Vector_val@U?$_Simple_types@PEAVTreeNode@BT@@@std@@@2@$00@std@@QEAA@U_Zero_then_variadic_args_t@1@@Z
	??$?0$$V@?$_Compressed_pair@V?$allocator@PEAX@std@@V?$_Vector_val@U?$_Simple_types@PEAX@std@@@2@$00@std@@QEAA@U_Zero_then_variadic_args_t@1@@Z
	??$?0$$V@?$_Compressed_pair@V?$allocator@U?$Offset@UNodeModel@Serialization@@@flatbuffers@@@std@@V?$_Vector_val@U?$_Simple_types@U?$Offset@UNodeModel@Serialization@@@flatbuffers@@@std@@@2@$00@std@@QEAA@U_Zero_then_variadic_args_t@1@@Z
	??$?0$$V@?$_Compressed_pair@V?$allocator@U?$Offset@UPortConfig@Serialization@@@flatbuffers@@@std@@V?$_Vector_val@U?$_Simple_types@U?$Offset@UPortConfig@Serialization@@@flatbuffers@@@std@@@2@$00@std@@QEAA@U_Zero_then_variadic_args_t@1@@Z
	??$?0$$V@?$_Compressed_pair@V?$allocator@U?$Offset@UPortModel@Serialization@@@flatbuffers@@@std@@V?$_Vector_val@U?$_Simple_types@U?$Offset@UPortModel@Serialization@@@flatbuffers@@@std@@@2@$00@std@@QEAA@U_Zero_then_variadic_args_t@1@@Z
	??$?0$$V@?$_Compressed_pair@V?$allocator@U?$Offset@UTreeNode@Serialization@@@flatbuffers@@@std@@V?$_Vector_val@U?$_Simple_types@U?$Offset@UTreeNode@Serialization@@@flatbuffers@@@std@@@2@$00@std@@QEAA@U_Zero_then_variadic_args_t@1@@Z
	??$?0$$V@?$_Compressed_pair@V?$allocator@U?$_List_node@V?$unique_ptr@VXMLDocument@tinyxml2@@U?$default_delete@VXMLDocument@tinyxml2@@@std@@@std@@PEAX@std@@@std@@V?$_List_val@U?$_List_simple_types@V?$unique_ptr@VXMLDocument@tinyxml2@@U?$default_delete@VXMLDocument@tinyxml2@@@std@@@std@@@std@@@2@$00@std@@QEAA@U_Zero_then_variadic_args_t@1@@Z
	??$?0$$V@?$_Compressed_pair@V?$allocator@U?$_Tree_node@U?$pair@$$CBV?$basic_string@DU?$char_traits@D@std@@V?$allocator@D@2@@std@@PEBVXMLElement@tinyxml2@@@std@@PEAX@std@@@std@@V?$_Tree_val@U?$_Tree_simple_types@U?$pair@$$CBV?$basic_string@DU?$char_traits@D@std@@V?$allocator@D@2@@std@@PEBVXMLElement@tinyxml2@@@std@@@std@@@2@$00@std@@QEAA@U_Zero_then_variadic_args_t@1@@Z
	??$?0$$V@?$_Compressed_pair@V?$allocator@U?$_Tree_node@U?$pair@$$CBW4PostCond@BT@@V?$basic_string@DU?$char_traits@D@std@@V?$allocator@D@2@@std@@@std@@PEAX@std@@@std@@V?$_Tree_val@U?$_Tree_simple_types@U?$pair@$$CBW4PostCond@BT@@V?$basic_string@DU?$char_traits@D@std@@V?$allocator@D@2@@std@@@std@@@std@@@2@$00@std@@QEAA@U_Zero_then_variadic_args_t@1@@Z
	??$?0$$V@?$_Compressed_pair@V?$allocator@U?$_Tree_node@U?$pair@$$CBW4PreCond@BT@@V?$basic_string@DU?$char_traits@D@std@@V?$allocator@D@2@@std@@@std@@PEAX@std@@@std@@V?$_Tree_val@U?$_Tree_simple_types@U?$pair@$$CBW4PreCond@BT@@V?$basic_string@DU?$char_traits@D@std@@V?$allocator@D@2@@std@@@std@@@std@@@2@$00@std@@QEAA@U_Zero_then_variadic_args_t@1@@Z
	??$?0$$V@?$_Compressed_pair@V?$allocator@U?$_Tree_node@V?$basic_string@DU?$char_traits@D@std@@V?$allocator@D@2@@std@@PEAX@std@@@std@@V?$_Tree_val@U?$_Tree_simple_types@V?$basic_string@DU?$char_traits@D@std@@V?$allocator@D@2@@std@@@std@@@2@$00@std@@QEAA@U_Zero_then_variadic_args_t@1@@Z
	??$?0$$V@?$_Compressed_pair@V?$allocator@U?$_Tree_node@V?$basic_string_view@DU?$char_traits@D@std@@@std@@PEAX@std@@@std@@V?$_Tree_val@U?$_Tree_simple_types@V?$basic_string_view@DU?$char_traits@D@std@@@std@@@std@@@2@$00@std@@QEAA@U_Zero_then_variadic_args_t@1@@Z
	??$?0$$V@?$_Compressed_pair@V?$allocator@U?$_Tree_node@_KPEAX@std@@@std@@V?$_Tree_val@U?$_Tree_simple_types@_K@std@@@2@$00@std@@QEAA@U_Zero_then_variadic_args_t@1@@Z
	??$?0$$V@?$_Compressed_pair@V?$allocator@UWorkItem@?$TimerQueue@Usteady_clock@chrono@std@@V?$duration@_JU?$ratio@$00$0DLJKMKAA@@std@@@23@@BT@@@std@@V?$_Vector_val@U?$_Simple_types@UWorkItem@?$TimerQueue@Usteady_clock@chrono@std@@V?$duration@_JU?$ratio@$00$0DLJKMKAA@@std@@@23@@BT@@@std@@@2@$00@std@@QEAA@U_Zero_then_variadic_args_t@1@@Z
	??$?0$$V@?$_Compressed_pair@V?$allocator@V?$array@E$0M@@std@@@std@@V?$_Vector_val@U?$_Simple_types@V?$array@E$0M@@std@@@std@@@2@$00@std@@QEAA@U_Zero_then_variadic_args_t@1@@Z
	??$?0$$V@?$_Compressed_pair@V?$allocator@V?$basic_string@DU?$char_traits@D@std@@V?$allocator@D@2@@std@@@std@@V?$_Vector_val@U?$_Simple_types@V?$basic_string@DU?$char_traits@D@std@@V?$allocator@D@2@@std@@@std@@@2@$00@std@@QEAA@U_Zero_then_variadic_args_t@1@@Z
	??$?0$$V@?$_Compressed_pair@V?$allocator@V?$basic_string_view@DU?$char_traits@D@std@@@std@@@std@@V?$_Vector_val@U?$_Simple_types@V?$basic_string_view@DU?$char_traits@D@std@@@std@@@std@@@2@$00@std@@QEAA@U_Zero_then_variadic_args_t@1@@Z
	??$?0$$V@?$_Compressed_pair@V?$allocator@V?$shared_ptr@UExprBase@Ast@BT@@@std@@@std@@V?$_Vector_val@U?$_Simple_types@V?$shared_ptr@UExprBase@Ast@BT@@@std@@@std@@@2@$00@std@@QEAA@U_Zero_then_variadic_args_t@1@@Z
	??$?0$$V@?$_Compressed_pair@V?$allocator@V?$shared_ptr@USubtree@Tree@BT@@@std@@@std@@V?$_Vector_val@U?$_Simple_types@V?$shared_ptr@USubtree@Tree@BT@@@std@@@std@@@2@$00@std@@QEAA@U_Zero_then_variadic_args_t@1@@Z
	??$?0$$V@?$_Compressed_pair@V?$allocator@V?$shared_ptr@V?$function@$$A6AXV?$time_point@Usteady_clock@chrono@std@@V?$duration@_JU?$ratio@$00$0DLJKMKAA@@std@@@23@@chrono@std@@AEBVTreeNode@BT@@W4NodeStatus@5@2@Z@std@@@std@@@std@@V?$_Vector_val@U?$_Simple_types@V?$shared_ptr@V?$function@$$A6AXV?$time_point@Usteady_clock@chrono@std@@V?$duration@_JU?$ratio@$00$0DLJKMKAA@@std@@@23@@chrono@std@@AEBVTreeNode@BT@@W4NodeStatus@5@2@Z@std@@@std@@@std@@@2@$00@std@@QEAA@U_Zero_then_variadic_args_t@1@@Z
	??$?0$$V@?$_Compressed_pair@V?$allocator@V?$shared_ptr@VTreeNode@BT@@@std@@@std@@V?$_Vector_val@U?$_Simple_types@V?$shared_ptr@VTreeNode@BT@@@std@@@std@@@2@$00@std@@QEAA@U_Zero_then_variadic_args_t@1@@Z
	??$?0$$V@?$_Compressed_pair@V?$allocator@V?$weak_ptr@V?$function@$$A6AXV?$time_point@Usteady_clock@chrono@std@@V?$duration@_JU?$ratio@$00$0DLJKMKAA@@std@@@23@@chrono@std@@AEBVTreeNode@BT@@W4NodeStatus@5@2@Z@std@@@std@@@std@@V?$_Vector_val@U?$_Simple_types@V?$weak_ptr@V?$function@$$A6AXV?$time_point@Usteady_clock@chrono@std@@V?$duration@_JU?$ratio@$00$0DLJKMKAA@@std@@@23@@chrono@std@@AEBVTreeNode@BT@@W4NodeStatus@5@2@Z@std@@@std@@@std@@@2@$00@std@@QEAA@U_Zero_then_variadic_args_t@1@@Z
	??$?0$$V@?$_Compressed_pair@V?$allocator@W4op_t@ExprComparison@Ast@BT@@@std@@V?$_Vector_val@U?$_Simple_types@W4op_t@ExprComparison@Ast@BT@@@std@@@2@$00@std@@QEAA@U_Zero_then_variadic_args_t@1@@Z
	??$?0$$V@?$_Compressed_pair@V?$allocator@_W@std@@V?$_String_val@U?$_Simple_types@_W@std@@@2@$00@std@@QEAA@U_Zero_then_variadic_args_t@1@@Z
	??$?0$$V@?$_Ref_count_obj2@USubtree@Tree@BT@@@std@@QEAA@XZ
	??$?0$$V@?$_Ref_count_obj2@V?$unordered_map@V?$basic_string@DU?$char_traits@D@std@@V?$allocator@D@2@@std@@HU?$hash@V?$basic_string@DU?$char_traits@D@std@@V?$allocator@D@2@@std@@@2@U?$equal_to@V?$basic_string@DU?$char_traits@D@std@@V?$allocator@D@2@@std@@@2@V?$allocator@U?$pair@$$CBV?$basic_string@DU?$char_traits@D@std@@V?$allocator@D@2@@std@@H@std@@@2@@std@@@std@@QEAA@XZ
	??$?0$$V@?$_Ref_count_obj2@VWakeUpSignal@BT@@@std@@QEAA@XZ
	??$?0$00$0A@@?$expected@Umonostate@std@@V?$basic_string@DU?$char_traits@D@std@@V?$allocator@D@2@@2@@expected_lite@nonstd@@QEAA@XZ
	??$?0AEAPEAU?$_List_node@U?$pair@$$CBV?$basic_string@DU?$char_traits@D@std@@V?$allocator@D@2@@std@@H@std@@PEAX@std@@_N$0A@@?$pair@PEAU?$_List_node@U?$pair@$$CBV?$basic_string@DU?$char_traits@D@std@@V?$allocator@D@2@@std@@H@std@@PEAX@std@@_N@std@@QEAA@AEAPEAU?$_List_node@U?$pair@$$CBV?$basic_string@DU?$char_traits@D@std@@V?$allocator@D@2@@std@@H@std@@PEAX@1@$$QEA_N@Z
	??$?0AEAPEAU?$_List_node@U?$pair@$$CBV?$basic_string@DU?$char_traits@D@std@@V?$allocator@D@2@@std@@V12@@std@@PEAX@std@@_N$0A@@?$pair@PEAU?$_List_node@U?$pair@$$CBV?$basic_string@DU?$char_traits@D@std@@V?$allocator@D@2@@std@@V12@@std@@PEAX@std@@_N@std@@QEAA@AEAPEAU?$_List_node@U?$pair@$$CBV?$basic_string@DU?$char_traits@D@std@@V?$allocator@D@2@@std@@V12@@std@@PEAX@1@$$QEA_N@Z
	??$?0AEAPEAU?$_Tree_node@U?$pair@$$CBW4PostCond@BT@@V?$basic_string@DU?$char_traits@D@std@@V?$allocator@D@2@@std@@@std@@PEAX@std@@_N$0A@@?$pair@PEAU?$_Tree_node@U?$pair@$$CBW4PostCond@BT@@V?$basic_string@DU?$char_traits@D@std@@V?$allocator@D@2@@std@@@std@@PEAX@std@@_N@std@@QEAA@AEAPEAU?$_Tree_node@U?$pair@$$CBW4PostCond@BT@@V?$basic_string@DU?$char_traits@D@std@@V?$allocator@D@2@@std@@@std@@PEAX@1@$$QEA_N@Z
	??$?0AEAPEAU?$_Tree_node@U?$pair@$$CBW4PreCond@BT@@V?$basic_string@DU?$char_traits@D@std@@V?$allocator@D@2@@std@@@std@@PEAX@std@@_N$0A@@?$pair@PEAU?$_Tree_node@U?$pair@$$CBW4PreCond@BT@@V?$basic_string@DU?$char_traits@D@std@@V?$allocator@D@2@@std@@@std@@PEAX@std@@_N@std@@QEAA@AEAPEAU?$_Tree_node@U?$pair@$$CBW4PreCond@BT@@V?$basic_string@DU?$char_traits@D@std@@V?$allocator@D@2@@std@@@std@@PEAX@1@$$QEA_N@Z
	??$?0AEAPEAU?$_Tree_node@V?$basic_string@DU?$char_traits@D@std@@V?$allocator@D@2@@std@@PEAX@std@@_N$0A@@?$pair@PEAU?$_Tree_node@V?$basic_string@DU?$char_traits@D@std@@V?$allocator@D@2@@std@@PEAX@std@@_N@std@@QEAA@AEAPEAU?$_Tree_node@V?$basic_string@DU?$char_traits@D@std@@V?$allocator@D@2@@std@@PEAX@1@$$QEA_N@Z
	??$?0AEAPEAU?$_Tree_node@V?$basic_string_view@DU?$char_traits@D@std@@@std@@PEAX@std@@_N$0A@@?$pair@PEAU?$_Tree_node@V?$basic_string_view@DU?$char_traits@D@std@@@std@@PEAX@std@@_N@std@@QEAA@AEAPEAU?$_Tree_node@V?$basic_string_view@DU?$char_traits@D@std@@@std@@PEAX@1@$$QEA_N@Z
	??$?0AEAPEAU?$_Tree_node@_KPEAX@std@@_N$0A@@?$pair@PEAU?$_Tree_node@_KPEAX@std@@_N@std@@QEAA@AEAPEAU?$_Tree_node@_KPEAX@1@$$QEA_N@Z
	??$?0AEAPEAUExprComparison@Ast@BT@@@?$_Compressed_pair@U?$default_delete@UExprComparison@Ast@BT@@@std@@PEAUExprComparison@Ast@BT@@$00@std@@QEAA@U_Zero_then_variadic_args_t@1@AEAPEAUExprComparison@Ast@BT@@@Z
	??$?0AEAPEAUPimpl@CoroActionNode@BT@@@?$_Compressed_pair@U?$default_delete@UPimpl@CoroActionNode@BT@@@std@@PEAUPimpl@CoroActionNode@BT@@$00@std@@QEAA@U_Zero_then_variadic_args_t@1@AEAPEAUPimpl@CoroActionNode@BT@@@Z
	??$?0AEAPEAU_TaskProcHandle@details@Concurrency@@@?$_Compressed_pair@U?$default_delete@U_TaskProcHandle@details@Concurrency@@@std@@PEAU_TaskProcHandle@details@Concurrency@@$00@std@@QEAA@U_Zero_then_variadic_args_t@1@AEAPEAU_TaskProcHandle@details@Concurrency@@@Z
	??$?0AEAPEAV?$SwitchNode@$01@BT@@@?$_Compressed_pair@U?$default_delete@V?$SwitchNode@$01@BT@@@std@@PEAV?$SwitchNode@$01@BT@@$00@std@@QEAA@U_Zero_then_variadic_args_t@1@AEAPEAV?$SwitchNode@$01@BT@@@Z
	??$?0AEAPEAV?$SwitchNode@$02@BT@@@?$_Compressed_pair@U?$default_delete@V?$SwitchNode@$02@BT@@@std@@PEAV?$SwitchNode@$02@BT@@$00@std@@QEAA@U_Zero_then_variadic_args_t@1@AEAPEAV?$SwitchNode@$02@BT@@@Z
	??$?0AEAPEAV?$SwitchNode@$03@BT@@@?$_Compressed_pair@U?$default_delete@V?$SwitchNode@$03@BT@@@std@@PEAV?$SwitchNode@$03@BT@@$00@std@@QEAA@U_Zero_then_variadic_args_t@1@AEAPEAV?$SwitchNode@$03@BT@@@Z
	??$?0AEAPEAV?$SwitchNode@$04@BT@@@?$_Compressed_pair@U?$default_delete@V?$SwitchNode@$04@BT@@@std@@PEAV?$SwitchNode@$04@BT@@$00@std@@QEAA@U_Zero_then_variadic_args_t@1@AEAPEAV?$SwitchNode@$04@BT@@@Z
	??$?0AEAPEAV?$SwitchNode@$05@BT@@@?$_Compressed_pair@U?$default_delete@V?$SwitchNode@$05@BT@@@std@@PEAV?$SwitchNode@$05@BT@@$00@std@@QEAA@U_Zero_then_variadic_args_t@1@AEAPEAV?$SwitchNode@$05@BT@@@Z
	??$?0AEAPEAV?$TimeoutNode@Usteady_clock@chrono@std@@V?$duration@_JU?$ratio@$00$0DLJKMKAA@@std@@@23@@BT@@@?$_Compressed_pair@U?$default_delete@V?$TimeoutNode@Usteady_clock@chrono@std@@V?$duration@_JU?$ratio@$00$0DLJKMKAA@@std@@@23@@BT@@@std@@PEAV?$TimeoutNode@Usteady_clock@chrono@std@@V?$duration@_JU?$ratio@$00$0DLJKMKAA@@std@@@23@@BT@@$00@std@@QEAA@U_Zero_then_variadic_args_t@1@AEAPEAV?$TimeoutNode@Usteady_clock@chrono@std@@V?$duration@_JU?$ratio@$00$0DLJKMKAA@@std@@@23@@BT@@@Z
	??$?0AEAPEAV?$tuple@V<lambda_1>@?1???0?$TimerQueue@Usteady_clock@chrono@std@@V?$duration@_JU?$ratio@$00$0DLJKMKAA@@std@@@23@@BT@@QEAA@XZ@@std@@@?$_Compressed_pair@U?$default_delete@V?$tuple@V<lambda_1>@?1???0?$TimerQueue@Usteady_clock@chrono@std@@V?$duration@_JU?$ratio@$00$0DLJKMKAA@@std@@@23@@BT@@QEAA@XZ@@std@@@std@@PEAV?$tuple@V<lambda_1>@?1???0?$TimerQueue@Usteady_clock@chrono@std@@V?$duration@_JU?$ratio@$00$0DLJKMKAA@@std@@@23@@BT@@QEAA@XZ@@2@$00@std@@QEAA@U_Zero_then_variadic_args_t@1@AEAPEAV?$tuple@V<lambda_1>@?1???0?$TimerQueue@Usteady_clock@chrono@std@@V?$duration@_JU?$ratio@$00$0DLJKMKAA@@std@@@23@@BT@@QEAA@XZ@@1@@Z
	??$?0AEAPEAVAlwaysFailureNode@BT@@@?$_Compressed_pair@U?$default_delete@VAlwaysFailureNode@BT@@@std@@PEAVAlwaysFailureNode@BT@@$00@std@@QEAA@U_Zero_then_variadic_args_t@1@AEAPEAVAlwaysFailureNode@BT@@@Z
	??$?0AEAPEAVAlwaysSuccessNode@BT@@@?$_Compressed_pair@U?$default_delete@VAlwaysSuccessNode@BT@@@std@@PEAVAlwaysSuccessNode@BT@@$00@std@@QEAA@U_Zero_then_variadic_args_t@1@AEAPEAVAlwaysSuccessNode@BT@@@Z
	??$?0AEAPEAVDelayNode@BT@@@?$_Compressed_pair@U?$default_delete@VDelayNode@BT@@@std@@PEAVDelayNode@BT@@$00@std@@QEAA@U_Zero_then_variadic_args_t@1@AEAPEAVDelayNode@BT@@@Z
	??$?0AEAPEAVFallbackNode@BT@@@?$_Compressed_pair@U?$default_delete@VFallbackNode@BT@@@std@@PEAVFallbackNode@BT@@$00@std@@QEAA@U_Zero_then_variadic_args_t@1@AEAPEAVFallbackNode@BT@@@Z
	??$?0AEAPEAVForceFailureNode@BT@@@?$_Compressed_pair@U?$default_delete@VForceFailureNode@BT@@@std@@PEAVForceFailureNode@BT@@$00@std@@QEAA@U_Zero_then_variadic_args_t@1@AEAPEAVForceFailureNode@BT@@@Z
	??$?0AEAPEAVForceSuccessNode@BT@@@?$_Compressed_pair@U?$default_delete@VForceSuccessNode@BT@@@std@@PEAVForceSuccessNode@BT@@$00@std@@QEAA@U_Zero_then_variadic_args_t@1@AEAPEAVForceSuccessNode@BT@@@Z
	??$?0AEAPEAVIfThenElseNode@BT@@@?$_Compressed_pair@U?$default_delete@VIfThenElseNode@BT@@@std@@PEAVIfThenElseNode@BT@@$00@std@@QEAA@U_Zero_then_variadic_args_t@1@AEAPEAVIfThenElseNode@BT@@@Z
	??$?0AEAPEAVInverterNode@BT@@@?$_Compressed_pair@U?$default_delete@VInverterNode@BT@@@std@@PEAVInverterNode@BT@@$00@std@@QEAA@U_Zero_then_variadic_args_t@1@AEAPEAVInverterNode@BT@@@Z
	??$?0AEAPEAVKeepRunningUntilFailureNode@BT@@@?$_Compressed_pair@U?$default_delete@VKeepRunningUntilFailureNode@BT@@@std@@PEAVKeepRunningUntilFailureNode@BT@@$00@std@@QEAA@U_Zero_then_variadic_args_t@1@AEAPEAVKeepRunningUntilFailureNode@BT@@@Z
	??$?0AEAPEAVParallelNode@BT@@@?$_Compressed_pair@U?$default_delete@VParallelNode@BT@@@std@@PEAVParallelNode@BT@@$00@std@@QEAA@U_Zero_then_variadic_args_t@1@AEAPEAVParallelNode@BT@@@Z
	??$?0AEAPEAVPreconditionNode@BT@@@?$_Compressed_pair@U?$default_delete@VPreconditionNode@BT@@@std@@PEAVPreconditionNode@BT@@$00@std@@QEAA@U_Zero_then_variadic_args_t@1@AEAPEAVPreconditionNode@BT@@@Z
	??$?0AEAPEAVReactiveFallback@BT@@@?$_Compressed_pair@U?$default_delete@VReactiveFallback@BT@@@std@@PEAVReactiveFallback@BT@@$00@std@@QEAA@U_Zero_then_variadic_args_t@1@AEAPEAVReactiveFallback@BT@@@Z
	??$?0AEAPEAVReactiveSequence@BT@@@?$_Compressed_pair@U?$default_delete@VReactiveSequence@BT@@@std@@PEAVReactiveSequence@BT@@$00@std@@QEAA@U_Zero_then_variadic_args_t@1@AEAPEAVReactiveSequence@BT@@@Z
	??$?0AEAPEAVRepeatNode@BT@@@?$_Compressed_pair@U?$default_delete@VRepeatNode@BT@@@std@@PEAVRepeatNode@BT@@$00@std@@QEAA@U_Zero_then_variadic_args_t@1@AEAPEAVRepeatNode@BT@@@Z
	??$?0AEAPEAVRetryNode@BT@@@?$_Compressed_pair@U?$default_delete@VRetryNode@BT@@@std@@PEAVRetryNode@BT@@$00@std@@QEAA@U_Zero_then_variadic_args_t@1@AEAPEAVRetryNode@BT@@@Z
	??$?0AEAPEAVScriptNode@BT@@@?$_Compressed_pair@U?$default_delete@VScriptNode@BT@@@std@@PEAVScriptNode@BT@@$00@std@@QEAA@U_Zero_then_variadic_args_t@1@AEAPEAVScriptNode@BT@@@Z
	??$?0AEAPEAVSequenceNode@BT@@@?$_Compressed_pair@U?$default_delete@VSequenceNode@BT@@@std@@PEAVSequenceNode@BT@@$00@std@@QEAA@U_Zero_then_variadic_args_t@1@AEAPEAVSequenceNode@BT@@@Z
	??$?0AEAPEAVSequenceWithMemory@BT@@@?$_Compressed_pair@U?$default_delete@VSequenceWithMemory@BT@@@std@@PEAVSequenceWithMemory@BT@@$00@std@@QEAA@U_Zero_then_variadic_args_t@1@AEAPEAVSequenceWithMemory@BT@@@Z
	??$?0AEAPEAVSetBlackboard@BT@@@?$_Compressed_pair@U?$default_delete@VSetBlackboard@BT@@@std@@PEAVSetBlackboard@BT@@$00@std@@QEAA@U_Zero_then_variadic_args_t@1@AEAPEAVSetBlackboard@BT@@@Z
	??$?0AEAPEAVSimpleActionNode@BT@@@?$_Compressed_pair@U?$default_delete@VSimpleActionNode@BT@@@std@@PEAVSimpleActionNode@BT@@$00@std@@QEAA@U_Zero_then_variadic_args_t@1@AEAPEAVSimpleActionNode@BT@@@Z
	??$?0AEAPEAVSimpleConditionNode@BT@@@?$_Compressed_pair@U?$default_delete@VSimpleConditionNode@BT@@@std@@PEAVSimpleConditionNode@BT@@$00@std@@QEAA@U_Zero_then_variadic_args_t@1@AEAPEAVSimpleConditionNode@BT@@@Z
	??$?0AEAPEAVSimpleDecoratorNode@BT@@@?$_Compressed_pair@U?$default_delete@VSimpleDecoratorNode@BT@@@std@@PEAVSimpleDecoratorNode@BT@@$00@std@@QEAA@U_Zero_then_variadic_args_t@1@AEAPEAVSimpleDecoratorNode@BT@@@Z
	??$?0AEAPEAVSubTreeNode@BT@@@?$_Compressed_pair@U?$default_delete@VSubTreeNode@BT@@@std@@PEAVSubTreeNode@BT@@$00@std@@QEAA@U_Zero_then_variadic_args_t@1@AEAPEAVSubTreeNode@BT@@@Z
	??$?0AEAPEAVWhileDoElseNode@BT@@@?$_Compressed_pair@U?$default_delete@VWhileDoElseNode@BT@@@std@@PEAVWhileDoElseNode@BT@@$00@std@@QEAA@U_Zero_then_variadic_args_t@1@AEAPEAVWhileDoElseNode@BT@@@Z
	??$?0AEAPEAVXMLDocument@tinyxml2@@@?$_Compressed_pair@U?$default_delete@VXMLDocument@tinyxml2@@@std@@PEAVXMLDocument@tinyxml2@@$00@std@@QEAA@U_Zero_then_variadic_args_t@1@AEAPEAVXMLDocument@tinyxml2@@@Z
	??$?0AEAPEAV_CancellationTokenState@details@Concurrency@@AEAUscheduler_ptr@2@@?$_Ref_count_obj2@U?$_Task_impl@E@details@Concurrency@@@std@@QEAA@AEAPEAV_CancellationTokenState@details@Concurrency@@AEAUscheduler_ptr@4@@Z
	??$?0AEAPEAV_Facet_base@std@@@?$_Compressed_pair@U?$default_delete@V_Facet_base@std@@@std@@PEAV_Facet_base@2@$00@std@@QEAA@U_Zero_then_variadic_args_t@1@AEAPEAV_Facet_base@1@@Z
	??$?0AEAPEAV_PPLTaskChore@_DefaultPPLTaskScheduler@details@Concurrency@@@?$_Compressed_pair@U?$default_delete@V_PPLTaskChore@_DefaultPPLTaskScheduler@details@Concurrency@@@std@@PEAV_PPLTaskChore@_DefaultPPLTaskScheduler@details@Concurrency@@$00@std@@QEAA@U_Zero_then_variadic_args_t@1@AEAPEAV_PPLTaskChore@_DefaultPPLTaskScheduler@details@Concurrency@@@Z
	??$?0AEAV?$allocator@D@std@@$$V@?$_Compressed_pair@V?$allocator@D@std@@V?$_String_val@U?$_Simple_types@D@std@@@2@$00@std@@QEAA@U_One_then_variadic_args_t@1@AEAV?$allocator@D@1@@Z
	??$?0AEAV?$basic_string@DU?$char_traits@D@std@@V?$allocator@D@2@@std@@$0A@@?$unexpected_type@V?$basic_string@DU?$char_traits@D@std@@V?$allocator@D@2@@std@@@expected_lite@nonstd@@QEAA@AEAV?$basic_string@DU?$char_traits@D@std@@V?$allocator@D@2@@std@@@Z
	??$?0AEAV?$basic_string@DU?$char_traits@D@std@@V?$allocator@D@2@@std@@UEntry@Blackboard@BT@@$0A@@?$pair@$$CBV?$basic_string@DU?$char_traits@D@std@@V?$allocator@D@2@@std@@UEntry@Blackboard@BT@@@std@@QEAA@AEAV?$basic_string@DU?$char_traits@D@std@@V?$allocator@D@2@@1@$$QEAUEntry@Blackboard@BT@@@Z
	??$?0AEAV?$basic_string@DU?$char_traits@D@std@@V?$allocator@D@2@@std@@UEntry@Blackboard@BT@@@?$_List_node_emplace_op2@V?$allocator@U?$_List_node@U?$pair@$$CBV?$basic_string@DU?$char_traits@D@std@@V?$allocator@D@2@@std@@UEntry@Blackboard@BT@@@std@@PEAX@std@@@std@@@std@@QEAA@AEAV?$allocator@U?$_List_node@U?$pair@$$CBV?$basic_string@DU?$char_traits@D@std@@V?$allocator@D@2@@std@@UEntry@Blackboard@BT@@@std@@PEAX@std@@@1@AEAV?$basic_string@DU?$char_traits@D@std@@V?$allocator@D@2@@1@$$QEAUEntry@Blackboard@BT@@@Z
	??$?0AEAV?$basic_string@DU?$char_traits@D@std@@V?$allocator@D@2@@std@@VPortInfo@BT@@$0A@@?$pair@V?$basic_string@DU?$char_traits@D@std@@V?$allocator@D@2@@std@@VPortInfo@BT@@@std@@QEAA@AEAV?$basic_string@DU?$char_traits@D@std@@V?$allocator@D@2@@1@$$QEAVPortInfo@BT@@@Z
	??$?0AEAV?$basic_string_view@DU?$char_traits@D@std@@@std@@$0A@@?$expected@V?$basic_string_view@DU?$char_traits@D@std@@@std@@V?$basic_string@DU?$char_traits@D@std@@V?$allocator@D@2@@2@@expected_lite@nonstd@@QEAA@AEAV?$basic_string_view@DU?$char_traits@D@std@@@std@@@Z
	??$?0AEAV?$function@$$A6AXAEAV?$push_coroutine@X@detail@coroutines2@boost@@@Z@std@@X@?$pull_coroutine@X@detail@coroutines2@boost@@QEAA@AEAV?$function@$$A6AXAEAV?$push_coroutine@X@detail@coroutines2@boost@@@Z@std@@@Z
	??$?0AEAVBehaviorTreeFactory@BT@@@?$_Ref_count_obj2@VXMLParser@BT@@@std@@QEAA@AEAVBehaviorTreeFactory@BT@@@Z
	??$?0AEAW4PostCond@BT@@V?$basic_string@DU?$char_traits@D@std@@V?$allocator@D@2@@std@@$0A@@?$pair@$$CBW4PostCond@BT@@V?$basic_string@DU?$char_traits@D@std@@V?$allocator@D@2@@std@@@std@@QEAA@AEAW4PostCond@BT@@$$QEAV?$basic_string@DU?$char_traits@D@std@@V?$allocator@D@2@@1@@Z
	??$?0AEAW4PreCond@BT@@V?$basic_string@DU?$char_traits@D@std@@V?$allocator@D@2@@std@@$0A@@?$pair@$$CBW4PreCond@BT@@V?$basic_string@DU?$char_traits@D@std@@V?$allocator@D@2@@std@@@std@@QEAA@AEAW4PreCond@BT@@$$QEAV?$basic_string@DU?$char_traits@D@std@@V?$allocator@D@2@@1@@Z
	??$?0AEAY00$$CBD$0A@@?$unexpected_type@PEBD@expected_lite@nonstd@@QEAA@AEAY00$$CBD@Z
	??$?0AEAY0BJ@$$CBD$0A@@?$unexpected_type@PEBD@expected_lite@nonstd@@QEAA@AEAY0BJ@$$CBD@Z
	??$?0AEAY0DD@$$CBD$0A@@?$unexpected_type@PEBD@expected_lite@nonstd@@QEAA@AEAY0DD@$$CBD@Z
	??$?0AEAY0EP@$$CBD$0A@@?$unexpected_type@PEBD@expected_lite@nonstd@@QEAA@AEAY0EP@$$CBD@Z
	??$?0AEAY0IAA@D$0A@@?$unexpected_type@PEAD@expected_lite@nonstd@@QEAA@AEAY0IAA@D@Z
	??$?0AEAY0L@$$CBDAEAVPortInfo@BT@@$0A@@?$pair@$$CBV?$basic_string@DU?$char_traits@D@std@@V?$allocator@D@2@@std@@VPortInfo@BT@@@std@@QEAA@AEAY0L@$$CBDAEAVPortInfo@BT@@@Z
	??$?0AEAY0N@$$CBD$0A@@?$unexpected_type@PEBD@expected_lite@nonstd@@QEAA@AEAY0N@$$CBD@Z
	??$?0AEBNX@any@linb@@QEAA@AEBN@Z
	??$?0AEBQEAU?$_Tree_node@U?$pair@$$CBV?$basic_string@DU?$char_traits@D@std@@V?$allocator@D@2@@std@@PEBVXMLElement@tinyxml2@@@std@@PEAX@std@@_N$0A@@?$pair@PEAU?$_Tree_node@U?$pair@$$CBV?$basic_string@DU?$char_traits@D@std@@V?$allocator@D@2@@std@@PEBVXMLElement@tinyxml2@@@std@@PEAX@std@@_N@std@@QEAA@AEBQEAU?$_Tree_node@U?$pair@$$CBV?$basic_string@DU?$char_traits@D@std@@V?$allocator@D@2@@std@@PEBVXMLElement@tinyxml2@@@std@@PEAX@1@$$QEA_N@Z
	??$?0AEBU?$less@V?$basic_string@DU?$char_traits@D@std@@V?$allocator@D@2@@std@@@std@@U_Zero_then_variadic_args_t@1@@?$_Compressed_pair@U?$less@V?$basic_string@DU?$char_traits@D@std@@V?$allocator@D@2@@std@@@std@@V?$_Compressed_pair@V?$allocator@U?$_Tree_node@U?$pair@$$CBV?$basic_string@DU?$char_traits@D@std@@V?$allocator@D@2@@std@@PEBVXMLElement@tinyxml2@@@std@@PEAX@std@@@std@@V?$_Tree_val@U?$_Tree_simple_types@U?$pair@$$CBV?$basic_string@DU?$char_traits@D@std@@V?$allocator@D@2@@std@@PEBVXMLElement@tinyxml2@@@std@@@std@@@2@$00@2@$00@std@@QEAA@U_One_then_variadic_args_t@1@AEBU?$less@V?$basic_string@DU?$char_traits@D@std@@V?$allocator@D@2@@std@@@1@$$QEAU_Zero_then_variadic_args_t@1@@Z
	??$?0AEBU?$less@V?$basic_string@DU?$char_traits@D@std@@V?$allocator@D@2@@std@@@std@@U_Zero_then_variadic_args_t@1@@?$_Compressed_pair@U?$less@V?$basic_string@DU?$char_traits@D@std@@V?$allocator@D@2@@std@@@std@@V?$_Compressed_pair@V?$allocator@U?$_Tree_node@V?$basic_string@DU?$char_traits@D@std@@V?$allocator@D@2@@std@@PEAX@std@@@std@@V?$_Tree_val@U?$_Tree_simple_types@V?$basic_string@DU?$char_traits@D@std@@V?$allocator@D@2@@std@@@std@@@2@$00@2@$00@std@@QEAA@U_One_then_variadic_args_t@1@AEBU?$less@V?$basic_string@DU?$char_traits@D@std@@V?$allocator@D@2@@std@@@1@$$QEAU_Zero_then_variadic_args_t@1@@Z
	??$?0AEBU?$less@V?$basic_string_view@DU?$char_traits@D@std@@@std@@@std@@U_Zero_then_variadic_args_t@1@@?$_Compressed_pair@U?$less@V?$basic_string_view@DU?$char_traits@D@std@@@std@@@std@@V?$_Compressed_pair@V?$allocator@U?$_Tree_node@V?$basic_string_view@DU?$char_traits@D@std@@@std@@PEAX@std@@@std@@V?$_Tree_val@U?$_Tree_simple_types@V?$basic_string_view@DU?$char_traits@D@std@@@std@@@std@@@2@$00@2@$00@std@@QEAA@U_One_then_variadic_args_t@1@AEBU?$less@V?$basic_string_view@DU?$char_traits@D@std@@@std@@@1@$$QEAU_Zero_then_variadic_args_t@1@@Z
	??$?0AEBU?$less@W4PostCond@BT@@@std@@U_Zero_then_variadic_args_t@1@@?$_Compressed_pair@U?$less@W4PostCond@BT@@@std@@V?$_Compressed_pair@V?$allocator@U?$_Tree_node@U?$pair@$$CBW4PostCond@BT@@V?$basic_string@DU?$char_traits@D@std@@V?$allocator@D@2@@std@@@std@@PEAX@std@@@std@@V?$_Tree_val@U?$_Tree_simple_types@U?$pair@$$CBW4PostCond@BT@@V?$basic_string@DU?$char_traits@D@std@@V?$allocator@D@2@@std@@@std@@@std@@@2@$00@2@$00@std@@QEAA@U_One_then_variadic_args_t@1@AEBU?$less@W4PostCond@BT@@@1@$$QEAU_Zero_then_variadic_args_t@1@@Z
	??$?0AEBU?$less@W4PreCond@BT@@@std@@U_Zero_then_variadic_args_t@1@@?$_Compressed_pair@U?$less@W4PreCond@BT@@@std@@V?$_Compressed_pair@V?$allocator@U?$_Tree_node@U?$pair@$$CBW4PreCond@BT@@V?$basic_string@DU?$char_traits@D@std@@V?$allocator@D@2@@std@@@std@@PEAX@std@@@std@@V?$_Tree_val@U?$_Tree_simple_types@U?$pair@$$CBW4PreCond@BT@@V?$basic_string@DU?$char_traits@D@std@@V?$allocator@D@2@@std@@@std@@@std@@@2@$00@2@$00@std@@QEAA@U_One_then_variadic_args_t@1@AEBU?$less@W4PreCond@BT@@@1@$$QEAU_Zero_then_variadic_args_t@1@@Z
	??$?0AEBU?$less@_K@std@@U_Zero_then_variadic_args_t@1@@?$_Compressed_pair@U?$less@_K@std@@V?$_Compressed_pair@V?$allocator@U?$_Tree_node@_KPEAX@std@@@std@@V?$_Tree_val@U?$_Tree_simple_types@_K@std@@@2@$00@2@$00@std@@QEAA@U_One_then_variadic_args_t@1@AEBU?$less@_K@1@$$QEAU_Zero_then_variadic_args_t@1@@Z
	??$?0AEBU?$pair@$$CBV?$basic_string@DU?$char_traits@D@std@@V?$allocator@D@2@@std@@V12@@std@@@?$_List_node_emplace_op2@V?$allocator@U?$_List_node@U?$pair@$$CBV?$basic_string@DU?$char_traits@D@std@@V?$allocator@D@2@@std@@V12@@std@@PEAX@std@@@std@@@std@@QEAA@AEAV?$allocator@U?$_List_node@U?$pair@$$CBV?$basic_string@DU?$char_traits@D@std@@V?$allocator@D@2@@std@@V12@@std@@PEAX@std@@@1@AEBU?$pair@$$CBV?$basic_string@DU?$char_traits@D@std@@V?$allocator@D@2@@std@@V12@@1@@Z
	??$?0AEBU?$pair@$$CBV?$basic_string@DU?$char_traits@D@std@@V?$allocator@D@2@@std@@VPortInfo@BT@@@std@@@?$_List_node_emplace_op2@V?$allocator@U?$_List_node@U?$pair@$$CBV?$basic_string@DU?$char_traits@D@std@@V?$allocator@D@2@@std@@VPortInfo@BT@@@std@@PEAX@std@@@std@@@std@@QEAA@AEAV?$allocator@U?$_List_node@U?$pair@$$CBV?$basic_string@DU?$char_traits@D@std@@V?$allocator@D@2@@std@@VPortInfo@BT@@@std@@PEAX@std@@@1@AEBU?$pair@$$CBV?$basic_string@DU?$char_traits@D@std@@V?$allocator@D@2@@std@@VPortInfo@BT@@@1@@Z
	??$?0AEBUpiecewise_construct_t@std@@V?$tuple@$$QEAV?$basic_string@DU?$char_traits@D@std@@V?$allocator@D@2@@std@@@1@V?$tuple@$$V@1@@?$_List_node_emplace_op2@V?$allocator@U?$_List_node@U?$pair@$$CBV?$basic_string@DU?$char_traits@D@std@@V?$allocator@D@2@@std@@H@std@@PEAX@std@@@std@@@std@@QEAA@AEAV?$allocator@U?$_List_node@U?$pair@$$CBV?$basic_string@DU?$char_traits@D@std@@V?$allocator@D@2@@std@@H@std@@PEAX@std@@@1@AEBUpiecewise_construct_t@1@$$QEAV?$tuple@$$QEAV?$basic_string@DU?$char_traits@D@std@@V?$allocator@D@2@@std@@@1@$$QEAV?$tuple@$$V@1@@Z
	??$?0AEBUpiecewise_construct_t@std@@V?$tuple@AEBV?$basic_string@DU?$char_traits@D@std@@V?$allocator@D@2@@std@@@1@V?$tuple@$$V@1@@?$_List_node_emplace_op2@V?$allocator@U?$_List_node@U?$pair@$$CBV?$basic_string@DU?$char_traits@D@std@@V?$allocator@D@2@@std@@V12@@std@@PEAX@std@@@std@@@std@@QEAA@AEAV?$allocator@U?$_List_node@U?$pair@$$CBV?$basic_string@DU?$char_traits@D@std@@V?$allocator@D@2@@std@@V12@@std@@PEAX@std@@@1@AEBUpiecewise_construct_t@1@$$QEAV?$tuple@AEBV?$basic_string@DU?$char_traits@D@std@@V?$allocator@D@2@@std@@@1@$$QEAV?$tuple@$$V@1@@Z
	??$?0AEBUpiecewise_construct_t@std@@V?$tuple@AEBV?$basic_string@DU?$char_traits@D@std@@V?$allocator@D@2@@std@@@1@V?$tuple@$$V@1@@?$_Tree_temp_node@V?$allocator@U?$_Tree_node@U?$pair@$$CBV?$basic_string@DU?$char_traits@D@std@@V?$allocator@D@2@@std@@PEBVXMLElement@tinyxml2@@@std@@PEAX@std@@@std@@@std@@QEAA@AEAV?$allocator@U?$_Tree_node@U?$pair@$$CBV?$basic_string@DU?$char_traits@D@std@@V?$allocator@D@2@@std@@PEBVXMLElement@tinyxml2@@@std@@PEAX@std@@@1@PEAU?$_Tree_node@U?$pair@$$CBV?$basic_string@DU?$char_traits@D@std@@V?$allocator@D@2@@std@@PEBVXMLElement@tinyxml2@@@std@@PEAX@1@AEBUpiecewise_construct_t@1@$$QEAV?$tuple@AEBV?$basic_string@DU?$char_traits@D@std@@V?$allocator@D@2@@std@@@1@$$QEAV?$tuple@$$V@1@@Z
	??$?0AEBV<lambda_1>@?1???$CreateBuilder@V?$SwitchNode@$01@BT@@$$V@BT@@YA?AV?$function@$$A6A?AV?$unique_ptr@VTreeNode@BT@@U?$default_delete@VTreeNode@BT@@@std@@@std@@AEBV?$basic_string@DU?$char_traits@D@std@@V?$allocator@D@2@@2@AEBUNodeConfig@BT@@@Z@std@@XZ@$0A@@?$_Func_impl_no_alloc@V<lambda_1>@?1???$CreateBuilder@V?$SwitchNode@$01@BT@@$$V@BT@@YA?AV?$function@$$A6A?AV?$unique_ptr@VTreeNode@BT@@U?$default_delete@VTreeNode@BT@@@std@@@std@@AEBV?$basic_string@DU?$char_traits@D@std@@V?$allocator@D@2@@2@AEBUNodeConfig@BT@@@Z@std@@XZ@V?$unique_ptr@VTreeNode@BT@@U?$default_delete@VTreeNode@BT@@@std@@@4@AEBV?$basic_string@DU?$char_traits@D@std@@V?$allocator@D@2@@4@AEBUNodeConfig@2@@std@@QEAA@AEBV<lambda_1>@?1???$CreateBuilder@V?$SwitchNode@$01@BT@@$$V@BT@@YA?AV?$function@$$A6A?AV?$unique_ptr@VTreeNode@BT@@U?$default_delete@VTreeNode@BT@@@std@@@std@@AEBV?$basic_string@DU?$char_traits@D@std@@V?$allocator@D@2@@2@AEBUNodeConfig@BT@@@Z@1@XZ@@Z
	??$?0AEBV<lambda_1>@?1???$CreateBuilder@V?$SwitchNode@$02@BT@@$$V@BT@@YA?AV?$function@$$A6A?AV?$unique_ptr@VTreeNode@BT@@U?$default_delete@VTreeNode@BT@@@std@@@std@@AEBV?$basic_string@DU?$char_traits@D@std@@V?$allocator@D@2@@2@AEBUNodeConfig@BT@@@Z@std@@XZ@$0A@@?$_Func_impl_no_alloc@V<lambda_1>@?1???$CreateBuilder@V?$SwitchNode@$02@BT@@$$V@BT@@YA?AV?$function@$$A6A?AV?$unique_ptr@VTreeNode@BT@@U?$default_delete@VTreeNode@BT@@@std@@@std@@AEBV?$basic_string@DU?$char_traits@D@std@@V?$allocator@D@2@@2@AEBUNodeConfig@BT@@@Z@std@@XZ@V?$unique_ptr@VTreeNode@BT@@U?$default_delete@VTreeNode@BT@@@std@@@4@AEBV?$basic_string@DU?$char_traits@D@std@@V?$allocator@D@2@@4@AEBUNodeConfig@2@@std@@QEAA@AEBV<lambda_1>@?1???$CreateBuilder@V?$SwitchNode@$02@BT@@$$V@BT@@YA?AV?$function@$$A6A?AV?$unique_ptr@VTreeNode@BT@@U?$default_delete@VTreeNode@BT@@@std@@@std@@AEBV?$basic_string@DU?$char_traits@D@std@@V?$allocator@D@2@@2@AEBUNodeConfig@BT@@@Z@1@XZ@@Z
	??$?0AEBV<lambda_1>@?1???$CreateBuilder@V?$SwitchNode@$03@BT@@$$V@BT@@YA?AV?$function@$$A6A?AV?$unique_ptr@VTreeNode@BT@@U?$default_delete@VTreeNode@BT@@@std@@@std@@AEBV?$basic_string@DU?$char_traits@D@std@@V?$allocator@D@2@@2@AEBUNodeConfig@BT@@@Z@std@@XZ@$0A@@?$_Func_impl_no_alloc@V<lambda_1>@?1???$CreateBuilder@V?$SwitchNode@$03@BT@@$$V@BT@@YA?AV?$function@$$A6A?AV?$unique_ptr@VTreeNode@BT@@U?$default_delete@VTreeNode@BT@@@std@@@std@@AEBV?$basic_string@DU?$char_traits@D@std@@V?$allocator@D@2@@2@AEBUNodeConfig@BT@@@Z@std@@XZ@V?$unique_ptr@VTreeNode@BT@@U?$default_delete@VTreeNode@BT@@@std@@@4@AEBV?$basic_string@DU?$char_traits@D@std@@V?$allocator@D@2@@4@AEBUNodeConfig@2@@std@@QEAA@AEBV<lambda_1>@?1???$CreateBuilder@V?$SwitchNode@$03@BT@@$$V@BT@@YA?AV?$function@$$A6A?AV?$unique_ptr@VTreeNode@BT@@U?$default_delete@VTreeNode@BT@@@std@@@std@@AEBV?$basic_string@DU?$char_traits@D@std@@V?$allocator@D@2@@2@AEBUNodeConfig@BT@@@Z@1@XZ@@Z
	??$?0AEBV<lambda_1>@?1???$CreateBuilder@V?$SwitchNode@$04@BT@@$$V@BT@@YA?AV?$function@$$A6A?AV?$unique_ptr@VTreeNode@BT@@U?$default_delete@VTreeNode@BT@@@std@@@std@@AEBV?$basic_string@DU?$char_traits@D@std@@V?$allocator@D@2@@2@AEBUNodeConfig@BT@@@Z@std@@XZ@$0A@@?$_Func_impl_no_alloc@V<lambda_1>@?1???$CreateBuilder@V?$SwitchNode@$04@BT@@$$V@BT@@YA?AV?$function@$$A6A?AV?$unique_ptr@VTreeNode@BT@@U?$default_delete@VTreeNode@BT@@@std@@@std@@AEBV?$basic_string@DU?$char_traits@D@std@@V?$allocator@D@2@@2@AEBUNodeConfig@BT@@@Z@std@@XZ@V?$unique_ptr@VTreeNode@BT@@U?$default_delete@VTreeNode@BT@@@std@@@4@AEBV?$basic_string@DU?$char_traits@D@std@@V?$allocator@D@2@@4@AEBUNodeConfig@2@@std@@QEAA@AEBV<lambda_1>@?1???$CreateBuilder@V?$SwitchNode@$04@BT@@$$V@BT@@YA?AV?$function@$$A6A?AV?$unique_ptr@VTreeNode@BT@@U?$default_delete@VTreeNode@BT@@@std@@@std@@AEBV?$basic_string@DU?$char_traits@D@std@@V?$allocator@D@2@@2@AEBUNodeConfig@BT@@@Z@1@XZ@@Z
	??$?0AEBV<lambda_1>@?1???$CreateBuilder@V?$SwitchNode@$05@BT@@$$V@BT@@YA?AV?$function@$$A6A?AV?$unique_ptr@VTreeNode@BT@@U?$default_delete@VTreeNode@BT@@@std@@@std@@AEBV?$basic_string@DU?$char_traits@D@std@@V?$allocator@D@2@@2@AEBUNodeConfig@BT@@@Z@std@@XZ@$0A@@?$_Func_impl_no_alloc@V<lambda_1>@?1???$CreateBuilder@V?$SwitchNode@$05@BT@@$$V@BT@@YA?AV?$function@$$A6A?AV?$unique_ptr@VTreeNode@BT@@U?$default_delete@VTreeNode@BT@@@std@@@std@@AEBV?$basic_string@DU?$char_traits@D@std@@V?$allocator@D@2@@2@AEBUNodeConfig@BT@@@Z@std@@XZ@V?$unique_ptr@VTreeNode@BT@@U?$default_delete@VTreeNode@BT@@@std@@@4@AEBV?$basic_string@DU?$char_traits@D@std@@V?$allocator@D@2@@4@AEBUNodeConfig@2@@std@@QEAA@AEBV<lambda_1>@?1???$CreateBuilder@V?$SwitchNode@$05@BT@@$$V@BT@@YA?AV?$function@$$A6A?AV?$unique_ptr@VTreeNode@BT@@U?$default_delete@VTreeNode@BT@@@std@@@std@@AEBV?$basic_string@DU?$char_traits@D@std@@V?$allocator@D@2@@2@AEBUNodeConfig@BT@@@Z@1@XZ@@Z
	??$?0AEBV<lambda_1>@?1???$CreateBuilder@V?$TimeoutNode@Usteady_clock@chrono@std@@V?$duration@_JU?$ratio@$00$0DLJKMKAA@@std@@@23@@BT@@$$V@BT@@YA?AV?$function@$$A6A?AV?$unique_ptr@VTreeNode@BT@@U?$default_delete@VTreeNode@BT@@@std@@@std@@AEBV?$basic_string@DU?$char_traits@D@std@@V?$allocator@D@2@@2@AEBUNodeConfig@BT@@@Z@std@@XZ@$0A@@?$_Func_impl_no_alloc@V<lambda_1>@?1???$CreateBuilder@V?$TimeoutNode@Usteady_clock@chrono@std@@V?$duration@_JU?$ratio@$00$0DLJKMKAA@@std@@@23@@BT@@$$V@BT@@YA?AV?$function@$$A6A?AV?$unique_ptr@VTreeNode@BT@@U?$default_delete@VTreeNode@BT@@@std@@@std@@AEBV?$basic_string@DU?$char_traits@D@std@@V?$allocator@D@2@@2@AEBUNodeConfig@BT@@@Z@std@@XZ@V?$unique_ptr@VTreeNode@BT@@U?$default_delete@VTreeNode@BT@@@std@@@4@AEBV?$basic_string@DU?$char_traits@D@std@@V?$allocator@D@2@@4@AEBUNodeConfig@2@@std@@QEAA@AEBV<lambda_1>@?1???$CreateBuilder@V?$TimeoutNode@Usteady_clock@chrono@std@@V?$duration@_JU?$ratio@$00$0DLJKMKAA@@std@@@23@@BT@@$$V@BT@@YA?AV?$function@$$A6A?AV?$unique_ptr@VTreeNode@BT@@U?$default_delete@VTreeNode@BT@@@std@@@std@@AEBV?$basic_string@DU?$char_traits@D@std@@V?$allocator@D@2@@2@AEBUNodeConfig@BT@@@Z@1@XZ@@Z
	??$?0AEBV<lambda_1>@?1???$CreateBuilder@VAlwaysFailureNode@BT@@$$V@BT@@YA?AV?$function@$$A6A?AV?$unique_ptr@VTreeNode@BT@@U?$default_delete@VTreeNode@BT@@@std@@@std@@AEBV?$basic_string@DU?$char_traits@D@std@@V?$allocator@D@2@@2@AEBUNodeConfig@BT@@@Z@std@@XZ@$0A@@?$_Func_impl_no_alloc@V<lambda_1>@?1???$CreateBuilder@VAlwaysFailureNode@BT@@$$V@BT@@YA?AV?$function@$$A6A?AV?$unique_ptr@VTreeNode@BT@@U?$default_delete@VTreeNode@BT@@@std@@@std@@AEBV?$basic_string@DU?$char_traits@D@std@@V?$allocator@D@2@@2@AEBUNodeConfig@BT@@@Z@std@@XZ@V?$unique_ptr@VTreeNode@BT@@U?$default_delete@VTreeNode@BT@@@std@@@4@AEBV?$basic_string@DU?$char_traits@D@std@@V?$allocator@D@2@@4@AEBUNodeConfig@2@@std@@QEAA@AEBV<lambda_1>@?1???$CreateBuilder@VAlwaysFailureNode@BT@@$$V@BT@@YA?AV?$function@$$A6A?AV?$unique_ptr@VTreeNode@BT@@U?$default_delete@VTreeNode@BT@@@std@@@std@@AEBV?$basic_string@DU?$char_traits@D@std@@V?$allocator@D@2@@2@AEBUNodeConfig@BT@@@Z@1@XZ@@Z
	??$?0AEBV<lambda_1>@?1???$CreateBuilder@VAlwaysSuccessNode@BT@@$$V@BT@@YA?AV?$function@$$A6A?AV?$unique_ptr@VTreeNode@BT@@U?$default_delete@VTreeNode@BT@@@std@@@std@@AEBV?$basic_string@DU?$char_traits@D@std@@V?$allocator@D@2@@2@AEBUNodeConfig@BT@@@Z@std@@XZ@$0A@@?$_Func_impl_no_alloc@V<lambda_1>@?1???$CreateBuilder@VAlwaysSuccessNode@BT@@$$V@BT@@YA?AV?$function@$$A6A?AV?$unique_ptr@VTreeNode@BT@@U?$default_delete@VTreeNode@BT@@@std@@@std@@AEBV?$basic_string@DU?$char_traits@D@std@@V?$allocator@D@2@@2@AEBUNodeConfig@BT@@@Z@std@@XZ@V?$unique_ptr@VTreeNode@BT@@U?$default_delete@VTreeNode@BT@@@std@@@4@AEBV?$basic_string@DU?$char_traits@D@std@@V?$allocator@D@2@@4@AEBUNodeConfig@2@@std@@QEAA@AEBV<lambda_1>@?1???$CreateBuilder@VAlwaysSuccessNode@BT@@$$V@BT@@YA?AV?$function@$$A6A?AV?$unique_ptr@VTreeNode@BT@@U?$default_delete@VTreeNode@BT@@@std@@@std@@AEBV?$basic_string@DU?$char_traits@D@std@@V?$allocator@D@2@@2@AEBUNodeConfig@BT@@@Z@1@XZ@@Z
	??$?0AEBV<lambda_1>@?1???$CreateBuilder@VDelayNode@BT@@$$V@BT@@YA?AV?$function@$$A6A?AV?$unique_ptr@VTreeNode@BT@@U?$default_delete@VTreeNode@BT@@@std@@@std@@AEBV?$basic_string@DU?$char_traits@D@std@@V?$allocator@D@2@@2@AEBUNodeConfig@BT@@@Z@std@@XZ@$0A@@?$_Func_impl_no_alloc@V<lambda_1>@?1???$CreateBuilder@VDelayNode@BT@@$$V@BT@@YA?AV?$function@$$A6A?AV?$unique_ptr@VTreeNode@BT@@U?$default_delete@VTreeNode@BT@@@std@@@std@@AEBV?$basic_string@DU?$char_traits@D@std@@V?$allocator@D@2@@2@AEBUNodeConfig@BT@@@Z@std@@XZ@V?$unique_ptr@VTreeNode@BT@@U?$default_delete@VTreeNode@BT@@@std@@@4@AEBV?$basic_string@DU?$char_traits@D@std@@V?$allocator@D@2@@4@AEBUNodeConfig@2@@std@@QEAA@AEBV<lambda_1>@?1???$CreateBuilder@VDelayNode@BT@@$$V@BT@@YA?AV?$function@$$A6A?AV?$unique_ptr@VTreeNode@BT@@U?$default_delete@VTreeNode@BT@@@std@@@std@@AEBV?$basic_string@DU?$char_traits@D@std@@V?$allocator@D@2@@2@AEBUNodeConfig@BT@@@Z@1@XZ@@Z
	??$?0AEBV<lambda_1>@?1???$CreateBuilder@VFallbackNode@BT@@$$V@BT@@YA?AV?$function@$$A6A?AV?$unique_ptr@VTreeNode@BT@@U?$default_delete@VTreeNode@BT@@@std@@@std@@AEBV?$basic_string@DU?$char_traits@D@std@@V?$allocator@D@2@@2@AEBUNodeConfig@BT@@@Z@std@@XZ@$0A@@?$_Func_impl_no_alloc@V<lambda_1>@?1???$CreateBuilder@VFallbackNode@BT@@$$V@BT@@YA?AV?$function@$$A6A?AV?$unique_ptr@VTreeNode@BT@@U?$default_delete@VTreeNode@BT@@@std@@@std@@AEBV?$basic_string@DU?$char_traits@D@std@@V?$allocator@D@2@@2@AEBUNodeConfig@BT@@@Z@std@@XZ@V?$unique_ptr@VTreeNode@BT@@U?$default_delete@VTreeNode@BT@@@std@@@4@AEBV?$basic_string@DU?$char_traits@D@std@@V?$allocator@D@2@@4@AEBUNodeConfig@2@@std@@QEAA@AEBV<lambda_1>@?1???$CreateBuilder@VFallbackNode@BT@@$$V@BT@@YA?AV?$function@$$A6A?AV?$unique_ptr@VTreeNode@BT@@U?$default_delete@VTreeNode@BT@@@std@@@std@@AEBV?$basic_string@DU?$char_traits@D@std@@V?$allocator@D@2@@2@AEBUNodeConfig@BT@@@Z@1@XZ@@Z
	??$?0AEBV<lambda_1>@?1???$CreateBuilder@VForceFailureNode@BT@@$$V@BT@@YA?AV?$function@$$A6A?AV?$unique_ptr@VTreeNode@BT@@U?$default_delete@VTreeNode@BT@@@std@@@std@@AEBV?$basic_string@DU?$char_traits@D@std@@V?$allocator@D@2@@2@AEBUNodeConfig@BT@@@Z@std@@XZ@$0A@@?$_Func_impl_no_alloc@V<lambda_1>@?1???$CreateBuilder@VForceFailureNode@BT@@$$V@BT@@YA?AV?$function@$$A6A?AV?$unique_ptr@VTreeNode@BT@@U?$default_delete@VTreeNode@BT@@@std@@@std@@AEBV?$basic_string@DU?$char_traits@D@std@@V?$allocator@D@2@@2@AEBUNodeConfig@BT@@@Z@std@@XZ@V?$unique_ptr@VTreeNode@BT@@U?$default_delete@VTreeNode@BT@@@std@@@4@AEBV?$basic_string@DU?$char_traits@D@std@@V?$allocator@D@2@@4@AEBUNodeConfig@2@@std@@QEAA@AEBV<lambda_1>@?1???$CreateBuilder@VForceFailureNode@BT@@$$V@BT@@YA?AV?$function@$$A6A?AV?$unique_ptr@VTreeNode@BT@@U?$default_delete@VTreeNode@BT@@@std@@@std@@AEBV?$basic_string@DU?$char_traits@D@std@@V?$allocator@D@2@@2@AEBUNodeConfig@BT@@@Z@1@XZ@@Z
	??$?0AEBV<lambda_1>@?1???$CreateBuilder@VForceSuccessNode@BT@@$$V@BT@@YA?AV?$function@$$A6A?AV?$unique_ptr@VTreeNode@BT@@U?$default_delete@VTreeNode@BT@@@std@@@std@@AEBV?$basic_string@DU?$char_traits@D@std@@V?$allocator@D@2@@2@AEBUNodeConfig@BT@@@Z@std@@XZ@$0A@@?$_Func_impl_no_alloc@V<lambda_1>@?1???$CreateBuilder@VForceSuccessNode@BT@@$$V@BT@@YA?AV?$function@$$A6A?AV?$unique_ptr@VTreeNode@BT@@U?$default_delete@VTreeNode@BT@@@std@@@std@@AEBV?$basic_string@DU?$char_traits@D@std@@V?$allocator@D@2@@2@AEBUNodeConfig@BT@@@Z@std@@XZ@V?$unique_ptr@VTreeNode@BT@@U?$default_delete@VTreeNode@BT@@@std@@@4@AEBV?$basic_string@DU?$char_traits@D@std@@V?$allocator@D@2@@4@AEBUNodeConfig@2@@std@@QEAA@AEBV<lambda_1>@?1???$CreateBuilder@VForceSuccessNode@BT@@$$V@BT@@YA?AV?$function@$$A6A?AV?$unique_ptr@VTreeNode@BT@@U?$default_delete@VTreeNode@BT@@@std@@@std@@AEBV?$basic_string@DU?$char_traits@D@std@@V?$allocator@D@2@@2@AEBUNodeConfig@BT@@@Z@1@XZ@@Z
	??$?0AEBV<lambda_1>@?1???$CreateBuilder@VIfThenElseNode@BT@@$$V@BT@@YA?AV?$function@$$A6A?AV?$unique_ptr@VTreeNode@BT@@U?$default_delete@VTreeNode@BT@@@std@@@std@@AEBV?$basic_string@DU?$char_traits@D@std@@V?$allocator@D@2@@2@AEBUNodeConfig@BT@@@Z@std@@XZ@$0A@@?$_Func_impl_no_alloc@V<lambda_1>@?1???$CreateBuilder@VIfThenElseNode@BT@@$$V@BT@@YA?AV?$function@$$A6A?AV?$unique_ptr@VTreeNode@BT@@U?$default_delete@VTreeNode@BT@@@std@@@std@@AEBV?$basic_string@DU?$char_traits@D@std@@V?$allocator@D@2@@2@AEBUNodeConfig@BT@@@Z@std@@XZ@V?$unique_ptr@VTreeNode@BT@@U?$default_delete@VTreeNode@BT@@@std@@@4@AEBV?$basic_string@DU?$char_traits@D@std@@V?$allocator@D@2@@4@AEBUNodeConfig@2@@std@@QEAA@AEBV<lambda_1>@?1???$CreateBuilder@VIfThenElseNode@BT@@$$V@BT@@YA?AV?$function@$$A6A?AV?$unique_ptr@VTreeNode@BT@@U?$default_delete@VTreeNode@BT@@@std@@@std@@AEBV?$basic_string@DU?$char_traits@D@std@@V?$allocator@D@2@@2@AEBUNodeConfig@BT@@@Z@1@XZ@@Z
	??$?0AEBV<lambda_1>@?1???$CreateBuilder@VInverterNode@BT@@$$V@BT@@YA?AV?$function@$$A6A?AV?$unique_ptr@VTreeNode@BT@@U?$default_delete@VTreeNode@BT@@@std@@@std@@AEBV?$basic_string@DU?$char_traits@D@std@@V?$allocator@D@2@@2@AEBUNodeConfig@BT@@@Z@std@@XZ@$0A@@?$_Func_impl_no_alloc@V<lambda_1>@?1???$CreateBuilder@VInverterNode@BT@@$$V@BT@@YA?AV?$function@$$A6A?AV?$unique_ptr@VTreeNode@BT@@U?$default_delete@VTreeNode@BT@@@std@@@std@@AEBV?$basic_string@DU?$char_traits@D@std@@V?$allocator@D@2@@2@AEBUNodeConfig@BT@@@Z@std@@XZ@V?$unique_ptr@VTreeNode@BT@@U?$default_delete@VTreeNode@BT@@@std@@@4@AEBV?$basic_string@DU?$char_traits@D@std@@V?$allocator@D@2@@4@AEBUNodeConfig@2@@std@@QEAA@AEBV<lambda_1>@?1???$CreateBuilder@VInverterNode@BT@@$$V@BT@@YA?AV?$function@$$A6A?AV?$unique_ptr@VTreeNode@BT@@U?$default_delete@VTreeNode@BT@@@std@@@std@@AEBV?$basic_string@DU?$char_traits@D@std@@V?$allocator@D@2@@2@AEBUNodeConfig@BT@@@Z@1@XZ@@Z
	??$?0AEBV<lambda_1>@?1???$CreateBuilder@VKeepRunningUntilFailureNode@BT@@$$V@BT@@YA?AV?$function@$$A6A?AV?$unique_ptr@VTreeNode@BT@@U?$default_delete@VTreeNode@BT@@@std@@@std@@AEBV?$basic_string@DU?$char_traits@D@std@@V?$allocator@D@2@@2@AEBUNodeConfig@BT@@@Z@std@@XZ@$0A@@?$_Func_impl_no_alloc@V<lambda_1>@?1???$CreateBuilder@VKeepRunningUntilFailureNode@BT@@$$V@BT@@YA?AV?$function@$$A6A?AV?$unique_ptr@VTreeNode@BT@@U?$default_delete@VTreeNode@BT@@@std@@@std@@AEBV?$basic_string@DU?$char_traits@D@std@@V?$allocator@D@2@@2@AEBUNodeConfig@BT@@@Z@std@@XZ@V?$unique_ptr@VTreeNode@BT@@U?$default_delete@VTreeNode@BT@@@std@@@4@AEBV?$basic_string@DU?$char_traits@D@std@@V?$allocator@D@2@@4@AEBUNodeConfig@2@@std@@QEAA@AEBV<lambda_1>@?1???$CreateBuilder@VKeepRunningUntilFailureNode@BT@@$$V@BT@@YA?AV?$function@$$A6A?AV?$unique_ptr@VTreeNode@BT@@U?$default_delete@VTreeNode@BT@@@std@@@std@@AEBV?$basic_string@DU?$char_traits@D@std@@V?$allocator@D@2@@2@AEBUNodeConfig@BT@@@Z@1@XZ@@Z
	??$?0AEBV<lambda_1>@?1???$CreateBuilder@VParallelNode@BT@@$$V@BT@@YA?AV?$function@$$A6A?AV?$unique_ptr@VTreeNode@BT@@U?$default_delete@VTreeNode@BT@@@std@@@std@@AEBV?$basic_string@DU?$char_traits@D@std@@V?$allocator@D@2@@2@AEBUNodeConfig@BT@@@Z@std@@XZ@$0A@@?$_Func_impl_no_alloc@V<lambda_1>@?1???$CreateBuilder@VParallelNode@BT@@$$V@BT@@YA?AV?$function@$$A6A?AV?$unique_ptr@VTreeNode@BT@@U?$default_delete@VTreeNode@BT@@@std@@@std@@AEBV?$basic_string@DU?$char_traits@D@std@@V?$allocator@D@2@@2@AEBUNodeConfig@BT@@@Z@std@@XZ@V?$unique_ptr@VTreeNode@BT@@U?$default_delete@VTreeNode@BT@@@std@@@4@AEBV?$basic_string@DU?$char_traits@D@std@@V?$allocator@D@2@@4@AEBUNodeConfig@2@@std@@QEAA@AEBV<lambda_1>@?1???$CreateBuilder@VParallelNode@BT@@$$V@BT@@YA?AV?$function@$$A6A?AV?$unique_ptr@VTreeNode@BT@@U?$default_delete@VTreeNode@BT@@@std@@@std@@AEBV?$basic_string@DU?$char_traits@D@std@@V?$allocator@D@2@@2@AEBUNodeConfig@BT@@@Z@1@XZ@@Z
	??$?0AEBV<lambda_1>@?1???$CreateBuilder@VPreconditionNode@BT@@$$V@BT@@YA?AV?$function@$$A6A?AV?$unique_ptr@VTreeNode@BT@@U?$default_delete@VTreeNode@BT@@@std@@@std@@AEBV?$basic_string@DU?$char_traits@D@std@@V?$allocator@D@2@@2@AEBUNodeConfig@BT@@@Z@std@@XZ@$0A@@?$_Func_impl_no_alloc@V<lambda_1>@?1???$CreateBuilder@VPreconditionNode@BT@@$$V@BT@@YA?AV?$function@$$A6A?AV?$unique_ptr@VTreeNode@BT@@U?$default_delete@VTreeNode@BT@@@std@@@std@@AEBV?$basic_string@DU?$char_traits@D@std@@V?$allocator@D@2@@2@AEBUNodeConfig@BT@@@Z@std@@XZ@V?$unique_ptr@VTreeNode@BT@@U?$default_delete@VTreeNode@BT@@@std@@@4@AEBV?$basic_string@DU?$char_traits@D@std@@V?$allocator@D@2@@4@AEBUNodeConfig@2@@std@@QEAA@AEBV<lambda_1>@?1???$CreateBuilder@VPreconditionNode@BT@@$$V@BT@@YA?AV?$function@$$A6A?AV?$unique_ptr@VTreeNode@BT@@U?$default_delete@VTreeNode@BT@@@std@@@std@@AEBV?$basic_string@DU?$char_traits@D@std@@V?$allocator@D@2@@2@AEBUNodeConfig@BT@@@Z@1@XZ@@Z
	??$?0AEBV<lambda_1>@?1???$CreateBuilder@VReactiveFallback@BT@@$$V@BT@@YA?AV?$function@$$A6A?AV?$unique_ptr@VTreeNode@BT@@U?$default_delete@VTreeNode@BT@@@std@@@std@@AEBV?$basic_string@DU?$char_traits@D@std@@V?$allocator@D@2@@2@AEBUNodeConfig@BT@@@Z@std@@XZ@$0A@@?$_Func_impl_no_alloc@V<lambda_1>@?1???$CreateBuilder@VReactiveFallback@BT@@$$V@BT@@YA?AV?$function@$$A6A?AV?$unique_ptr@VTreeNode@BT@@U?$default_delete@VTreeNode@BT@@@std@@@std@@AEBV?$basic_string@DU?$char_traits@D@std@@V?$allocator@D@2@@2@AEBUNodeConfig@BT@@@Z@std@@XZ@V?$unique_ptr@VTreeNode@BT@@U?$default_delete@VTreeNode@BT@@@std@@@4@AEBV?$basic_string@DU?$char_traits@D@std@@V?$allocator@D@2@@4@AEBUNodeConfig@2@@std@@QEAA@AEBV<lambda_1>@?1???$CreateBuilder@VReactiveFallback@BT@@$$V@BT@@YA?AV?$function@$$A6A?AV?$unique_ptr@VTreeNode@BT@@U?$default_delete@VTreeNode@BT@@@std@@@std@@AEBV?$basic_string@DU?$char_traits@D@std@@V?$allocator@D@2@@2@AEBUNodeConfig@BT@@@Z@1@XZ@@Z
	??$?0AEBV<lambda_1>@?1???$CreateBuilder@VReactiveSequence@BT@@$$V@BT@@YA?AV?$function@$$A6A?AV?$unique_ptr@VTreeNode@BT@@U?$default_delete@VTreeNode@BT@@@std@@@std@@AEBV?$basic_string@DU?$char_traits@D@std@@V?$allocator@D@2@@2@AEBUNodeConfig@BT@@@Z@std@@XZ@$0A@@?$_Func_impl_no_alloc@V<lambda_1>@?1???$CreateBuilder@VReactiveSequence@BT@@$$V@BT@@YA?AV?$function@$$A6A?AV?$unique_ptr@VTreeNode@BT@@U?$default_delete@VTreeNode@BT@@@std@@@std@@AEBV?$basic_string@DU?$char_traits@D@std@@V?$allocator@D@2@@2@AEBUNodeConfig@BT@@@Z@std@@XZ@V?$unique_ptr@VTreeNode@BT@@U?$default_delete@VTreeNode@BT@@@std@@@4@AEBV?$basic_string@DU?$char_traits@D@std@@V?$allocator@D@2@@4@AEBUNodeConfig@2@@std@@QEAA@AEBV<lambda_1>@?1???$CreateBuilder@VReactiveSequence@BT@@$$V@BT@@YA?AV?$function@$$A6A?AV?$unique_ptr@VTreeNode@BT@@U?$default_delete@VTreeNode@BT@@@std@@@std@@AEBV?$basic_string@DU?$char_traits@D@std@@V?$allocator@D@2@@2@AEBUNodeConfig@BT@@@Z@1@XZ@@Z
	??$?0AEBV<lambda_1>@?1???$CreateBuilder@VRepeatNode@BT@@$$V@BT@@YA?AV?$function@$$A6A?AV?$unique_ptr@VTreeNode@BT@@U?$default_delete@VTreeNode@BT@@@std@@@std@@AEBV?$basic_string@DU?$char_traits@D@std@@V?$allocator@D@2@@2@AEBUNodeConfig@BT@@@Z@std@@XZ@$0A@@?$_Func_impl_no_alloc@V<lambda_1>@?1???$CreateBuilder@VRepeatNode@BT@@$$V@BT@@YA?AV?$function@$$A6A?AV?$unique_ptr@VTreeNode@BT@@U?$default_delete@VTreeNode@BT@@@std@@@std@@AEBV?$basic_string@DU?$char_traits@D@std@@V?$allocator@D@2@@2@AEBUNodeConfig@BT@@@Z@std@@XZ@V?$unique_ptr@VTreeNode@BT@@U?$default_delete@VTreeNode@BT@@@std@@@4@AEBV?$basic_string@DU?$char_traits@D@std@@V?$allocator@D@2@@4@AEBUNodeConfig@2@@std@@QEAA@AEBV<lambda_1>@?1???$CreateBuilder@VRepeatNode@BT@@$$V@BT@@YA?AV?$function@$$A6A?AV?$unique_ptr@VTreeNode@BT@@U?$default_delete@VTreeNode@BT@@@std@@@std@@AEBV?$basic_string@DU?$char_traits@D@std@@V?$allocator@D@2@@2@AEBUNodeConfig@BT@@@Z@1@XZ@@Z
	??$?0AEBV<lambda_1>@?1???$CreateBuilder@VRetryNode@BT@@$$V@BT@@YA?AV?$function@$$A6A?AV?$unique_ptr@VTreeNode@BT@@U?$default_delete@VTreeNode@BT@@@std@@@std@@AEBV?$basic_string@DU?$char_traits@D@std@@V?$allocator@D@2@@2@AEBUNodeConfig@BT@@@Z@std@@XZ@$0A@@?$_Func_impl_no_alloc@V<lambda_1>@?1???$CreateBuilder@VRetryNode@BT@@$$V@BT@@YA?AV?$function@$$A6A?AV?$unique_ptr@VTreeNode@BT@@U?$default_delete@VTreeNode@BT@@@std@@@std@@AEBV?$basic_string@DU?$char_traits@D@std@@V?$allocator@D@2@@2@AEBUNodeConfig@BT@@@Z@std@@XZ@V?$unique_ptr@VTreeNode@BT@@U?$default_delete@VTreeNode@BT@@@std@@@4@AEBV?$basic_string@DU?$char_traits@D@std@@V?$allocator@D@2@@4@AEBUNodeConfig@2@@std@@QEAA@AEBV<lambda_1>@?1???$CreateBuilder@VRetryNode@BT@@$$V@BT@@YA?AV?$function@$$A6A?AV?$unique_ptr@VTreeNode@BT@@U?$default_delete@VTreeNode@BT@@@std@@@std@@AEBV?$basic_string@DU?$char_traits@D@std@@V?$allocator@D@2@@2@AEBUNodeConfig@BT@@@Z@1@XZ@@Z
	??$?0AEBV<lambda_1>@?1???$CreateBuilder@VScriptNode@BT@@$$V@BT@@YA?AV?$function@$$A6A?AV?$unique_ptr@VTreeNode@BT@@U?$default_delete@VTreeNode@BT@@@std@@@std@@AEBV?$basic_string@DU?$char_traits@D@std@@V?$allocator@D@2@@2@AEBUNodeConfig@BT@@@Z@std@@XZ@$0A@@?$_Func_impl_no_alloc@V<lambda_1>@?1???$CreateBuilder@VScriptNode@BT@@$$V@BT@@YA?AV?$function@$$A6A?AV?$unique_ptr@VTreeNode@BT@@U?$default_delete@VTreeNode@BT@@@std@@@std@@AEBV?$basic_string@DU?$char_traits@D@std@@V?$allocator@D@2@@2@AEBUNodeConfig@BT@@@Z@std@@XZ@V?$unique_ptr@VTreeNode@BT@@U?$default_delete@VTreeNode@BT@@@std@@@4@AEBV?$basic_string@DU?$char_traits@D@std@@V?$allocator@D@2@@4@AEBUNodeConfig@2@@std@@QEAA@AEBV<lambda_1>@?1???$CreateBuilder@VScriptNode@BT@@$$V@BT@@YA?AV?$function@$$A6A?AV?$unique_ptr@VTreeNode@BT@@U?$default_delete@VTreeNode@BT@@@std@@@std@@AEBV?$basic_string@DU?$char_traits@D@std@@V?$allocator@D@2@@2@AEBUNodeConfig@BT@@@Z@1@XZ@@Z
	??$?0AEBV<lambda_1>@?1???$CreateBuilder@VSequenceNode@BT@@$$V@BT@@YA?AV?$function@$$A6A?AV?$unique_ptr@VTreeNode@BT@@U?$default_delete@VTreeNode@BT@@@std@@@std@@AEBV?$basic_string@DU?$char_traits@D@std@@V?$allocator@D@2@@2@AEBUNodeConfig@BT@@@Z@std@@XZ@$0A@@?$_Func_impl_no_alloc@V<lambda_1>@?1???$CreateBuilder@VSequenceNode@BT@@$$V@BT@@YA?AV?$function@$$A6A?AV?$unique_ptr@VTreeNode@BT@@U?$default_delete@VTreeNode@BT@@@std@@@std@@AEBV?$basic_string@DU?$char_traits@D@std@@V?$allocator@D@2@@2@AEBUNodeConfig@BT@@@Z@std@@XZ@V?$unique_ptr@VTreeNode@BT@@U?$default_delete@VTreeNode@BT@@@std@@@4@AEBV?$basic_string@DU?$char_traits@D@std@@V?$allocator@D@2@@4@AEBUNodeConfig@2@@std@@QEAA@AEBV<lambda_1>@?1???$CreateBuilder@VSequenceNode@BT@@$$V@BT@@YA?AV?$function@$$A6A?AV?$unique_ptr@VTreeNode@BT@@U?$default_delete@VTreeNode@BT@@@std@@@std@@AEBV?$basic_string@DU?$char_traits@D@std@@V?$allocator@D@2@@2@AEBUNodeConfig@BT@@@Z@1@XZ@@Z
	??$?0AEBV<lambda_1>@?1???$CreateBuilder@VSequenceWithMemory@BT@@$$V@BT@@YA?AV?$function@$$A6A?AV?$unique_ptr@VTreeNode@BT@@U?$default_delete@VTreeNode@BT@@@std@@@std@@AEBV?$basic_string@DU?$char_traits@D@std@@V?$allocator@D@2@@2@AEBUNodeConfig@BT@@@Z@std@@XZ@$0A@@?$_Func_impl_no_alloc@V<lambda_1>@?1???$CreateBuilder@VSequenceWithMemory@BT@@$$V@BT@@YA?AV?$function@$$A6A?AV?$unique_ptr@VTreeNode@BT@@U?$default_delete@VTreeNode@BT@@@std@@@std@@AEBV?$basic_string@DU?$char_traits@D@std@@V?$allocator@D@2@@2@AEBUNodeConfig@BT@@@Z@std@@XZ@V?$unique_ptr@VTreeNode@BT@@U?$default_delete@VTreeNode@BT@@@std@@@4@AEBV?$basic_string@DU?$char_traits@D@std@@V?$allocator@D@2@@4@AEBUNodeConfig@2@@std@@QEAA@AEBV<lambda_1>@?1???$CreateBuilder@VSequenceWithMemory@BT@@$$V@BT@@YA?AV?$function@$$A6A?AV?$unique_ptr@VTreeNode@BT@@U?$default_delete@VTreeNode@BT@@@std@@@std@@AEBV?$basic_string@DU?$char_traits@D@std@@V?$allocator@D@2@@2@AEBUNodeConfig@BT@@@Z@1@XZ@@Z
	??$?0AEBV<lambda_1>@?1???$CreateBuilder@VSetBlackboard@BT@@$$V@BT@@YA?AV?$function@$$A6A?AV?$unique_ptr@VTreeNode@BT@@U?$default_delete@VTreeNode@BT@@@std@@@std@@AEBV?$basic_string@DU?$char_traits@D@std@@V?$allocator@D@2@@2@AEBUNodeConfig@BT@@@Z@std@@XZ@$0A@@?$_Func_impl_no_alloc@V<lambda_1>@?1???$CreateBuilder@VSetBlackboard@BT@@$$V@BT@@YA?AV?$function@$$A6A?AV?$unique_ptr@VTreeNode@BT@@U?$default_delete@VTreeNode@BT@@@std@@@std@@AEBV?$basic_string@DU?$char_traits@D@std@@V?$allocator@D@2@@2@AEBUNodeConfig@BT@@@Z@std@@XZ@V?$unique_ptr@VTreeNode@BT@@U?$default_delete@VTreeNode@BT@@@std@@@4@AEBV?$basic_string@DU?$char_traits@D@std@@V?$allocator@D@2@@4@AEBUNodeConfig@2@@std@@QEAA@AEBV<lambda_1>@?1???$CreateBuilder@VSetBlackboard@BT@@$$V@BT@@YA?AV?$function@$$A6A?AV?$unique_ptr@VTreeNode@BT@@U?$default_delete@VTreeNode@BT@@@std@@@std@@AEBV?$basic_string@DU?$char_traits@D@std@@V?$allocator@D@2@@2@AEBUNodeConfig@BT@@@Z@1@XZ@@Z
	??$?0AEBV<lambda_1>@?1???$CreateBuilder@VSubTreeNode@BT@@$$V@BT@@YA?AV?$function@$$A6A?AV?$unique_ptr@VTreeNode@BT@@U?$default_delete@VTreeNode@BT@@@std@@@std@@AEBV?$basic_string@DU?$char_traits@D@std@@V?$allocator@D@2@@2@AEBUNodeConfig@BT@@@Z@std@@XZ@$0A@@?$_Func_impl_no_alloc@V<lambda_1>@?1???$CreateBuilder@VSubTreeNode@BT@@$$V@BT@@YA?AV?$function@$$A6A?AV?$unique_ptr@VTreeNode@BT@@U?$default_delete@VTreeNode@BT@@@std@@@std@@AEBV?$basic_string@DU?$char_traits@D@std@@V?$allocator@D@2@@2@AEBUNodeConfig@BT@@@Z@std@@XZ@V?$unique_ptr@VTreeNode@BT@@U?$default_delete@VTreeNode@BT@@@std@@@4@AEBV?$basic_string@DU?$char_traits@D@std@@V?$allocator@D@2@@4@AEBUNodeConfig@2@@std@@QEAA@AEBV<lambda_1>@?1???$CreateBuilder@VSubTreeNode@BT@@$$V@BT@@YA?AV?$function@$$A6A?AV?$unique_ptr@VTreeNode@BT@@U?$default_delete@VTreeNode@BT@@@std@@@std@@AEBV?$basic_string@DU?$char_traits@D@std@@V?$allocator@D@2@@2@AEBUNodeConfig@BT@@@Z@1@XZ@@Z
	??$?0AEBV<lambda_1>@?1???$CreateBuilder@VWhileDoElseNode@BT@@$$V@BT@@YA?AV?$function@$$A6A?AV?$unique_ptr@VTreeNode@BT@@U?$default_delete@VTreeNode@BT@@@std@@@std@@AEBV?$basic_string@DU?$char_traits@D@std@@V?$allocator@D@2@@2@AEBUNodeConfig@BT@@@Z@std@@XZ@$0A@@?$_Func_impl_no_alloc@V<lambda_1>@?1???$CreateBuilder@VWhileDoElseNode@BT@@$$V@BT@@YA?AV?$function@$$A6A?AV?$unique_ptr@VTreeNode@BT@@U?$default_delete@VTreeNode@BT@@@std@@@std@@AEBV?$basic_string@DU?$char_traits@D@std@@V?$allocator@D@2@@2@AEBUNodeConfig@BT@@@Z@std@@XZ@V?$unique_ptr@VTreeNode@BT@@U?$default_delete@VTreeNode@BT@@@std@@@4@AEBV?$basic_string@DU?$char_traits@D@std@@V?$allocator@D@2@@4@AEBUNodeConfig@2@@std@@QEAA@AEBV<lambda_1>@?1???$CreateBuilder@VWhileDoElseNode@BT@@$$V@BT@@YA?AV?$function@$$A6A?AV?$unique_ptr@VTreeNode@BT@@U?$default_delete@VTreeNode@BT@@@std@@@std@@AEBV?$basic_string@DU?$char_traits@D@std@@V?$allocator@D@2@@2@AEBUNodeConfig@BT@@@Z@1@XZ@@Z
	??$?0AEBV<lambda_1>@?1???$GetAnyFromStringFunctor@H@BT@@YA?AV?$function@$$A6A?AVAny@BT@@V?$basic_string_view@DU?$char_traits@D@std@@@std@@@Z@std@@XZ@$0A@@?$_Func_impl_no_alloc@V<lambda_1>@?1???$GetAnyFromStringFunctor@H@BT@@YA?AV?$function@$$A6A?AVAny@BT@@V?$basic_string_view@DU?$char_traits@D@std@@@std@@@Z@std@@XZ@VAny@2@V?$basic_string_view@DU?$char_traits@D@std@@@4@@std@@QEAA@AEBV<lambda_1>@?1???$GetAnyFromStringFunctor@H@BT@@YA?AV?$function@$$A6A?AVAny@BT@@V?$basic_string_view@DU?$char_traits@D@std@@@std@@@Z@1@XZ@@Z
	??$?0AEBV<lambda_1>@?1???$GetAnyFromStringFunctor@I@BT@@YA?AV?$function@$$A6A?AVAny@BT@@V?$basic_string_view@DU?$char_traits@D@std@@@std@@@Z@std@@XZ@$0A@@?$_Func_impl_no_alloc@V<lambda_1>@?1???$GetAnyFromStringFunctor@I@BT@@YA?AV?$function@$$A6A?AVAny@BT@@V?$basic_string_view@DU?$char_traits@D@std@@@std@@@Z@std@@XZ@VAny@2@V?$basic_string_view@DU?$char_traits@D@std@@@4@@std@@QEAA@AEBV<lambda_1>@?1???$GetAnyFromStringFunctor@I@BT@@YA?AV?$function@$$A6A?AVAny@BT@@V?$basic_string_view@DU?$char_traits@D@std@@@std@@@Z@1@XZ@@Z
	??$?0AEBV<lambda_1>@?1???$GetAnyFromStringFunctor@V?$basic_string@DU?$char_traits@D@std@@V?$allocator@D@2@@std@@@BT@@YA?AV?$function@$$A6A?AVAny@BT@@V?$basic_string_view@DU?$char_traits@D@std@@@std@@@Z@std@@XZ@$0A@@?$_Func_impl_no_alloc@V<lambda_1>@?1???$GetAnyFromStringFunctor@V?$basic_string@DU?$char_traits@D@std@@V?$allocator@D@2@@std@@@BT@@YA?AV?$function@$$A6A?AVAny@BT@@V?$basic_string_view@DU?$char_traits@D@std@@@std@@@Z@std@@XZ@VAny@2@V?$basic_string_view@DU?$char_traits@D@std@@@4@@std@@QEAA@AEBV<lambda_1>@?1???$GetAnyFromStringFunctor@V?$basic_string@DU?$char_traits@D@std@@V?$allocator@D@2@@std@@@BT@@YA?AV?$function@$$A6A?AVAny@BT@@V?$basic_string_view@DU?$char_traits@D@std@@@std@@@Z@1@XZ@@Z
	??$?0AEBV<lambda_1>@?1???$GetAnyFromStringFunctor@W4NodeStatus@BT@@@BT@@YA?AV?$function@$$A6A?AVAny@BT@@V?$basic_string_view@DU?$char_traits@D@std@@@std@@@Z@std@@XZ@$0A@@?$_Func_impl_no_alloc@V<lambda_1>@?1???$GetAnyFromStringFunctor@W4NodeStatus@BT@@@BT@@YA?AV?$function@$$A6A?AVAny@BT@@V?$basic_string_view@DU?$char_traits@D@std@@@std@@@Z@std@@XZ@VAny@2@V?$basic_string_view@DU?$char_traits@D@std@@@4@@std@@QEAA@AEBV<lambda_1>@?1???$GetAnyFromStringFunctor@W4NodeStatus@BT@@@BT@@YA?AV?$function@$$A6A?AVAny@BT@@V?$basic_string_view@DU?$char_traits@D@std@@@std@@@Z@1@XZ@@Z
	??$?0AEBV<lambda_1>@?1???$GetAnyFromStringFunctor@_N@BT@@YA?AV?$function@$$A6A?AVAny@BT@@V?$basic_string_view@DU?$char_traits@D@std@@@std@@@Z@std@@XZ@$0A@@?$_Func_impl_no_alloc@V<lambda_1>@?1???$GetAnyFromStringFunctor@_N@BT@@YA?AV?$function@$$A6A?AVAny@BT@@V?$basic_string_view@DU?$char_traits@D@std@@@std@@@Z@std@@XZ@VAny@2@V?$basic_string_view@DU?$char_traits@D@std@@@4@@std@@QEAA@AEBV<lambda_1>@?1???$GetAnyFromStringFunctor@_N@BT@@YA?AV?$function@$$A6A?AVAny@BT@@V?$basic_string_view@DU?$char_traits@D@std@@@std@@@Z@1@XZ@@Z
	??$?0AEBV<lambda_1>@?1???0StatusChangeLogger@BT@@QEAA@PEAVTreeNode@2@@Z@$0A@@?$_Func_impl_no_alloc@V<lambda_1>@?1???0StatusChangeLogger@BT@@QEAA@PEAVTreeNode@3@@Z@XV?$time_point@Usteady_clock@chrono@std@@V?$duration@_JU?$ratio@$00$0DLJKMKAA@@std@@@23@@chrono@std@@AEBV43@W4NodeStatus@3@W483@@std@@QEAA@AEBV<lambda_1>@?1???0StatusChangeLogger@BT@@QEAA@PEAVTreeNode@4@@Z@@Z
	??$?0AEBV<lambda_1>@?1???1?$TimerQueue@Usteady_clock@chrono@std@@V?$duration@_JU?$ratio@$00$0DLJKMKAA@@std@@@23@@BT@@QEAA@XZ@$0A@@?$_Func_impl_no_alloc@V<lambda_1>@?1???1?$TimerQueue@Usteady_clock@chrono@std@@V?$duration@_JU?$ratio@$00$0DLJKMKAA@@std@@@23@@BT@@QEAA@XZ@X_N@std@@QEAA@AEBV<lambda_1>@?1???1?$TimerQueue@Usteady_clock@chrono@std@@V?$duration@_JU?$ratio@$00$0DLJKMKAA@@std@@@23@@BT@@QEAA@XZ@@Z
	??$?0AEBV<lambda_1>@?1??CreateFlatbuffersBehaviorTree@BT@@YAXAEAVFlatBufferBuilder@flatbuffers@@AEBVTree@2@@Z@$0A@@?$_Func_impl_no_alloc@V<lambda_1>@?1??CreateFlatbuffersBehaviorTree@BT@@YAXAEAVFlatBufferBuilder@flatbuffers@@AEBVTree@3@@Z@XPEAVTreeNode@3@@std@@QEAA@AEBV<lambda_1>@?1??CreateFlatbuffersBehaviorTree@BT@@YAXAEAVFlatBufferBuilder@flatbuffers@@AEBVTree@4@@Z@@Z
	??$?0AEBV<lambda_1>@?1??_MakeVoidToUnitFunc@details@Concurrency@@YA?AV?$function@$$A6AEXZ@std@@AEBV?$function@$$A6AXXZ@5@@Z@$0A@@?$_Func_impl_no_alloc@V<lambda_1>@?1??_MakeVoidToUnitFunc@details@Concurrency@@YA?AV?$function@$$A6AEXZ@std@@AEBV?$function@$$A6AXXZ@6@@Z@E$$V@std@@QEAA@AEBV<lambda_1>@?1??_MakeVoidToUnitFunc@details@Concurrency@@YA?AV?$function@$$A6AEXZ@1@AEBV?$function@$$A6AXXZ@1@@Z@@Z
	??$?0AEBV<lambda_1>@?1??haltTree@Tree@BT@@QEAAXXZ@$0A@@?$_Func_impl_no_alloc@V<lambda_1>@?1??haltTree@Tree@BT@@QEAAXXZ@XPEAVTreeNode@4@@std@@QEAA@AEBV<lambda_1>@?1??haltTree@Tree@BT@@QEAAXXZ@@Z
	??$?0AEBV<lambda_1>@?4??_ScheduleContinuationTask@_Task_impl_base@details@Concurrency@@QEAAXPEAU_ContinuationTaskHandleBase@34@@Z@$0A@@?$_Func_impl_no_alloc@V<lambda_1>@?4??_ScheduleContinuationTask@_Task_impl_base@details@Concurrency@@QEAAXPEAU_ContinuationTaskHandleBase@45@@Z@X$$V@std@@QEAA@AEBV<lambda_1>@?4??_ScheduleContinuationTask@_Task_impl_base@details@Concurrency@@QEAAXPEAU_ContinuationTaskHandleBase@56@@Z@@Z
	??$?0AEBV<lambda_1>@?7???R0?4??_ScheduleContinuationTask@_Task_impl_base@details@Concurrency@@QEAAXPEAU_ContinuationTaskHandleBase@34@@Z@QEBA@XZ@$0A@@?$_Func_impl_no_alloc@V<lambda_1>@?7???R1?4??_ScheduleContinuationTask@_Task_impl_base@details@Concurrency@@QEAAXPEAU_ContinuationTaskHandleBase@45@@Z@QEBA@XZ@X$$V@std@@QEAA@AEBV<lambda_1>@?7???R2?4??_ScheduleContinuationTask@_Task_impl_base@details@Concurrency@@QEAAXPEAU_ContinuationTaskHandleBase@56@@Z@QEBA@XZ@@Z
	??$?0AEBV<lambda_1>@?CC@??_CancelAndRunContinuations@?$_Task_impl@E@details@Concurrency@@UEAA_N_N00AEBV?$shared_ptr@U_ExceptionHolder@details@Concurrency@@@std@@@Z@$0A@@?$_Func_impl_no_alloc@V<lambda_1>@?CC@??_CancelAndRunContinuations@?$_Task_impl@E@details@Concurrency@@UEAA_N_N00AEBV?$shared_ptr@U_ExceptionHolder@details@Concurrency@@@std@@@Z@X$$V@std@@QEAA@AEBV<lambda_1>@?CC@??_CancelAndRunContinuations@?$_Task_impl@E@details@Concurrency@@UEAA_N_N00AEBV?$shared_ptr@U_ExceptionHolder@details@Concurrency@@@1@@Z@@Z
	??$?0AEBV<lambda_1>@?O@??tick@?$TimeoutNode@Usteady_clock@chrono@std@@V?$duration@_JU?$ratio@$00$0DLJKMKAA@@std@@@23@@BT@@EEAA?AW4NodeStatus@3@XZ@$0A@@?$_Func_impl_no_alloc@V<lambda_1>@?O@??tick@?$TimeoutNode@Usteady_clock@chrono@std@@V?$duration@_JU?$ratio@$00$0DLJKMKAA@@std@@@23@@BT@@EEAA?AW4NodeStatus@4@XZ@X_N@std@@QEAA@AEBV<lambda_1>@?O@??tick@?$TimeoutNode@Usteady_clock@chrono@std@@V?$duration@_JU?$ratio@$00$0DLJKMKAA@@std@@@23@@BT@@EEAA?AW4NodeStatus@5@XZ@@Z
	??$?0AEBV<lambda_2>@?1???0StatusChangeLogger@BT@@QEAA@PEAVTreeNode@2@@Z@$0A@@?$_Func_impl_no_alloc@V<lambda_2>@?1???0StatusChangeLogger@BT@@QEAA@PEAVTreeNode@3@@Z@XPEAV43@@std@@QEAA@AEBV<lambda_2>@?1???0StatusChangeLogger@BT@@QEAA@PEAVTreeNode@4@@Z@@Z
	??$?0AEBV?$allocator@D@std@@$$V@?$_Compressed_pair@V?$allocator@D@std@@V?$_String_val@U?$_Simple_types@D@std@@@2@$00@std@@QEAA@U_One_then_variadic_args_t@1@AEBV?$allocator@D@1@@Z
	??$?0AEBV?$allocator@U?$_List_node@U?$pair@$$CBV?$basic_string@DU?$char_traits@D@std@@V?$allocator@D@2@@std@@V12@@std@@PEAX@std@@@std@@$$V@?$_Compressed_pair@V?$allocator@V?$_List_unchecked_iterator@V?$_List_val@U?$_List_simple_types@U?$pair@$$CBV?$basic_string@DU?$char_traits@D@std@@V?$allocator@D@2@@std@@V12@@std@@@std@@@std@@@std@@@std@@V?$_Vector_val@U?$_Simple_types@V?$_List_unchecked_iterator@V?$_List_val@U?$_List_simple_types@U?$pair@$$CBV?$basic_string@DU?$char_traits@D@std@@V?$allocator@D@2@@std@@V12@@std@@@std@@@std@@@std@@@std@@@2@$00@std@@QEAA@U_One_then_variadic_args_t@1@AEBV?$allocator@U?$_List_node@U?$pair@$$CBV?$basic_string@DU?$char_traits@D@std@@V?$allocator@D@2@@std@@V12@@std@@PEAX@std@@@1@@Z
	??$?0AEBV?$allocator@U?$_List_node@U?$pair@$$CBV?$basic_string@DU?$char_traits@D@std@@V?$allocator@D@2@@std@@V12@@std@@PEAX@std@@@std@@$0A@@?$_Hash_vec@V?$allocator@V?$_List_unchecked_iterator@V?$_List_val@U?$_List_simple_types@U?$pair@$$CBV?$basic_string@DU?$char_traits@D@std@@V?$allocator@D@2@@std@@V12@@std@@@std@@@std@@@std@@@std@@@std@@QEAA@AEBV?$allocator@U?$_List_node@U?$pair@$$CBV?$basic_string@DU?$char_traits@D@std@@V?$allocator@D@2@@std@@V12@@std@@PEAX@std@@@1@@Z
	??$?0AEBV?$allocator@U?$_List_node@U?$pair@$$CBV?$basic_string@DU?$char_traits@D@std@@V?$allocator@D@2@@std@@VPortInfo@BT@@@std@@PEAX@std@@@std@@$$V@?$_Compressed_pair@V?$allocator@V?$_List_unchecked_iterator@V?$_List_val@U?$_List_simple_types@U?$pair@$$CBV?$basic_string@DU?$char_traits@D@std@@V?$allocator@D@2@@std@@VPortInfo@BT@@@std@@@std@@@std@@@std@@@std@@V?$_Vector_val@U?$_Simple_types@V?$_List_unchecked_iterator@V?$_List_val@U?$_List_simple_types@U?$pair@$$CBV?$basic_string@DU?$char_traits@D@std@@V?$allocator@D@2@@std@@VPortInfo@BT@@@std@@@std@@@std@@@std@@@std@@@2@$00@std@@QEAA@U_One_then_variadic_args_t@1@AEBV?$allocator@U?$_List_node@U?$pair@$$CBV?$basic_string@DU?$char_traits@D@std@@V?$allocator@D@2@@std@@VPortInfo@BT@@@std@@PEAX@std@@@1@@Z
	??$?0AEBV?$allocator@U?$_List_node@U?$pair@$$CBV?$basic_string@DU?$char_traits@D@std@@V?$allocator@D@2@@std@@VPortInfo@BT@@@std@@PEAX@std@@@std@@$0A@@?$_Hash_vec@V?$allocator@V?$_List_unchecked_iterator@V?$_List_val@U?$_List_simple_types@U?$pair@$$CBV?$basic_string@DU?$char_traits@D@std@@V?$allocator@D@2@@std@@VPortInfo@BT@@@std@@@std@@@std@@@std@@@std@@@std@@QEAA@AEBV?$allocator@U?$_List_node@U?$pair@$$CBV?$basic_string@DU?$char_traits@D@std@@V?$allocator@D@2@@std@@VPortInfo@BT@@@std@@PEAX@std@@@1@@Z
	??$?0AEBV?$allocator@U?$pair@$$CBV?$basic_string@DU?$char_traits@D@std@@V?$allocator@D@2@@std@@H@std@@@std@@$$V@?$_Compressed_pair@V?$allocator@U?$_List_node@U?$pair@$$CBV?$basic_string@DU?$char_traits@D@std@@V?$allocator@D@2@@std@@H@std@@PEAX@std@@@std@@V?$_List_val@U?$_List_simple_types@U?$pair@$$CBV?$basic_string@DU?$char_traits@D@std@@V?$allocator@D@2@@std@@H@std@@@std@@@2@$00@std@@QEAA@U_One_then_variadic_args_t@1@AEBV?$allocator@U?$pair@$$CBV?$basic_string@DU?$char_traits@D@std@@V?$allocator@D@2@@std@@H@std@@@1@@Z
	??$?0AEBV?$allocator@U?$pair@$$CBV?$basic_string@DU?$char_traits@D@std@@V?$allocator@D@2@@std@@H@std@@@std@@$$V@?$_Compressed_pair@V?$allocator@V?$_List_unchecked_iterator@V?$_List_val@U?$_List_simple_types@U?$pair@$$CBV?$basic_string@DU?$char_traits@D@std@@V?$allocator@D@2@@std@@H@std@@@std@@@std@@@std@@@std@@V?$_Vector_val@U?$_Simple_types@V?$_List_unchecked_iterator@V?$_List_val@U?$_List_simple_types@U?$pair@$$CBV?$basic_string@DU?$char_traits@D@std@@V?$allocator@D@2@@std@@H@std@@@std@@@std@@@std@@@std@@@2@$00@std@@QEAA@U_One_then_variadic_args_t@1@AEBV?$allocator@U?$pair@$$CBV?$basic_string@DU?$char_traits@D@std@@V?$allocator@D@2@@std@@H@std@@@1@@Z
	??$?0AEBV?$allocator@U?$pair@$$CBV?$basic_string@DU?$char_traits@D@std@@V?$allocator@D@2@@std@@H@std@@@std@@$0A@@?$_Hash_vec@V?$allocator@V?$_List_unchecked_iterator@V?$_List_val@U?$_List_simple_types@U?$pair@$$CBV?$basic_string@DU?$char_traits@D@std@@V?$allocator@D@2@@std@@H@std@@@std@@@std@@@std@@@std@@@std@@QEAA@AEBV?$allocator@U?$pair@$$CBV?$basic_string@DU?$char_traits@D@std@@V?$allocator@D@2@@std@@H@std@@@1@@Z
	??$?0AEBV?$allocator@U?$pair@$$CBV?$basic_string@DU?$char_traits@D@std@@V?$allocator@D@2@@std@@UEntry@Blackboard@BT@@@std@@@std@@$$V@?$_Compressed_pair@V?$allocator@U?$_List_node@U?$pair@$$CBV?$basic_string@DU?$char_traits@D@std@@V?$allocator@D@2@@std@@UEntry@Blackboard@BT@@@std@@PEAX@std@@@std@@V?$_List_val@U?$_List_simple_types@U?$pair@$$CBV?$basic_string@DU?$char_traits@D@std@@V?$allocator@D@2@@std@@UEntry@Blackboard@BT@@@std@@@std@@@2@$00@std@@QEAA@U_One_then_variadic_args_t@1@AEBV?$allocator@U?$pair@$$CBV?$basic_string@DU?$char_traits@D@std@@V?$allocator@D@2@@std@@UEntry@Blackboard@BT@@@std@@@1@@Z
	??$?0AEBV?$allocator@U?$pair@$$CBV?$basic_string@DU?$char_traits@D@std@@V?$allocator@D@2@@std@@UEntry@Blackboard@BT@@@std@@@std@@$$V@?$_Compressed_pair@V?$allocator@V?$_List_unchecked_iterator@V?$_List_val@U?$_List_simple_types@U?$pair@$$CBV?$basic_string@DU?$char_traits@D@std@@V?$allocator@D@2@@std@@UEntry@Blackboard@BT@@@std@@@std@@@std@@@std@@@std@@V?$_Vector_val@U?$_Simple_types@V?$_List_unchecked_iterator@V?$_List_val@U?$_List_simple_types@U?$pair@$$CBV?$basic_string@DU?$char_traits@D@std@@V?$allocator@D@2@@std@@UEntry@Blackboard@BT@@@std@@@std@@@std@@@std@@@std@@@2@$00@std@@QEAA@U_One_then_variadic_args_t@1@AEBV?$allocator@U?$pair@$$CBV?$basic_string@DU?$char_traits@D@std@@V?$allocator@D@2@@std@@UEntry@Blackboard@BT@@@std@@@1@@Z
	??$?0AEBV?$allocator@U?$pair@$$CBV?$basic_string@DU?$char_traits@D@std@@V?$allocator@D@2@@std@@UEntry@Blackboard@BT@@@std@@@std@@$0A@@?$_Hash_vec@V?$allocator@V?$_List_unchecked_iterator@V?$_List_val@U?$_List_simple_types@U?$pair@$$CBV?$basic_string@DU?$char_traits@D@std@@V?$allocator@D@2@@std@@UEntry@Blackboard@BT@@@std@@@std@@@std@@@std@@@std@@@std@@QEAA@AEBV?$allocator@U?$pair@$$CBV?$basic_string@DU?$char_traits@D@std@@V?$allocator@D@2@@std@@UEntry@Blackboard@BT@@@std@@@1@@Z
	??$?0AEBV?$allocator@U?$pair@$$CBV?$basic_string@DU?$char_traits@D@std@@V?$allocator@D@2@@std@@UTreeNodeManifest@BT@@@std@@@std@@$$V@?$_Compressed_pair@V?$allocator@U?$_List_node@U?$pair@$$CBV?$basic_string@DU?$char_traits@D@std@@V?$allocator@D@2@@std@@UTreeNodeManifest@BT@@@std@@PEAX@std@@@std@@V?$_List_val@U?$_List_simple_types@U?$pair@$$CBV?$basic_string@DU?$char_traits@D@std@@V?$allocator@D@2@@std@@UTreeNodeManifest@BT@@@std@@@std@@@2@$00@std@@QEAA@U_One_then_variadic_args_t@1@AEBV?$allocator@U?$pair@$$CBV?$basic_string@DU?$char_traits@D@std@@V?$allocator@D@2@@std@@UTreeNodeManifest@BT@@@std@@@1@@Z
	??$?0AEBV?$allocator@U?$pair@$$CBV?$basic_string@DU?$char_traits@D@std@@V?$allocator@D@2@@std@@UTreeNodeManifest@BT@@@std@@@std@@$$V@?$_Compressed_pair@V?$allocator@V?$_List_unchecked_iterator@V?$_List_val@U?$_List_simple_types@U?$pair@$$CBV?$basic_string@DU?$char_traits@D@std@@V?$allocator@D@2@@std@@UTreeNodeManifest@BT@@@std@@@std@@@std@@@std@@@std@@V?$_Vector_val@U?$_Simple_types@V?$_List_unchecked_iterator@V?$_List_val@U?$_List_simple_types@U?$pair@$$CBV?$basic_string@DU?$char_traits@D@std@@V?$allocator@D@2@@std@@UTreeNodeManifest@BT@@@std@@@std@@@std@@@std@@@std@@@2@$00@std@@QEAA@U_One_then_variadic_args_t@1@AEBV?$allocator@U?$pair@$$CBV?$basic_string@DU?$char_traits@D@std@@V?$allocator@D@2@@std@@UTreeNodeManifest@BT@@@std@@@1@@Z
	??$?0AEBV?$allocator@U?$pair@$$CBV?$basic_string@DU?$char_traits@D@std@@V?$allocator@D@2@@std@@UTreeNodeManifest@BT@@@std@@@std@@$0A@@?$_Hash_vec@V?$allocator@V?$_List_unchecked_iterator@V?$_List_val@U?$_List_simple_types@U?$pair@$$CBV?$basic_string@DU?$char_traits@D@std@@V?$allocator@D@2@@std@@UTreeNodeManifest@BT@@@std@@@std@@@std@@@std@@@std@@@std@@QEAA@AEBV?$allocator@U?$pair@$$CBV?$basic_string@DU?$char_traits@D@std@@V?$allocator@D@2@@std@@UTreeNodeManifest@BT@@@std@@@1@@Z
	??$?0AEBV?$allocator@U?$pair@$$CBV?$basic_string@DU?$char_traits@D@std@@V?$allocator@D@2@@std@@V12@@std@@@std@@$$V@?$_Compressed_pair@V?$allocator@U?$_List_node@U?$pair@$$CBV?$basic_string@DU?$char_traits@D@std@@V?$allocator@D@2@@std@@V12@@std@@PEAX@std@@@std@@V?$_List_val@U?$_List_simple_types@U?$pair@$$CBV?$basic_string@DU?$char_traits@D@std@@V?$allocator@D@2@@std@@V12@@std@@@std@@@2@$00@std@@QEAA@U_One_then_variadic_args_t@1@AEBV?$allocator@U?$pair@$$CBV?$basic_string@DU?$char_traits@D@std@@V?$allocator@D@2@@std@@V12@@std@@@1@@Z
	??$?0AEBV?$allocator@U?$pair@$$CBV?$basic_string@DU?$char_traits@D@std@@V?$allocator@D@2@@std@@V12@@std@@@std@@$$V@?$_Compressed_pair@V?$allocator@V?$_List_unchecked_iterator@V?$_List_val@U?$_List_simple_types@U?$pair@$$CBV?$basic_string@DU?$char_traits@D@std@@V?$allocator@D@2@@std@@V12@@std@@@std@@@std@@@std@@@std@@V?$_Vector_val@U?$_Simple_types@V?$_List_unchecked_iterator@V?$_List_val@U?$_List_simple_types@U?$pair@$$CBV?$basic_string@DU?$char_traits@D@std@@V?$allocator@D@2@@std@@V12@@std@@@std@@@std@@@std@@@std@@@2@$00@std@@QEAA@U_One_then_variadic_args_t@1@AEBV?$allocator@U?$pair@$$CBV?$basic_string@DU?$char_traits@D@std@@V?$allocator@D@2@@std@@V12@@std@@@1@@Z
	??$?0AEBV?$allocator@U?$pair@$$CBV?$basic_string@DU?$char_traits@D@std@@V?$allocator@D@2@@std@@V12@@std@@@std@@$0A@@?$_Hash_vec@V?$allocator@V?$_List_unchecked_iterator@V?$_List_val@U?$_List_simple_types@U?$pair@$$CBV?$basic_string@DU?$char_traits@D@std@@V?$allocator@D@2@@std@@V12@@std@@@std@@@std@@@std@@@std@@@std@@QEAA@AEBV?$allocator@U?$pair@$$CBV?$basic_string@DU?$char_traits@D@std@@V?$allocator@D@2@@std@@V12@@std@@@1@@Z
	??$?0AEBV?$allocator@U?$pair@$$CBV?$basic_string@DU?$char_traits@D@std@@V?$allocator@D@2@@std@@V?$function@$$A6A?AV?$unique_ptr@VTreeNode@BT@@U?$default_delete@VTreeNode@BT@@@std@@@std@@AEBV?$basic_string@DU?$char_traits@D@std@@V?$allocator@D@2@@2@AEBUNodeConfig@BT@@@Z@2@@std@@@std@@$$V@?$_Compressed_pair@V?$allocator@U?$_List_node@U?$pair@$$CBV?$basic_string@DU?$char_traits@D@std@@V?$allocator@D@2@@std@@V?$function@$$A6A?AV?$unique_ptr@VTreeNode@BT@@U?$default_delete@VTreeNode@BT@@@std@@@std@@AEBV?$basic_string@DU?$char_traits@D@std@@V?$allocator@D@2@@2@AEBUNodeConfig@BT@@@Z@2@@std@@PEAX@std@@@std@@V?$_List_val@U?$_List_simple_types@U?$pair@$$CBV?$basic_string@DU?$char_traits@D@std@@V?$allocator@D@2@@std@@V?$function@$$A6A?AV?$unique_ptr@VTreeNode@BT@@U?$default_delete@VTreeNode@BT@@@std@@@std@@AEBV?$basic_string@DU?$char_traits@D@std@@V?$allocator@D@2@@2@AEBUNodeConfig@BT@@@Z@2@@std@@@std@@@2@$00@std@@QEAA@U_One_then_variadic_args_t@1@AEBV?$allocator@U?$pair@$$CBV?$basic_string@DU?$char_traits@D@std@@V?$allocator@D@2@@std@@V?$function@$$A6A?AV?$unique_ptr@VTreeNode@BT@@U?$default_delete@VTreeNode@BT@@@std@@@std@@AEBV?$basic_string@DU?$char_traits@D@std@@V?$allocator@D@2@@2@AEBUNodeConfig@BT@@@Z@2@@std@@@1@@Z
	??$?0AEBV?$allocator@U?$pair@$$CBV?$basic_string@DU?$char_traits@D@std@@V?$allocator@D@2@@std@@V?$function@$$A6A?AV?$unique_ptr@VTreeNode@BT@@U?$default_delete@VTreeNode@BT@@@std@@@std@@AEBV?$basic_string@DU?$char_traits@D@std@@V?$allocator@D@2@@2@AEBUNodeConfig@BT@@@Z@2@@std@@@std@@$$V@?$_Compressed_pair@V?$allocator@V?$_List_unchecked_iterator@V?$_List_val@U?$_List_simple_types@U?$pair@$$CBV?$basic_string@DU?$char_traits@D@std@@V?$allocator@D@2@@std@@V?$function@$$A6A?AV?$unique_ptr@VTreeNode@BT@@U?$default_delete@VTreeNode@BT@@@std@@@std@@AEBV?$basic_string@DU?$char_traits@D@std@@V?$allocator@D@2@@2@AEBUNodeConfig@BT@@@Z@2@@std@@@std@@@std@@@std@@@std@@V?$_Vector_val@U?$_Simple_types@V?$_List_unchecked_iterator@V?$_List_val@U?$_List_simple_types@U?$pair@$$CBV?$basic_string@DU?$char_traits@D@std@@V?$allocator@D@2@@std@@V?$function@$$A6A?AV?$unique_ptr@VTreeNode@BT@@U?$default_delete@VTreeNode@BT@@@std@@@std@@AEBV?$basic_string@DU?$char_traits@D@std@@V?$allocator@D@2@@2@AEBUNodeConfig@BT@@@Z@2@@std@@@std@@@std@@@std@@@std@@@2@$00@std@@QEAA@U_One_then_variadic_args_t@1@AEBV?$allocator@U?$pair@$$CBV?$basic_string@DU?$char_traits@D@std@@V?$allocator@D@2@@std@@V?$function@$$A6A?AV?$unique_ptr@VTreeNode@BT@@U?$default_delete@VTreeNode@BT@@@std@@@std@@AEBV?$basic_string@DU?$char_traits@D@std@@V?$allocator@D@2@@2@AEBUNodeConfig@BT@@@Z@2@@std@@@1@@Z
	??$?0AEBV?$allocator@U?$pair@$$CBV?$basic_string@DU?$char_traits@D@std@@V?$allocator@D@2@@std@@V?$function@$$A6A?AV?$unique_ptr@VTreeNode@BT@@U?$default_delete@VTreeNode@BT@@@std@@@std@@AEBV?$basic_string@DU?$char_traits@D@std@@V?$allocator@D@2@@2@AEBUNodeConfig@BT@@@Z@2@@std@@@std@@$0A@@?$_Hash_vec@V?$allocator@V?$_List_unchecked_iterator@V?$_List_val@U?$_List_simple_types@U?$pair@$$CBV?$basic_string@DU?$char_traits@D@std@@V?$allocator@D@2@@std@@V?$function@$$A6A?AV?$unique_ptr@VTreeNode@BT@@U?$default_delete@VTreeNode@BT@@@std@@@std@@AEBV?$basic_string@DU?$char_traits@D@std@@V?$allocator@D@2@@2@AEBUNodeConfig@BT@@@Z@2@@std@@@std@@@std@@@std@@@std@@@std@@QEAA@AEBV?$allocator@U?$pair@$$CBV?$basic_string@DU?$char_traits@D@std@@V?$allocator@D@2@@std@@V?$function@$$A6A?AV?$unique_ptr@VTreeNode@BT@@U?$default_delete@VTreeNode@BT@@@std@@@std@@AEBV?$basic_string@DU?$char_traits@D@std@@V?$allocator@D@2@@2@AEBUNodeConfig@BT@@@Z@2@@std@@@1@@Z
	??$?0AEBV?$allocator@U?$pair@$$CBV?$basic_string@DU?$char_traits@D@std@@V?$allocator@D@2@@std@@VAny@BT@@@std@@@std@@$$V@?$_Compressed_pair@V?$allocator@U?$_List_node@U?$pair@$$CBV?$basic_string@DU?$char_traits@D@std@@V?$allocator@D@2@@std@@VAny@BT@@@std@@PEAX@std@@@std@@V?$_List_val@U?$_List_simple_types@U?$pair@$$CBV?$basic_string@DU?$char_traits@D@std@@V?$allocator@D@2@@std@@VAny@BT@@@std@@@std@@@2@$00@std@@QEAA@U_One_then_variadic_args_t@1@AEBV?$allocator@U?$pair@$$CBV?$basic_string@DU?$char_traits@D@std@@V?$allocator@D@2@@std@@VAny@BT@@@std@@@1@@Z
	??$?0AEBV?$allocator@U?$pair@$$CBV?$basic_string@DU?$char_traits@D@std@@V?$allocator@D@2@@std@@VAny@BT@@@std@@@std@@$$V@?$_Compressed_pair@V?$allocator@V?$_List_unchecked_iterator@V?$_List_val@U?$_List_simple_types@U?$pair@$$CBV?$basic_string@DU?$char_traits@D@std@@V?$allocator@D@2@@std@@VAny@BT@@@std@@@std@@@std@@@std@@@std@@V?$_Vector_val@U?$_Simple_types@V?$_List_unchecked_iterator@V?$_List_val@U?$_List_simple_types@U?$pair@$$CBV?$basic_string@DU?$char_traits@D@std@@V?$allocator@D@2@@std@@VAny@BT@@@std@@@std@@@std@@@std@@@std@@@2@$00@std@@QEAA@U_One_then_variadic_args_t@1@AEBV?$allocator@U?$pair@$$CBV?$basic_string@DU?$char_traits@D@std@@V?$allocator@D@2@@std@@VAny@BT@@@std@@@1@@Z
	??$?0AEBV?$allocator@U?$pair@$$CBV?$basic_string@DU?$char_traits@D@std@@V?$allocator@D@2@@std@@VAny@BT@@@std@@@std@@$0A@@?$_Hash_vec@V?$allocator@V?$_List_unchecked_iterator@V?$_List_val@U?$_List_simple_types@U?$pair@$$CBV?$basic_string@DU?$char_traits@D@std@@V?$allocator@D@2@@std@@VAny@BT@@@std@@@std@@@std@@@std@@@std@@@std@@QEAA@AEBV?$allocator@U?$pair@$$CBV?$basic_string@DU?$char_traits@D@std@@V?$allocator@D@2@@std@@VAny@BT@@@std@@@1@@Z
	??$?0AEBV?$allocator@U?$pair@$$CBV?$basic_string@DU?$char_traits@D@std@@V?$allocator@D@2@@std@@VPortInfo@BT@@@std@@@std@@$$V@?$_Compressed_pair@V?$allocator@U?$_List_node@U?$pair@$$CBV?$basic_string@DU?$char_traits@D@std@@V?$allocator@D@2@@std@@VPortInfo@BT@@@std@@PEAX@std@@@std@@V?$_List_val@U?$_List_simple_types@U?$pair@$$CBV?$basic_string@DU?$char_traits@D@std@@V?$allocator@D@2@@std@@VPortInfo@BT@@@std@@@std@@@2@$00@std@@QEAA@U_One_then_variadic_args_t@1@AEBV?$allocator@U?$pair@$$CBV?$basic_string@DU?$char_traits@D@std@@V?$allocator@D@2@@std@@VPortInfo@BT@@@std@@@1@@Z
	??$?0AEBV?$allocator@U?$pair@$$CBV?$basic_string@DU?$char_traits@D@std@@V?$allocator@D@2@@std@@VPortInfo@BT@@@std@@@std@@$$V@?$_Compressed_pair@V?$allocator@V?$_List_unchecked_iterator@V?$_List_val@U?$_List_simple_types@U?$pair@$$CBV?$basic_string@DU?$char_traits@D@std@@V?$allocator@D@2@@std@@VPortInfo@BT@@@std@@@std@@@std@@@std@@@std@@V?$_Vector_val@U?$_Simple_types@V?$_List_unchecked_iterator@V?$_List_val@U?$_List_simple_types@U?$pair@$$CBV?$basic_string@DU?$char_traits@D@std@@V?$allocator@D@2@@std@@VPortInfo@BT@@@std@@@std@@@std@@@std@@@std@@@2@$00@std@@QEAA@U_One_then_variadic_args_t@1@AEBV?$allocator@U?$pair@$$CBV?$basic_string@DU?$char_traits@D@std@@V?$allocator@D@2@@std@@VPortInfo@BT@@@std@@@1@@Z
	??$?0AEBV?$allocator@U?$pair@$$CBV?$basic_string@DU?$char_traits@D@std@@V?$allocator@D@2@@std@@VPortInfo@BT@@@std@@@std@@$0A@@?$_Hash_vec@V?$allocator@V?$_List_unchecked_iterator@V?$_List_val@U?$_List_simple_types@U?$pair@$$CBV?$basic_string@DU?$char_traits@D@std@@V?$allocator@D@2@@std@@VPortInfo@BT@@@std@@@std@@@std@@@std@@@std@@@std@@QEAA@AEBV?$allocator@U?$pair@$$CBV?$basic_string@DU?$char_traits@D@std@@V?$allocator@D@2@@std@@VPortInfo@BT@@@std@@@1@@Z
	??$?0AEBV?$allocator@U?$pair@$$CBV?$basic_string@DU?$char_traits@D@std@@V?$allocator@D@2@@std@@W4NodeType@BT@@@std@@@std@@$$V@?$_Compressed_pair@V?$allocator@U?$_List_node@U?$pair@$$CBV?$basic_string@DU?$char_traits@D@std@@V?$allocator@D@2@@std@@W4NodeType@BT@@@std@@PEAX@std@@@std@@V?$_List_val@U?$_List_simple_types@U?$pair@$$CBV?$basic_string@DU?$char_traits@D@std@@V?$allocator@D@2@@std@@W4NodeType@BT@@@std@@@std@@@2@$00@std@@QEAA@U_One_then_variadic_args_t@1@AEBV?$allocator@U?$pair@$$CBV?$basic_string@DU?$char_traits@D@std@@V?$allocator@D@2@@std@@W4NodeType@BT@@@std@@@1@@Z
	??$?0AEBV?$allocator@U?$pair@$$CBV?$basic_string@DU?$char_traits@D@std@@V?$allocator@D@2@@std@@W4NodeType@BT@@@std@@@std@@$$V@?$_Compressed_pair@V?$allocator@V?$_List_unchecked_iterator@V?$_List_val@U?$_List_simple_types@U?$pair@$$CBV?$basic_string@DU?$char_traits@D@std@@V?$allocator@D@2@@std@@W4NodeType@BT@@@std@@@std@@@std@@@std@@@std@@V?$_Vector_val@U?$_Simple_types@V?$_List_unchecked_iterator@V?$_List_val@U?$_List_simple_types@U?$pair@$$CBV?$basic_string@DU?$char_traits@D@std@@V?$allocator@D@2@@std@@W4NodeType@BT@@@std@@@std@@@std@@@std@@@std@@@2@$00@std@@QEAA@U_One_then_variadic_args_t@1@AEBV?$allocator@U?$pair@$$CBV?$basic_string@DU?$char_traits@D@std@@V?$allocator@D@2@@std@@W4NodeType@BT@@@std@@@1@@Z
	??$?0AEBV?$allocator@U?$pair@$$CBV?$basic_string@DU?$char_traits@D@std@@V?$allocator@D@2@@std@@W4NodeType@BT@@@std@@@std@@$0A@@?$_Hash_vec@V?$allocator@V?$_List_unchecked_iterator@V?$_List_val@U?$_List_simple_types@U?$pair@$$CBV?$basic_string@DU?$char_traits@D@std@@V?$allocator@D@2@@std@@W4NodeType@BT@@@std@@@std@@@std@@@std@@@std@@@std@@QEAA@AEBV?$allocator@U?$pair@$$CBV?$basic_string@DU?$char_traits@D@std@@V?$allocator@D@2@@std@@W4NodeType@BT@@@std@@@1@@Z
	??$?0AEBV?$allocator@_W@std@@$$V@?$_Compressed_pair@V?$allocator@_W@std@@V?$_String_val@U?$_Simple_types@_W@std@@@2@$00@std@@QEAA@U_One_then_variadic_args_t@1@AEBV?$allocator@_W@1@@Z
	??$?0AEBV?$basic_string@DU?$char_traits@D@std@@V?$allocator@D@2@@std@@$$Z$$V@?$pair@$$CBV?$basic_string@DU?$char_traits@D@std@@V?$allocator@D@2@@std@@PEBVXMLElement@tinyxml2@@@std@@QEAA@Upiecewise_construct_t@1@V?$tuple@AEBV?$basic_string@DU?$char_traits@D@std@@V?$allocator@D@2@@std@@@1@V?$tuple@$$V@1@@Z
	??$?0AEBV?$basic_string@DU?$char_traits@D@std@@V?$allocator@D@2@@std@@$$Z$$V@?$pair@$$CBV?$basic_string@DU?$char_traits@D@std@@V?$allocator@D@2@@std@@V12@@std@@QEAA@Upiecewise_construct_t@1@V?$tuple@AEBV?$basic_string@DU?$char_traits@D@std@@V?$allocator@D@2@@std@@@1@V?$tuple@$$V@1@@Z
	??$?0AEBV?$basic_string@DU?$char_traits@D@std@@V?$allocator@D@2@@std@@$0A@@?$tuple@AEBV?$basic_string@DU?$char_traits@D@std@@V?$allocator@D@2@@std@@@std@@QEAA@AEBV?$basic_string@DU?$char_traits@D@std@@V?$allocator@D@2@@1@@Z
	??$?0AEBV?$basic_string@DU?$char_traits@D@std@@V?$allocator@D@2@@std@@@?$_Tree_temp_node@V?$allocator@U?$_Tree_node@V?$basic_string@DU?$char_traits@D@std@@V?$allocator@D@2@@std@@PEAX@std@@@std@@@std@@QEAA@AEAV?$allocator@U?$_Tree_node@V?$basic_string@DU?$char_traits@D@std@@V?$allocator@D@2@@std@@PEAX@std@@@1@PEAU?$_Tree_node@V?$basic_string@DU?$char_traits@D@std@@V?$allocator@D@2@@std@@PEAX@1@AEBV?$basic_string@DU?$char_traits@D@std@@V?$allocator@D@2@@1@@Z
	??$?0AEBV?$basic_string@DU?$char_traits@D@std@@V?$allocator@D@2@@std@@@?$_Tuple_val@AEBV?$basic_string@DU?$char_traits@D@std@@V?$allocator@D@2@@std@@@std@@QEAA@AEBV?$basic_string@DU?$char_traits@D@std@@V?$allocator@D@2@@1@@Z
	??$?0AEBV?$basic_string@DU?$char_traits@D@std@@V?$allocator@D@2@@std@@UEntry@Blackboard@BT@@$0A@@?$pair@$$CBV?$basic_string@DU?$char_traits@D@std@@V?$allocator@D@2@@std@@UEntry@Blackboard@BT@@@std@@QEAA@AEBV?$basic_string@DU?$char_traits@D@std@@V?$allocator@D@2@@1@$$QEAUEntry@Blackboard@BT@@@Z
	??$?0AEBV?$basic_string@DU?$char_traits@D@std@@V?$allocator@D@2@@std@@UEntry@Blackboard@BT@@@?$_List_node_emplace_op2@V?$allocator@U?$_List_node@U?$pair@$$CBV?$basic_string@DU?$char_traits@D@std@@V?$allocator@D@2@@std@@UEntry@Blackboard@BT@@@std@@PEAX@std@@@std@@@std@@QEAA@AEAV?$allocator@U?$_List_node@U?$pair@$$CBV?$basic_string@DU?$char_traits@D@std@@V?$allocator@D@2@@std@@UEntry@Blackboard@BT@@@std@@PEAX@std@@@1@AEBV?$basic_string@DU?$char_traits@D@std@@V?$allocator@D@2@@1@$$QEAUEntry@Blackboard@BT@@@Z
	??$?0AEBVexception_ptr@std@@V_TaskCreationCallstack@details@Concurrency@@@?$_Ref_count_obj2@U_ExceptionHolder@details@Concurrency@@@std@@QEAA@AEBVexception_ptr@1@$$QEAV_TaskCreationCallstack@details@Concurrency@@@Z
	??$?0AEB_K@?$_Tree_temp_node@V?$allocator@U?$_Tree_node@_KPEAX@std@@@std@@@std@@QEAA@AEAV?$allocator@U?$_Tree_node@_KPEAX@std@@@1@PEAU?$_Tree_node@_KPEAX@1@AEB_K@Z
	??$?0GE$0A@@?$pair@GE@std@@QEAA@$$QEAG$$QEAE@Z
	??$?0H$0A@@?$duration@_JU?$ratio@$00$0DOI@@std@@@chrono@std@@QEAA@AEBH@Z
	??$?0H$0A@@?$duration@_JU?$ratio@$00$0PECEA@@std@@@chrono@std@@QEAA@AEBH@Z
	??$?0H$0A@@?$expected@HV?$basic_string@DU?$char_traits@D@std@@V?$allocator@D@2@@std@@@expected_lite@nonstd@@QEAA@$$QEAH@Z
	??$?0H@?$_lazy_init_storage_trivial@H@_detail@lexy@@QEAA@H$$QEAH@Z
	??$?0H@?$lazy_init@H@_detail@lexy@@AEAA@H$$QEAH@Z
	??$?0H@Any@BT@@QEAA@AEBHPEAX@Z
	??$?0I$0A@@?$duration@_JU?$ratio@$00$0DOI@@std@@@chrono@std@@QEAA@AEBI@Z
	??$?0I$0A@@?$expected@IV?$basic_string@DU?$char_traits@D@std@@V?$allocator@D@2@@std@@@expected_lite@nonstd@@QEAA@$$QEAI@Z
	??$?0I@Any@BT@@QEAA@AEBIPEAX@Z
	??$?0M@?$_Compressed_pair@U?$equal_to@V?$basic_string@DU?$char_traits@D@std@@V?$allocator@D@2@@std@@@std@@M$00@std@@QEAA@U_Zero_then_variadic_args_t@1@$$QEAM@Z
	??$?0N$0A@@?$duration@NU?$ratio@$00$00@std@@@chrono@std@@QEAA@AEBN@Z
	??$?0N$0A@@?$duration@NU?$ratio@$00$0DLJKMKAA@@std@@@chrono@std@@QEAA@AEBN@Z
	??$?0N$0A@@?$expected@NV?$basic_string@DU?$char_traits@D@std@@V?$allocator@D@2@@std@@@expected_lite@nonstd@@QEAA@$$QEAN@Z
	??$?0NU?$ratio@$00$00@std@@$0A@@?$duration@NU?$ratio@$00$0DLJKMKAA@@std@@@chrono@std@@QEAA@AEBV?$duration@NU?$ratio@$00$00@std@@@12@@Z
	??$?0NX@any@linb@@QEAA@$$QEAN@Z
	??$?0PEAD$0A@@?$basic_string@DU?$char_traits@D@std@@V?$allocator@D@2@@std@@QEAA@PEAD0AEBV?$allocator@D@1@@Z
	??$?0PEAD$0A@@?$expected@Umonostate@std@@V?$basic_string@DU?$char_traits@D@std@@V?$allocator@D@2@@2@@expected_lite@nonstd@@QEAA@$$QEAV?$unexpected_type@PEAD@12@@Z
	??$?0PEAD$0A@@?$expected@V?$function@$$A6A?AVAny@BT@@AEAUEnvironment@Ast@2@@Z@std@@V?$basic_string@DU?$char_traits@D@std@@V?$allocator@D@2@@2@@expected_lite@nonstd@@QEAA@$$QEAV?$unexpected_type@PEAD@12@@Z
	??$?0PEAU?$_List_node@U?$pair@$$CBV?$basic_string@DU?$char_traits@D@std@@V?$allocator@D@2@@std@@H@std@@PEAX@std@@_N$0A@@?$pair@PEAU?$_List_node@U?$pair@$$CBV?$basic_string@DU?$char_traits@D@std@@V?$allocator@D@2@@std@@H@std@@PEAX@std@@_N@std@@QEAA@$$QEAPEAU?$_List_node@U?$pair@$$CBV?$basic_string@DU?$char_traits@D@std@@V?$allocator@D@2@@std@@H@std@@PEAX@1@$$QEA_N@Z
	??$?0PEAU?$_List_node@U?$pair@$$CBV?$basic_string@DU?$char_traits@D@std@@V?$allocator@D@2@@std@@V12@@std@@PEAX@std@@_N$0A@@?$pair@PEAU?$_List_node@U?$pair@$$CBV?$basic_string@DU?$char_traits@D@std@@V?$allocator@D@2@@std@@V12@@std@@PEAX@std@@_N@std@@QEAA@$$QEAPEAU?$_List_node@U?$pair@$$CBV?$basic_string@DU?$char_traits@D@std@@V?$allocator@D@2@@std@@V12@@std@@PEAX@1@$$QEA_N@Z
	??$?0PEAU?$_Tree_node@U?$pair@$$CBV?$basic_string@DU?$char_traits@D@std@@V?$allocator@D@2@@std@@PEBVXMLElement@tinyxml2@@@std@@PEAX@std@@_N$0A@@?$pair@PEAU?$_Tree_node@U?$pair@$$CBV?$basic_string@DU?$char_traits@D@std@@V?$allocator@D@2@@std@@PEBVXMLElement@tinyxml2@@@std@@PEAX@std@@_N@std@@QEAA@$$QEAPEAU?$_Tree_node@U?$pair@$$CBV?$basic_string@DU?$char_traits@D@std@@V?$allocator@D@2@@std@@PEBVXMLElement@tinyxml2@@@std@@PEAX@1@$$QEA_N@Z
	??$?0PEAU?$_Tree_node@U?$pair@$$CBW4PostCond@BT@@V?$basic_string@DU?$char_traits@D@std@@V?$allocator@D@2@@std@@@std@@PEAX@std@@_N$0A@@?$pair@PEAU?$_Tree_node@U?$pair@$$CBW4PostCond@BT@@V?$basic_string@DU?$char_traits@D@std@@V?$allocator@D@2@@std@@@std@@PEAX@std@@_N@std@@QEAA@$$QEAPEAU?$_Tree_node@U?$pair@$$CBW4PostCond@BT@@V?$basic_string@DU?$char_traits@D@std@@V?$allocator@D@2@@std@@@std@@PEAX@1@$$QEA_N@Z
	??$?0PEAU?$_Tree_node@U?$pair@$$CBW4PreCond@BT@@V?$basic_string@DU?$char_traits@D@std@@V?$allocator@D@2@@std@@@std@@PEAX@std@@_N$0A@@?$pair@PEAU?$_Tree_node@U?$pair@$$CBW4PreCond@BT@@V?$basic_string@DU?$char_traits@D@std@@V?$allocator@D@2@@std@@@std@@PEAX@std@@_N@std@@QEAA@$$QEAPEAU?$_Tree_node@U?$pair@$$CBW4PreCond@BT@@V?$basic_string@DU?$char_traits@D@std@@V?$allocator@D@2@@std@@@std@@PEAX@1@$$QEA_N@Z
	??$?0PEAU?$_Tree_node@V?$basic_string@DU?$char_traits@D@std@@V?$allocator@D@2@@std@@PEAX@std@@_N$0A@@?$pair@PEAU?$_Tree_node@V?$basic_string@DU?$char_traits@D@std@@V?$allocator@D@2@@std@@PEAX@std@@_N@std@@QEAA@$$QEAPEAU?$_Tree_node@V?$basic_string@DU?$char_traits@D@std@@V?$allocator@D@2@@std@@PEAX@1@$$QEA_N@Z
	??$?0PEAU?$_Tree_node@V?$basic_string_view@DU?$char_traits@D@std@@@std@@PEAX@std@@_N$0A@@?$pair@PEAU?$_Tree_node@V?$basic_string_view@DU?$char_traits@D@std@@@std@@PEAX@std@@_N@std@@QEAA@$$QEAPEAU?$_Tree_node@V?$basic_string_view@DU?$char_traits@D@std@@@std@@PEAX@1@$$QEA_N@Z
	??$?0PEAU?$_Tree_node@_KPEAX@std@@_N$0A@@?$pair@PEAU?$_Tree_node@_KPEAX@std@@_N@std@@QEAA@$$QEAPEAU?$_Tree_node@_KPEAX@1@$$QEA_N@Z
	??$?0PEAVXMLDocument@tinyxml2@@@?$_List_node_emplace_op2@V?$allocator@U?$_List_node@V?$unique_ptr@VXMLDocument@tinyxml2@@U?$default_delete@VXMLDocument@tinyxml2@@@std@@@std@@PEAX@std@@@std@@@std@@QEAA@AEAV?$allocator@U?$_List_node@V?$unique_ptr@VXMLDocument@tinyxml2@@U?$default_delete@VXMLDocument@tinyxml2@@@std@@@std@@PEAX@std@@@1@$$QEAPEAVXMLDocument@tinyxml2@@@Z
	??$?0PEBD$$BY0BK@D@BehaviorTreeException@BT@@QEAA@AEBQEBDAEAY0BK@$$CBD@Z
	??$?0PEBD$$BY0BK@D@RuntimeError@BT@@QEAA@AEBQEBDAEAY0BK@$$CBD@Z
	??$?0PEBD$0A@@?$expected@Umonostate@std@@V?$basic_string@DU?$char_traits@D@std@@V?$allocator@D@2@@2@@expected_lite@nonstd@@QEAA@$$QEAV?$unexpected_type@PEBD@12@@Z
	??$?0PEBD$0A@@?$expected@V?$basic_string_view@DU?$char_traits@D@std@@@std@@V?$basic_string@DU?$char_traits@D@std@@V?$allocator@D@2@@2@@expected_lite@nonstd@@QEAA@$$QEAV?$unexpected_type@PEBD@12@@Z
	??$?0PEBD$0A@@?$expected@V?$function@$$A6A?AVAny@BT@@AEAUEnvironment@Ast@2@@Z@std@@V?$basic_string@DU?$char_traits@D@std@@V?$allocator@D@2@@2@@expected_lite@nonstd@@QEAA@$$QEAV?$unexpected_type@PEBD@12@@Z
	??$?0PEBD$0A@@?$expected@W4NodeStatus@BT@@V?$basic_string@DU?$char_traits@D@std@@V?$allocator@D@2@@std@@@expected_lite@nonstd@@QEAA@$$QEAV?$unexpected_type@PEBD@12@@Z
	??$?0PEBD$0A@@?$unexpected_type@PEBD@expected_lite@nonstd@@QEAA@$$QEAPEBD@Z
	??$?0PEBD$0A@@path@filesystem@std@@QEAA@AEBQEBDW4format@012@@Z
	??$?0PEB_Q$0A@@?$basic_string@DU?$char_traits@D@std@@V?$allocator@D@2@@std@@QEAA@PEB_Q0AEBV?$allocator@D@1@@Z
	??$?0U?$_List_node@U?$pair@$$CBV?$basic_string@DU?$char_traits@D@std@@V?$allocator@D@2@@std@@V12@@std@@PEAX@std@@@?$allocator@U?$pair@$$CBV?$basic_string@DU?$char_traits@D@std@@V?$allocator@D@2@@std@@V12@@std@@@std@@QEAA@AEBV?$allocator@U?$_List_node@U?$pair@$$CBV?$basic_string@DU?$char_traits@D@std@@V?$allocator@D@2@@std@@V12@@std@@PEAX@std@@@1@@Z
	??$?0U?$_List_node@U?$pair@$$CBV?$basic_string@DU?$char_traits@D@std@@V?$allocator@D@2@@std@@V12@@std@@PEAX@std@@@?$allocator@V?$_List_unchecked_iterator@V?$_List_val@U?$_List_simple_types@U?$pair@$$CBV?$basic_string@DU?$char_traits@D@std@@V?$allocator@D@2@@std@@V12@@std@@@std@@@std@@@std@@@std@@QEAA@AEBV?$allocator@U?$_List_node@U?$pair@$$CBV?$basic_string@DU?$char_traits@D@std@@V?$allocator@D@2@@std@@V12@@std@@PEAX@std@@@1@@Z
	??$?0U?$_List_node@U?$pair@$$CBV?$basic_string@DU?$char_traits@D@std@@V?$allocator@D@2@@std@@VPortInfo@BT@@@std@@PEAX@std@@@?$allocator@U?$pair@$$CBV?$basic_string@DU?$char_traits@D@std@@V?$allocator@D@2@@std@@VPortInfo@BT@@@std@@@std@@QEAA@AEBV?$allocator@U?$_List_node@U?$pair@$$CBV?$basic_string@DU?$char_traits@D@std@@V?$allocator@D@2@@std@@VPortInfo@BT@@@std@@PEAX@std@@@1@@Z
	??$?0U?$_List_node@U?$pair@$$CBV?$basic_string@DU?$char_traits@D@std@@V?$allocator@D@2@@std@@VPortInfo@BT@@@std@@PEAX@std@@@?$allocator@V?$_List_unchecked_iterator@V?$_List_val@U?$_List_simple_types@U?$pair@$$CBV?$basic_string@DU?$char_traits@D@std@@V?$allocator@D@2@@std@@VPortInfo@BT@@@std@@@std@@@std@@@std@@@std@@QEAA@AEBV?$allocator@U?$_List_node@U?$pair@$$CBV?$basic_string@DU?$char_traits@D@std@@V?$allocator@D@2@@std@@VPortInfo@BT@@@std@@PEAX@std@@@1@@Z
	??$?0U?$_Task_impl@E@details@Concurrency@@$0A@@?$weak_ptr@U_Task_impl_base@details@Concurrency@@@std@@QEAA@AEBV?$shared_ptr@U?$_Task_impl@E@details@Concurrency@@@1@@Z
	??$?0U?$_chc@U_blank@ascii@lexyd@@U?$_br@U_backslash@lexyd@@U_nl@2@@3@@lexyd@@@event_handler@?$ws_handler@V?$_ph@U_pr8@lexy@@@lexy@@@_detail@lexy@@QEAA@U?$ws_production@U?$_chc@U_blank@ascii@lexyd@@U?$_br@U_backslash@lexyd@@U_nl@2@@3@@lexyd@@@23@@Z
	??$?0U?$_chc@U_space@ascii@lexyd@@U?$_br@U_backslash@lexyd@@U_nl@2@@3@@lexyd@@@event_handler@?$ws_handler@V?$_ph@U_pr8@lexy@@@lexy@@@_detail@lexy@@QEAA@U?$ws_production@U?$_chc@U_space@ascii@lexyd@@U?$_br@U_backslash@lexyd@@U_nl@2@@3@@lexyd@@@23@@Z
	??$?0U?$_pc@V?$_ph@U_pr8@lexy@@@lexy@@XUExpression@Grammar@BT@@Unested_expr@45@@lexy@@@?$ws_handler@V?$_ph@U_pr8@lexy@@@lexy@@@_detail@lexy@@QEAA@AEAU?$_pc@V?$_ph@U_pr8@lexy@@@lexy@@XUExpression@Grammar@BT@@Unested_expr@45@@2@@Z
	??$?0U?$_pc@V?$_ph@U_pr8@lexy@@@lexy@@XUExpression@Grammar@BT@@Ustmt@45@@lexy@@@?$ws_handler@V?$_ph@U_pr8@lexy@@@lexy@@@_detail@lexy@@QEAA@AEAU?$_pc@V?$_ph@U_pr8@lexy@@@lexy@@XUExpression@Grammar@BT@@Ustmt@45@@2@@Z
	??$?0U?$_pc@V?$_ph@U_pr8@lexy@@@lexy@@XUName@Grammar@BT@@Unested_expr@45@@lexy@@@?$ws_handler@V?$_ph@U_pr8@lexy@@@lexy@@@_detail@lexy@@QEAA@AEAU?$_pc@V?$_ph@U_pr8@lexy@@@lexy@@XUName@Grammar@BT@@Unested_expr@45@@2@@Z
	??$?0U?$_pc@V?$_ph@U_pr8@lexy@@@lexy@@XUName@Grammar@BT@@Ustmt@45@@lexy@@@?$ws_handler@V?$_ph@U_pr8@lexy@@@lexy@@@_detail@lexy@@QEAA@AEAU?$_pc@V?$_ph@U_pr8@lexy@@@lexy@@XUName@Grammar@BT@@Ustmt@45@@2@@Z
	??$?0U?$_pc@V?$_ph@U_pr8@lexy@@@lexy@@XUnested_expr@Grammar@BT@@U345@@lexy@@@?$ws_handler@V?$_ph@U_pr8@lexy@@@lexy@@@_detail@lexy@@QEAA@AEAU?$_pc@V?$_ph@U_pr8@lexy@@@lexy@@XUnested_expr@Grammar@BT@@U345@@2@@Z
	??$?0U?$_pc@V?$_ph@U_pr8@lexy@@@lexy@@XUstmt@Grammar@BT@@U345@@lexy@@@?$ws_handler@V?$_ph@U_pr8@lexy@@@lexy@@@_detail@lexy@@QEAA@AEAU?$_pc@V?$_ph@U_pr8@lexy@@@lexy@@XUstmt@Grammar@BT@@U345@@2@@Z
	??$?0U?$default_delete@UExprComparison@Ast@BT@@@std@@$0A@@?$unique_ptr@UExprComparison@Ast@BT@@U?$default_delete@UExprComparison@Ast@BT@@@std@@@std@@QEAA@$$QEAV01@@Z
	??$?0U?$default_delete@UExprComparison@Ast@BT@@@std@@$0A@@?$unique_ptr@UExprComparison@Ast@BT@@U?$default_delete@UExprComparison@Ast@BT@@@std@@@std@@QEAA@PEAUExprComparison@Ast@BT@@@Z
	??$?0U?$default_delete@UExprComparison@Ast@BT@@@std@@AEAPEAUExprComparison@Ast@BT@@@?$_Compressed_pair@U?$default_delete@UExprComparison@Ast@BT@@@std@@PEAUExprComparison@Ast@BT@@$00@std@@QEAA@U_One_then_variadic_args_t@1@$$QEAU?$default_delete@UExprComparison@Ast@BT@@@1@AEAPEAUExprComparison@Ast@BT@@@Z
	??$?0U?$default_delete@UExprComparison@Ast@BT@@@std@@PEAUExprComparison@Ast@BT@@@?$_Compressed_pair@U?$default_delete@UExprComparison@Ast@BT@@@std@@PEAUExprComparison@Ast@BT@@$00@std@@QEAA@U_One_then_variadic_args_t@1@$$QEAU?$default_delete@UExprComparison@Ast@BT@@@1@$$QEAPEAUExprComparison@Ast@BT@@@Z
	??$?0U?$default_delete@UPimpl@CoroActionNode@BT@@@std@@$0A@@?$unique_ptr@UPimpl@CoroActionNode@BT@@U?$default_delete@UPimpl@CoroActionNode@BT@@@std@@@std@@QEAA@PEAUPimpl@CoroActionNode@BT@@@Z
	??$?0U?$default_delete@U_TaskProcHandle@details@Concurrency@@@std@@$0A@@?$unique_ptr@U_TaskProcHandle@details@Concurrency@@U?$default_delete@U_TaskProcHandle@details@Concurrency@@@std@@@std@@QEAA@PEAU_TaskProcHandle@details@Concurrency@@@Z
	??$?0U?$default_delete@V?$SwitchNode@$01@BT@@@std@@$0A@@?$unique_ptr@V?$SwitchNode@$01@BT@@U?$default_delete@V?$SwitchNode@$01@BT@@@std@@@std@@QEAA@PEAV?$SwitchNode@$01@BT@@@Z
	??$?0U?$default_delete@V?$SwitchNode@$01@BT@@@std@@PEAV?$SwitchNode@$01@BT@@@?$_Compressed_pair@U?$default_delete@VTreeNode@BT@@@std@@PEAVTreeNode@BT@@$00@std@@QEAA@U_One_then_variadic_args_t@1@$$QEAU?$default_delete@V?$SwitchNode@$01@BT@@@1@$$QEAPEAV?$SwitchNode@$01@BT@@@Z
	??$?0U?$default_delete@V?$SwitchNode@$02@BT@@@std@@$0A@@?$unique_ptr@V?$SwitchNode@$02@BT@@U?$default_delete@V?$SwitchNode@$02@BT@@@std@@@std@@QEAA@PEAV?$SwitchNode@$02@BT@@@Z
	??$?0U?$default_delete@V?$SwitchNode@$02@BT@@@std@@PEAV?$SwitchNode@$02@BT@@@?$_Compressed_pair@U?$default_delete@VTreeNode@BT@@@std@@PEAVTreeNode@BT@@$00@std@@QEAA@U_One_then_variadic_args_t@1@$$QEAU?$default_delete@V?$SwitchNode@$02@BT@@@1@$$QEAPEAV?$SwitchNode@$02@BT@@@Z
	??$?0U?$default_delete@V?$SwitchNode@$03@BT@@@std@@$0A@@?$unique_ptr@V?$SwitchNode@$03@BT@@U?$default_delete@V?$SwitchNode@$03@BT@@@std@@@std@@QEAA@PEAV?$SwitchNode@$03@BT@@@Z
	??$?0U?$default_delete@V?$SwitchNode@$03@BT@@@std@@PEAV?$SwitchNode@$03@BT@@@?$_Compressed_pair@U?$default_delete@VTreeNode@BT@@@std@@PEAVTreeNode@BT@@$00@std@@QEAA@U_One_then_variadic_args_t@1@$$QEAU?$default_delete@V?$SwitchNode@$03@BT@@@1@$$QEAPEAV?$SwitchNode@$03@BT@@@Z
	??$?0U?$default_delete@V?$SwitchNode@$04@BT@@@std@@$0A@@?$unique_ptr@V?$SwitchNode@$04@BT@@U?$default_delete@V?$SwitchNode@$04@BT@@@std@@@std@@QEAA@PEAV?$SwitchNode@$04@BT@@@Z
	??$?0U?$default_delete@V?$SwitchNode@$04@BT@@@std@@PEAV?$SwitchNode@$04@BT@@@?$_Compressed_pair@U?$default_delete@VTreeNode@BT@@@std@@PEAVTreeNode@BT@@$00@std@@QEAA@U_One_then_variadic_args_t@1@$$QEAU?$default_delete@V?$SwitchNode@$04@BT@@@1@$$QEAPEAV?$SwitchNode@$04@BT@@@Z
	??$?0U?$default_delete@V?$SwitchNode@$05@BT@@@std@@$0A@@?$unique_ptr@V?$SwitchNode@$05@BT@@U?$default_delete@V?$SwitchNode@$05@BT@@@std@@@std@@QEAA@PEAV?$SwitchNode@$05@BT@@@Z
	??$?0U?$default_delete@V?$SwitchNode@$05@BT@@@std@@PEAV?$SwitchNode@$05@BT@@@?$_Compressed_pair@U?$default_delete@VTreeNode@BT@@@std@@PEAVTreeNode@BT@@$00@std@@QEAA@U_One_then_variadic_args_t@1@$$QEAU?$default_delete@V?$SwitchNode@$05@BT@@@1@$$QEAPEAV?$SwitchNode@$05@BT@@@Z
	??$?0U?$default_delete@V?$TimeoutNode@Usteady_clock@chrono@std@@V?$duration@_JU?$ratio@$00$0DLJKMKAA@@std@@@23@@BT@@@std@@$0A@@?$unique_ptr@V?$TimeoutNode@Usteady_clock@chrono@std@@V?$duration@_JU?$ratio@$00$0DLJKMKAA@@std@@@23@@BT@@U?$default_delete@V?$TimeoutNode@Usteady_clock@chrono@std@@V?$duration@_JU?$ratio@$00$0DLJKMKAA@@std@@@23@@BT@@@std@@@std@@QEAA@PEAV?$TimeoutNode@Usteady_clock@chrono@std@@V?$duration@_JU?$ratio@$00$0DLJKMKAA@@std@@@23@@BT@@@Z
	??$?0U?$default_delete@V?$TimeoutNode@Usteady_clock@chrono@std@@V?$duration@_JU?$ratio@$00$0DLJKMKAA@@std@@@23@@BT@@@std@@PEAV?$TimeoutNode@Usteady_clock@chrono@std@@V?$duration@_JU?$ratio@$00$0DLJKMKAA@@std@@@23@@BT@@@?$_Compressed_pair@U?$default_delete@VTreeNode@BT@@@std@@PEAVTreeNode@BT@@$00@std@@QEAA@U_One_then_variadic_args_t@1@$$QEAU?$default_delete@V?$TimeoutNode@Usteady_clock@chrono@std@@V?$duration@_JU?$ratio@$00$0DLJKMKAA@@std@@@23@@BT@@@1@$$QEAPEAV?$TimeoutNode@Usteady_clock@chrono@std@@V?$duration@_JU?$ratio@$00$0DLJKMKAA@@std@@@23@@BT@@@Z
	??$?0U?$default_delete@V?$pull_coroutine@X@detail@coroutines2@boost@@@std@@$0A@@?$unique_ptr@V?$pull_coroutine@X@detail@coroutines2@boost@@U?$default_delete@V?$pull_coroutine@X@detail@coroutines2@boost@@@std@@@std@@QEAA@XZ
	??$?0U?$default_delete@V?$tuple@V<lambda_1>@?1???0?$TimerQueue@Usteady_clock@chrono@std@@V?$duration@_JU?$ratio@$00$0DLJKMKAA@@std@@@23@@BT@@QEAA@XZ@@std@@@std@@$0A@@?$unique_ptr@V?$tuple@V<lambda_1>@?1???0?$TimerQueue@Usteady_clock@chrono@std@@V?$duration@_JU?$ratio@$00$0DLJKMKAA@@std@@@23@@BT@@QEAA@XZ@@std@@U?$default_delete@V?$tuple@V<lambda_1>@?1???0?$TimerQueue@Usteady_clock@chrono@std@@V?$duration@_JU?$ratio@$00$0DLJKMKAA@@std@@@23@@BT@@QEAA@XZ@@std@@@2@@std@@QEAA@PEAV?$tuple@V<lambda_1>@?1???0?$TimerQueue@Usteady_clock@chrono@std@@V?$duration@_JU?$ratio@$00$0DLJKMKAA@@std@@@23@@BT@@QEAA@XZ@@1@@Z
	??$?0U?$default_delete@VAlwaysFailureNode@BT@@@std@@$0A@@?$unique_ptr@VAlwaysFailureNode@BT@@U?$default_delete@VAlwaysFailureNode@BT@@@std@@@std@@QEAA@PEAVAlwaysFailureNode@BT@@@Z
	??$?0U?$default_delete@VAlwaysFailureNode@BT@@@std@@PEAVAlwaysFailureNode@BT@@@?$_Compressed_pair@U?$default_delete@VTreeNode@BT@@@std@@PEAVTreeNode@BT@@$00@std@@QEAA@U_One_then_variadic_args_t@1@$$QEAU?$default_delete@VAlwaysFailureNode@BT@@@1@$$QEAPEAVAlwaysFailureNode@BT@@@Z
	??$?0U?$default_delete@VAlwaysSuccessNode@BT@@@std@@$0A@@?$unique_ptr@VAlwaysSuccessNode@BT@@U?$default_delete@VAlwaysSuccessNode@BT@@@std@@@std@@QEAA@PEAVAlwaysSuccessNode@BT@@@Z
	??$?0U?$default_delete@VAlwaysSuccessNode@BT@@@std@@PEAVAlwaysSuccessNode@BT@@@?$_Compressed_pair@U?$default_delete@VTreeNode@BT@@@std@@PEAVTreeNode@BT@@$00@std@@QEAA@U_One_then_variadic_args_t@1@$$QEAU?$default_delete@VAlwaysSuccessNode@BT@@@1@$$QEAPEAVAlwaysSuccessNode@BT@@@Z
	??$?0U?$default_delete@VDelayNode@BT@@@std@@$0A@@?$unique_ptr@VDelayNode@BT@@U?$default_delete@VDelayNode@BT@@@std@@@std@@QEAA@PEAVDelayNode@BT@@@Z
	??$?0U?$default_delete@VDelayNode@BT@@@std@@PEAVDelayNode@BT@@@?$_Compressed_pair@U?$default_delete@VTreeNode@BT@@@std@@PEAVTreeNode@BT@@$00@std@@QEAA@U_One_then_variadic_args_t@1@$$QEAU?$default_delete@VDelayNode@BT@@@1@$$QEAPEAVDelayNode@BT@@@Z
	??$?0U?$default_delete@VFallbackNode@BT@@@std@@$0A@@?$unique_ptr@VFallbackNode@BT@@U?$default_delete@VFallbackNode@BT@@@std@@@std@@QEAA@PEAVFallbackNode@BT@@@Z
	??$?0U?$default_delete@VFallbackNode@BT@@@std@@PEAVFallbackNode@BT@@@?$_Compressed_pair@U?$default_delete@VTreeNode@BT@@@std@@PEAVTreeNode@BT@@$00@std@@QEAA@U_One_then_variadic_args_t@1@$$QEAU?$default_delete@VFallbackNode@BT@@@1@$$QEAPEAVFallbackNode@BT@@@Z
	??$?0U?$default_delete@VForceFailureNode@BT@@@std@@$0A@@?$unique_ptr@VForceFailureNode@BT@@U?$default_delete@VForceFailureNode@BT@@@std@@@std@@QEAA@PEAVForceFailureNode@BT@@@Z
	??$?0U?$default_delete@VForceFailureNode@BT@@@std@@PEAVForceFailureNode@BT@@@?$_Compressed_pair@U?$default_delete@VTreeNode@BT@@@std@@PEAVTreeNode@BT@@$00@std@@QEAA@U_One_then_variadic_args_t@1@$$QEAU?$default_delete@VForceFailureNode@BT@@@1@$$QEAPEAVForceFailureNode@BT@@@Z
	??$?0U?$default_delete@VForceSuccessNode@BT@@@std@@$0A@@?$unique_ptr@VForceSuccessNode@BT@@U?$default_delete@VForceSuccessNode@BT@@@std@@@std@@QEAA@PEAVForceSuccessNode@BT@@@Z
	??$?0U?$default_delete@VForceSuccessNode@BT@@@std@@PEAVForceSuccessNode@BT@@@?$_Compressed_pair@U?$default_delete@VTreeNode@BT@@@std@@PEAVTreeNode@BT@@$00@std@@QEAA@U_One_then_variadic_args_t@1@$$QEAU?$default_delete@VForceSuccessNode@BT@@@1@$$QEAPEAVForceSuccessNode@BT@@@Z
	??$?0U?$default_delete@VIfThenElseNode@BT@@@std@@$0A@@?$unique_ptr@VIfThenElseNode@BT@@U?$default_delete@VIfThenElseNode@BT@@@std@@@std@@QEAA@PEAVIfThenElseNode@BT@@@Z
	??$?0U?$default_delete@VIfThenElseNode@BT@@@std@@PEAVIfThenElseNode@BT@@@?$_Compressed_pair@U?$default_delete@VTreeNode@BT@@@std@@PEAVTreeNode@BT@@$00@std@@QEAA@U_One_then_variadic_args_t@1@$$QEAU?$default_delete@VIfThenElseNode@BT@@@1@$$QEAPEAVIfThenElseNode@BT@@@Z
	??$?0U?$default_delete@VInverterNode@BT@@@std@@$0A@@?$unique_ptr@VInverterNode@BT@@U?$default_delete@VInverterNode@BT@@@std@@@std@@QEAA@PEAVInverterNode@BT@@@Z
	??$?0U?$default_delete@VInverterNode@BT@@@std@@PEAVInverterNode@BT@@@?$_Compressed_pair@U?$default_delete@VTreeNode@BT@@@std@@PEAVTreeNode@BT@@$00@std@@QEAA@U_One_then_variadic_args_t@1@$$QEAU?$default_delete@VInverterNode@BT@@@1@$$QEAPEAVInverterNode@BT@@@Z
	??$?0U?$default_delete@VKeepRunningUntilFailureNode@BT@@@std@@$0A@@?$unique_ptr@VKeepRunningUntilFailureNode@BT@@U?$default_delete@VKeepRunningUntilFailureNode@BT@@@std@@@std@@QEAA@PEAVKeepRunningUntilFailureNode@BT@@@Z
	??$?0U?$default_delete@VKeepRunningUntilFailureNode@BT@@@std@@PEAVKeepRunningUntilFailureNode@BT@@@?$_Compressed_pair@U?$default_delete@VTreeNode@BT@@@std@@PEAVTreeNode@BT@@$00@std@@QEAA@U_One_then_variadic_args_t@1@$$QEAU?$default_delete@VKeepRunningUntilFailureNode@BT@@@1@$$QEAPEAVKeepRunningUntilFailureNode@BT@@@Z
	??$?0U?$default_delete@VParallelNode@BT@@@std@@$0A@@?$unique_ptr@VParallelNode@BT@@U?$default_delete@VParallelNode@BT@@@std@@@std@@QEAA@PEAVParallelNode@BT@@@Z
	??$?0U?$default_delete@VParallelNode@BT@@@std@@PEAVParallelNode@BT@@@?$_Compressed_pair@U?$default_delete@VTreeNode@BT@@@std@@PEAVTreeNode@BT@@$00@std@@QEAA@U_One_then_variadic_args_t@1@$$QEAU?$default_delete@VParallelNode@BT@@@1@$$QEAPEAVParallelNode@BT@@@Z
	??$?0U?$default_delete@VPreconditionNode@BT@@@std@@$0A@@?$unique_ptr@VPreconditionNode@BT@@U?$default_delete@VPreconditionNode@BT@@@std@@@std@@QEAA@PEAVPreconditionNode@BT@@@Z
	??$?0U?$default_delete@VPreconditionNode@BT@@@std@@PEAVPreconditionNode@BT@@@?$_Compressed_pair@U?$default_delete@VTreeNode@BT@@@std@@PEAVTreeNode@BT@@$00@std@@QEAA@U_One_then_variadic_args_t@1@$$QEAU?$default_delete@VPreconditionNode@BT@@@1@$$QEAPEAVPreconditionNode@BT@@@Z
	??$?0U?$default_delete@VReactiveFallback@BT@@@std@@$0A@@?$unique_ptr@VReactiveFallback@BT@@U?$default_delete@VReactiveFallback@BT@@@std@@@std@@QEAA@PEAVReactiveFallback@BT@@@Z
	??$?0U?$default_delete@VReactiveFallback@BT@@@std@@PEAVReactiveFallback@BT@@@?$_Compressed_pair@U?$default_delete@VTreeNode@BT@@@std@@PEAVTreeNode@BT@@$00@std@@QEAA@U_One_then_variadic_args_t@1@$$QEAU?$default_delete@VReactiveFallback@BT@@@1@$$QEAPEAVReactiveFallback@BT@@@Z
	??$?0U?$default_delete@VReactiveSequence@BT@@@std@@$0A@@?$unique_ptr@VReactiveSequence@BT@@U?$default_delete@VReactiveSequence@BT@@@std@@@std@@QEAA@PEAVReactiveSequence@BT@@@Z
	??$?0U?$default_delete@VReactiveSequence@BT@@@std@@PEAVReactiveSequence@BT@@@?$_Compressed_pair@U?$default_delete@VTreeNode@BT@@@std@@PEAVTreeNode@BT@@$00@std@@QEAA@U_One_then_variadic_args_t@1@$$QEAU?$default_delete@VReactiveSequence@BT@@@1@$$QEAPEAVReactiveSequence@BT@@@Z
	??$?0U?$default_delete@VRepeatNode@BT@@@std@@$0A@@?$unique_ptr@VRepeatNode@BT@@U?$default_delete@VRepeatNode@BT@@@std@@@std@@QEAA@PEAVRepeatNode@BT@@@Z
	??$?0U?$default_delete@VRepeatNode@BT@@@std@@PEAVRepeatNode@BT@@@?$_Compressed_pair@U?$default_delete@VTreeNode@BT@@@std@@PEAVTreeNode@BT@@$00@std@@QEAA@U_One_then_variadic_args_t@1@$$QEAU?$default_delete@VRepeatNode@BT@@@1@$$QEAPEAVRepeatNode@BT@@@Z
	??$?0U?$default_delete@VRetryNode@BT@@@std@@$0A@@?$unique_ptr@VRetryNode@BT@@U?$default_delete@VRetryNode@BT@@@std@@@std@@QEAA@PEAVRetryNode@BT@@@Z
	??$?0U?$default_delete@VRetryNode@BT@@@std@@PEAVRetryNode@BT@@@?$_Compressed_pair@U?$default_delete@VTreeNode@BT@@@std@@PEAVTreeNode@BT@@$00@std@@QEAA@U_One_then_variadic_args_t@1@$$QEAU?$default_delete@VRetryNode@BT@@@1@$$QEAPEAVRetryNode@BT@@@Z
	??$?0U?$default_delete@VScriptNode@BT@@@std@@$0A@@?$unique_ptr@VScriptNode@BT@@U?$default_delete@VScriptNode@BT@@@std@@@std@@QEAA@PEAVScriptNode@BT@@@Z
	??$?0U?$default_delete@VScriptNode@BT@@@std@@PEAVScriptNode@BT@@@?$_Compressed_pair@U?$default_delete@VTreeNode@BT@@@std@@PEAVTreeNode@BT@@$00@std@@QEAA@U_One_then_variadic_args_t@1@$$QEAU?$default_delete@VScriptNode@BT@@@1@$$QEAPEAVScriptNode@BT@@@Z
	??$?0U?$default_delete@VSequenceNode@BT@@@std@@$0A@@?$unique_ptr@VSequenceNode@BT@@U?$default_delete@VSequenceNode@BT@@@std@@@std@@QEAA@PEAVSequenceNode@BT@@@Z
	??$?0U?$default_delete@VSequenceNode@BT@@@std@@PEAVSequenceNode@BT@@@?$_Compressed_pair@U?$default_delete@VTreeNode@BT@@@std@@PEAVTreeNode@BT@@$00@std@@QEAA@U_One_then_variadic_args_t@1@$$QEAU?$default_delete@VSequenceNode@BT@@@1@$$QEAPEAVSequenceNode@BT@@@Z
	??$?0U?$default_delete@VSequenceWithMemory@BT@@@std@@$0A@@?$unique_ptr@VSequenceWithMemory@BT@@U?$default_delete@VSequenceWithMemory@BT@@@std@@@std@@QEAA@PEAVSequenceWithMemory@BT@@@Z
	??$?0U?$default_delete@VSequenceWithMemory@BT@@@std@@PEAVSequenceWithMemory@BT@@@?$_Compressed_pair@U?$default_delete@VTreeNode@BT@@@std@@PEAVTreeNode@BT@@$00@std@@QEAA@U_One_then_variadic_args_t@1@$$QEAU?$default_delete@VSequenceWithMemory@BT@@@1@$$QEAPEAVSequenceWithMemory@BT@@@Z
	??$?0U?$default_delete@VSetBlackboard@BT@@@std@@$0A@@?$unique_ptr@VSetBlackboard@BT@@U?$default_delete@VSetBlackboard@BT@@@std@@@std@@QEAA@PEAVSetBlackboard@BT@@@Z
	??$?0U?$default_delete@VSetBlackboard@BT@@@std@@PEAVSetBlackboard@BT@@@?$_Compressed_pair@U?$default_delete@VTreeNode@BT@@@std@@PEAVTreeNode@BT@@$00@std@@QEAA@U_One_then_variadic_args_t@1@$$QEAU?$default_delete@VSetBlackboard@BT@@@1@$$QEAPEAVSetBlackboard@BT@@@Z
	??$?0U?$default_delete@VSimpleActionNode@BT@@@std@@$0A@@?$unique_ptr@VSimpleActionNode@BT@@U?$default_delete@VSimpleActionNode@BT@@@std@@@std@@QEAA@PEAVSimpleActionNode@BT@@@Z
	??$?0U?$default_delete@VSimpleActionNode@BT@@@std@@PEAVSimpleActionNode@BT@@@?$_Compressed_pair@U?$default_delete@VTreeNode@BT@@@std@@PEAVTreeNode@BT@@$00@std@@QEAA@U_One_then_variadic_args_t@1@$$QEAU?$default_delete@VSimpleActionNode@BT@@@1@$$QEAPEAVSimpleActionNode@BT@@@Z
	??$?0U?$default_delete@VSimpleConditionNode@BT@@@std@@$0A@@?$unique_ptr@VSimpleConditionNode@BT@@U?$default_delete@VSimpleConditionNode@BT@@@std@@@std@@QEAA@PEAVSimpleConditionNode@BT@@@Z
	??$?0U?$default_delete@VSimpleConditionNode@BT@@@std@@PEAVSimpleConditionNode@BT@@@?$_Compressed_pair@U?$default_delete@VTreeNode@BT@@@std@@PEAVTreeNode@BT@@$00@std@@QEAA@U_One_then_variadic_args_t@1@$$QEAU?$default_delete@VSimpleConditionNode@BT@@@1@$$QEAPEAVSimpleConditionNode@BT@@@Z
	??$?0U?$default_delete@VSimpleDecoratorNode@BT@@@std@@$0A@@?$unique_ptr@VSimpleDecoratorNode@BT@@U?$default_delete@VSimpleDecoratorNode@BT@@@std@@@std@@QEAA@PEAVSimpleDecoratorNode@BT@@@Z
	??$?0U?$default_delete@VSimpleDecoratorNode@BT@@@std@@PEAVSimpleDecoratorNode@BT@@@?$_Compressed_pair@U?$default_delete@VTreeNode@BT@@@std@@PEAVTreeNode@BT@@$00@std@@QEAA@U_One_then_variadic_args_t@1@$$QEAU?$default_delete@VSimpleDecoratorNode@BT@@@1@$$QEAPEAVSimpleDecoratorNode@BT@@@Z
	??$?0U?$default_delete@VSubTreeNode@BT@@@std@@$0A@@?$unique_ptr@VSubTreeNode@BT@@U?$default_delete@VSubTreeNode@BT@@@std@@@std@@QEAA@PEAVSubTreeNode@BT@@@Z
	??$?0U?$default_delete@VSubTreeNode@BT@@@std@@PEAVSubTreeNode@BT@@@?$_Compressed_pair@U?$default_delete@VTreeNode@BT@@@std@@PEAVTreeNode@BT@@$00@std@@QEAA@U_One_then_variadic_args_t@1@$$QEAU?$default_delete@VSubTreeNode@BT@@@1@$$QEAPEAVSubTreeNode@BT@@@Z
	??$?0U?$default_delete@VTreeNode@BT@@@std@@$0A@@?$unique_ptr@VTreeNode@BT@@U?$default_delete@VTreeNode@BT@@@std@@@std@@QEAA@$$QEAV01@@Z
	??$?0U?$default_delete@VTreeNode@BT@@@std@@AEAPEAVTreeNode@BT@@@?$_Compressed_pair@U?$default_delete@VTreeNode@BT@@@std@@PEAVTreeNode@BT@@$00@std@@QEAA@U_One_then_variadic_args_t@1@$$QEAU?$default_delete@VTreeNode@BT@@@1@AEAPEAVTreeNode@BT@@@Z
	??$?0U?$default_delete@VTreeNode@BT@@@std@@PEAVTreeNode@BT@@@?$_Compressed_pair@U?$default_delete@VTreeNode@BT@@@std@@PEAVTreeNode@BT@@$00@std@@QEAA@U_One_then_variadic_args_t@1@$$QEAU?$default_delete@VTreeNode@BT@@@1@$$QEAPEAVTreeNode@BT@@@Z
	??$?0U?$default_delete@VWhileDoElseNode@BT@@@std@@$0A@@?$unique_ptr@VWhileDoElseNode@BT@@U?$default_delete@VWhileDoElseNode@BT@@@std@@@std@@QEAA@PEAVWhileDoElseNode@BT@@@Z
	??$?0U?$default_delete@VWhileDoElseNode@BT@@@std@@PEAVWhileDoElseNode@BT@@@?$_Compressed_pair@U?$default_delete@VTreeNode@BT@@@std@@PEAVTreeNode@BT@@$00@std@@QEAA@U_One_then_variadic_args_t@1@$$QEAU?$default_delete@VWhileDoElseNode@BT@@@1@$$QEAPEAVWhileDoElseNode@BT@@@Z
	??$?0U?$default_delete@VXMLDocument@tinyxml2@@@std@@$0A@@?$unique_ptr@VXMLDocument@tinyxml2@@U?$default_delete@VXMLDocument@tinyxml2@@@std@@@std@@QEAA@PEAVXMLDocument@tinyxml2@@@Z
	??$?0U?$default_delete@V_Facet_base@std@@@std@@$0A@@?$unique_ptr@V_Facet_base@std@@U?$default_delete@V_Facet_base@std@@@2@@std@@QEAA@PEAV_Facet_base@1@@Z
	??$?0U?$default_delete@V_PPLTaskChore@_DefaultPPLTaskScheduler@details@Concurrency@@@std@@$0A@@?$unique_ptr@V_PPLTaskChore@_DefaultPPLTaskScheduler@details@Concurrency@@U?$default_delete@V_PPLTaskChore@_DefaultPPLTaskScheduler@details@Concurrency@@@std@@@std@@QEAA@PEAV_PPLTaskChore@_DefaultPPLTaskScheduler@details@Concurrency@@@Z
	??$?0U?$less@W4PostCond@BT@@@std@@U_One_then_variadic_args_t@1@V?$allocator@U?$_Tree_node@U?$pair@$$CBW4PostCond@BT@@V?$basic_string@DU?$char_traits@D@std@@V?$allocator@D@2@@std@@@std@@PEAX@std@@@1@@?$_Compressed_pair@U?$less@W4PostCond@BT@@@std@@V?$_Compressed_pair@V?$allocator@U?$_Tree_node@U?$pair@$$CBW4PostCond@BT@@V?$basic_string@DU?$char_traits@D@std@@V?$allocator@D@2@@std@@@std@@PEAX@std@@@std@@V?$_Tree_val@U?$_Tree_simple_types@U?$pair@$$CBW4PostCond@BT@@V?$basic_string@DU?$char_traits@D@std@@V?$allocator@D@2@@std@@@std@@@std@@@2@$00@2@$00@std@@QEAA@U_One_then_variadic_args_t@1@$$QEAU?$less@W4PostCond@BT@@@1@$$QEAU21@$$QEAV?$allocator@U?$_Tree_node@U?$pair@$$CBW4PostCond@BT@@V?$basic_string@DU?$char_traits@D@std@@V?$allocator@D@2@@std@@@std@@PEAX@std@@@1@@Z
	??$?0U?$less@W4PreCond@BT@@@std@@U_One_then_variadic_args_t@1@V?$allocator@U?$_Tree_node@U?$pair@$$CBW4PreCond@BT@@V?$basic_string@DU?$char_traits@D@std@@V?$allocator@D@2@@std@@@std@@PEAX@std@@@1@@?$_Compressed_pair@U?$less@W4PreCond@BT@@@std@@V?$_Compressed_pair@V?$allocator@U?$_Tree_node@U?$pair@$$CBW4PreCond@BT@@V?$basic_string@DU?$char_traits@D@std@@V?$allocator@D@2@@std@@@std@@PEAX@std@@@std@@V?$_Tree_val@U?$_Tree_simple_types@U?$pair@$$CBW4PreCond@BT@@V?$basic_string@DU?$char_traits@D@std@@V?$allocator@D@2@@std@@@std@@@std@@@2@$00@2@$00@std@@QEAA@U_One_then_variadic_args_t@1@$$QEAU?$less@W4PreCond@BT@@@1@$$QEAU21@$$QEAV?$allocator@U?$_Tree_node@U?$pair@$$CBW4PreCond@BT@@V?$basic_string@DU?$char_traits@D@std@@V?$allocator@D@2@@std@@@std@@PEAX@std@@@1@@Z
	??$?0U?$pair@$$CBV?$basic_string@DU?$char_traits@D@std@@V?$allocator@D@2@@std@@H@std@@@?$allocator@U?$_List_node@U?$pair@$$CBV?$basic_string@DU?$char_traits@D@std@@V?$allocator@D@2@@std@@H@std@@PEAX@std@@@std@@QEAA@AEBV?$allocator@U?$pair@$$CBV?$basic_string@DU?$char_traits@D@std@@V?$allocator@D@2@@std@@H@std@@@1@@Z
	??$?0U?$pair@$$CBV?$basic_string@DU?$char_traits@D@std@@V?$allocator@D@2@@std@@H@std@@@?$allocator@V?$_List_unchecked_iterator@V?$_List_val@U?$_List_simple_types@U?$pair@$$CBV?$basic_string@DU?$char_traits@D@std@@V?$allocator@D@2@@std@@H@std@@@std@@@std@@@std@@@std@@QEAA@AEBV?$allocator@U?$pair@$$CBV?$basic_string@DU?$char_traits@D@std@@V?$allocator@D@2@@std@@H@std@@@1@@Z
	??$?0U?$pair@$$CBV?$basic_string@DU?$char_traits@D@std@@V?$allocator@D@2@@std@@UEntry@Blackboard@BT@@@std@@@?$allocator@U?$_List_node@U?$pair@$$CBV?$basic_string@DU?$char_traits@D@std@@V?$allocator@D@2@@std@@UEntry@Blackboard@BT@@@std@@PEAX@std@@@std@@QEAA@AEBV?$allocator@U?$pair@$$CBV?$basic_string@DU?$char_traits@D@std@@V?$allocator@D@2@@std@@UEntry@Blackboard@BT@@@std@@@1@@Z
	??$?0U?$pair@$$CBV?$basic_string@DU?$char_traits@D@std@@V?$allocator@D@2@@std@@UEntry@Blackboard@BT@@@std@@@?$allocator@V?$_List_unchecked_iterator@V?$_List_val@U?$_List_simple_types@U?$pair@$$CBV?$basic_string@DU?$char_traits@D@std@@V?$allocator@D@2@@std@@UEntry@Blackboard@BT@@@std@@@std@@@std@@@std@@@std@@QEAA@AEBV?$allocator@U?$pair@$$CBV?$basic_string@DU?$char_traits@D@std@@V?$allocator@D@2@@std@@UEntry@Blackboard@BT@@@std@@@1@@Z
	??$?0U?$pair@$$CBV?$basic_string@DU?$char_traits@D@std@@V?$allocator@D@2@@std@@UTreeNodeManifest@BT@@@std@@@?$_List_node_emplace_op2@V?$allocator@U?$_List_node@U?$pair@$$CBV?$basic_string@DU?$char_traits@D@std@@V?$allocator@D@2@@std@@UTreeNodeManifest@BT@@@std@@PEAX@std@@@std@@@std@@QEAA@AEAV?$allocator@U?$_List_node@U?$pair@$$CBV?$basic_string@DU?$char_traits@D@std@@V?$allocator@D@2@@std@@UTreeNodeManifest@BT@@@std@@PEAX@std@@@1@$$QEAU?$pair@$$CBV?$basic_string@DU?$char_traits@D@std@@V?$allocator@D@2@@std@@UTreeNodeManifest@BT@@@1@@Z
	??$?0U?$pair@$$CBV?$basic_string@DU?$char_traits@D@std@@V?$allocator@D@2@@std@@UTreeNodeManifest@BT@@@std@@@?$allocator@U?$_List_node@U?$pair@$$CBV?$basic_string@DU?$char_traits@D@std@@V?$allocator@D@2@@std@@UTreeNodeManifest@BT@@@std@@PEAX@std@@@std@@QEAA@AEBV?$allocator@U?$pair@$$CBV?$basic_string@DU?$char_traits@D@std@@V?$allocator@D@2@@std@@UTreeNodeManifest@BT@@@std@@@1@@Z
	??$?0U?$pair@$$CBV?$basic_string@DU?$char_traits@D@std@@V?$allocator@D@2@@std@@UTreeNodeManifest@BT@@@std@@@?$allocator@V?$_List_unchecked_iterator@V?$_List_val@U?$_List_simple_types@U?$pair@$$CBV?$basic_string@DU?$char_traits@D@std@@V?$allocator@D@2@@std@@UTreeNodeManifest@BT@@@std@@@std@@@std@@@std@@@std@@QEAA@AEBV?$allocator@U?$pair@$$CBV?$basic_string@DU?$char_traits@D@std@@V?$allocator@D@2@@std@@UTreeNodeManifest@BT@@@std@@@1@@Z
	??$?0U?$pair@$$CBV?$basic_string@DU?$char_traits@D@std@@V?$allocator@D@2@@std@@V12@@std@@@?$_List_node_emplace_op2@V?$allocator@U?$_List_node@U?$pair@$$CBV?$basic_string@DU?$char_traits@D@std@@V?$allocator@D@2@@std@@V12@@std@@PEAX@std@@@std@@@std@@QEAA@AEAV?$allocator@U?$_List_node@U?$pair@$$CBV?$basic_string@DU?$char_traits@D@std@@V?$allocator@D@2@@std@@V12@@std@@PEAX@std@@@1@$$QEAU?$pair@$$CBV?$basic_string@DU?$char_traits@D@std@@V?$allocator@D@2@@std@@V12@@1@@Z
	??$?0U?$pair@$$CBV?$basic_string@DU?$char_traits@D@std@@V?$allocator@D@2@@std@@V12@@std@@@?$allocator@U?$_List_node@U?$pair@$$CBV?$basic_string@DU?$char_traits@D@std@@V?$allocator@D@2@@std@@V12@@std@@PEAX@std@@@std@@QEAA@AEBV?$allocator@U?$pair@$$CBV?$basic_string@DU?$char_traits@D@std@@V?$allocator@D@2@@std@@V12@@std@@@1@@Z
	??$?0U?$pair@$$CBV?$basic_string@DU?$char_traits@D@std@@V?$allocator@D@2@@std@@V12@@std@@@?$allocator@V?$_List_unchecked_iterator@V?$_List_val@U?$_List_simple_types@U?$pair@$$CBV?$basic_string@DU?$char_traits@D@std@@V?$allocator@D@2@@std@@V12@@std@@@std@@@std@@@std@@@std@@QEAA@AEBV?$allocator@U?$pair@$$CBV?$basic_string@DU?$char_traits@D@std@@V?$allocator@D@2@@std@@V12@@std@@@1@@Z
	??$?0U?$pair@$$CBV?$basic_string@DU?$char_traits@D@std@@V?$allocator@D@2@@std@@V?$function@$$A6A?AV?$unique_ptr@VTreeNode@BT@@U?$default_delete@VTreeNode@BT@@@std@@@std@@AEBV?$basic_string@DU?$char_traits@D@std@@V?$allocator@D@2@@2@AEBUNodeConfig@BT@@@Z@2@@std@@@?$_List_node_emplace_op2@V?$allocator@U?$_List_node@U?$pair@$$CBV?$basic_string@DU?$char_traits@D@std@@V?$allocator@D@2@@std@@V?$function@$$A6A?AV?$unique_ptr@VTreeNode@BT@@U?$default_delete@VTreeNode@BT@@@std@@@std@@AEBV?$basic_string@DU?$char_traits@D@std@@V?$allocator@D@2@@2@AEBUNodeConfig@BT@@@Z@2@@std@@PEAX@std@@@std@@@std@@QEAA@AEAV?$allocator@U?$_List_node@U?$pair@$$CBV?$basic_string@DU?$char_traits@D@std@@V?$allocator@D@2@@std@@V?$function@$$A6A?AV?$unique_ptr@VTreeNode@BT@@U?$default_delete@VTreeNode@BT@@@std@@@std@@AEBV?$basic_string@DU?$char_traits@D@std@@V?$allocator@D@2@@2@AEBUNodeConfig@BT@@@Z@2@@std@@PEAX@std@@@1@$$QEAU?$pair@$$CBV?$basic_string@DU?$char_traits@D@std@@V?$allocator@D@2@@std@@V?$function@$$A6A?AV?$unique_ptr@VTreeNode@BT@@U?$default_delete@VTreeNode@BT@@@std@@@std@@AEBV?$basic_string@DU?$char_traits@D@std@@V?$allocator@D@2@@2@AEBUNodeConfig@BT@@@Z@2@@1@@Z
	??$?0U?$pair@$$CBV?$basic_string@DU?$char_traits@D@std@@V?$allocator@D@2@@std@@V?$function@$$A6A?AV?$unique_ptr@VTreeNode@BT@@U?$default_delete@VTreeNode@BT@@@std@@@std@@AEBV?$basic_string@DU?$char_traits@D@std@@V?$allocator@D@2@@2@AEBUNodeConfig@BT@@@Z@2@@std@@@?$allocator@U?$_List_node@U?$pair@$$CBV?$basic_string@DU?$char_traits@D@std@@V?$allocator@D@2@@std@@V?$function@$$A6A?AV?$unique_ptr@VTreeNode@BT@@U?$default_delete@VTreeNode@BT@@@std@@@std@@AEBV?$basic_string@DU?$char_traits@D@std@@V?$allocator@D@2@@2@AEBUNodeConfig@BT@@@Z@2@@std@@PEAX@std@@@std@@QEAA@AEBV?$allocator@U?$pair@$$CBV?$basic_string@DU?$char_traits@D@std@@V?$allocator@D@2@@std@@V?$function@$$A6A?AV?$unique_ptr@VTreeNode@BT@@U?$default_delete@VTreeNode@BT@@@std@@@std@@AEBV?$basic_string@DU?$char_traits@D@std@@V?$allocator@D@2@@2@AEBUNodeConfig@BT@@@Z@2@@std@@@1@@Z
	??$?0U?$pair@$$CBV?$basic_string@DU?$char_traits@D@std@@V?$allocator@D@2@@std@@V?$function@$$A6A?AV?$unique_ptr@VTreeNode@BT@@U?$default_delete@VTreeNode@BT@@@std@@@std@@AEBV?$basic_string@DU?$char_traits@D@std@@V?$allocator@D@2@@2@AEBUNodeConfig@BT@@@Z@2@@std@@@?$allocator@V?$_List_unchecked_iterator@V?$_List_val@U?$_List_simple_types@U?$pair@$$CBV?$basic_string@DU?$char_traits@D@std@@V?$allocator@D@2@@std@@V?$function@$$A6A?AV?$unique_ptr@VTreeNode@BT@@U?$default_delete@VTreeNode@BT@@@std@@@std@@AEBV?$basic_string@DU?$char_traits@D@std@@V?$allocator@D@2@@2@AEBUNodeConfig@BT@@@Z@2@@std@@@std@@@std@@@std@@@std@@QEAA@AEBV?$allocator@U?$pair@$$CBV?$basic_string@DU?$char_traits@D@std@@V?$allocator@D@2@@std@@V?$function@$$A6A?AV?$unique_ptr@VTreeNode@BT@@U?$default_delete@VTreeNode@BT@@@std@@@std@@AEBV?$basic_string@DU?$char_traits@D@std@@V?$allocator@D@2@@2@AEBUNodeConfig@BT@@@Z@2@@std@@@1@@Z
	??$?0U?$pair@$$CBV?$basic_string@DU?$char_traits@D@std@@V?$allocator@D@2@@std@@VAny@BT@@@std@@@?$allocator@U?$_List_node@U?$pair@$$CBV?$basic_string@DU?$char_traits@D@std@@V?$allocator@D@2@@std@@VAny@BT@@@std@@PEAX@std@@@std@@QEAA@AEBV?$allocator@U?$pair@$$CBV?$basic_string@DU?$char_traits@D@std@@V?$allocator@D@2@@std@@VAny@BT@@@std@@@1@@Z
	??$?0U?$pair@$$CBV?$basic_string@DU?$char_traits@D@std@@V?$allocator@D@2@@std@@VAny@BT@@@std@@@?$allocator@V?$_List_unchecked_iterator@V?$_List_val@U?$_List_simple_types@U?$pair@$$CBV?$basic_string@DU?$char_traits@D@std@@V?$allocator@D@2@@std@@VAny@BT@@@std@@@std@@@std@@@std@@@std@@QEAA@AEBV?$allocator@U?$pair@$$CBV?$basic_string@DU?$char_traits@D@std@@V?$allocator@D@2@@std@@VAny@BT@@@std@@@1@@Z
	??$?0U?$pair@$$CBV?$basic_string@DU?$char_traits@D@std@@V?$allocator@D@2@@std@@VPortInfo@BT@@@std@@@?$allocator@U?$_List_node@U?$pair@$$CBV?$basic_string@DU?$char_traits@D@std@@V?$allocator@D@2@@std@@VPortInfo@BT@@@std@@PEAX@std@@@std@@QEAA@AEBV?$allocator@U?$pair@$$CBV?$basic_string@DU?$char_traits@D@std@@V?$allocator@D@2@@std@@VPortInfo@BT@@@std@@@1@@Z
	??$?0U?$pair@$$CBV?$basic_string@DU?$char_traits@D@std@@V?$allocator@D@2@@std@@VPortInfo@BT@@@std@@@?$allocator@V?$_List_unchecked_iterator@V?$_List_val@U?$_List_simple_types@U?$pair@$$CBV?$basic_string@DU?$char_traits@D@std@@V?$allocator@D@2@@std@@VPortInfo@BT@@@std@@@std@@@std@@@std@@@std@@QEAA@AEBV?$allocator@U?$pair@$$CBV?$basic_string@DU?$char_traits@D@std@@V?$allocator@D@2@@std@@VPortInfo@BT@@@std@@@1@@Z
	??$?0U?$pair@$$CBV?$basic_string@DU?$char_traits@D@std@@V?$allocator@D@2@@std@@W4NodeType@BT@@@std@@@?$_List_node_emplace_op2@V?$allocator@U?$_List_node@U?$pair@$$CBV?$basic_string@DU?$char_traits@D@std@@V?$allocator@D@2@@std@@W4NodeType@BT@@@std@@PEAX@std@@@std@@@std@@QEAA@AEAV?$allocator@U?$_List_node@U?$pair@$$CBV?$basic_string@DU?$char_traits@D@std@@V?$allocator@D@2@@std@@W4NodeType@BT@@@std@@PEAX@std@@@1@$$QEAU?$pair@$$CBV?$basic_string@DU?$char_traits@D@std@@V?$allocator@D@2@@std@@W4NodeType@BT@@@1@@Z
	??$?0U?$pair@$$CBV?$basic_string@DU?$char_traits@D@std@@V?$allocator@D@2@@std@@W4NodeType@BT@@@std@@@?$allocator@U?$_List_node@U?$pair@$$CBV?$basic_string@DU?$char_traits@D@std@@V?$allocator@D@2@@std@@W4NodeType@BT@@@std@@PEAX@std@@@std@@QEAA@AEBV?$allocator@U?$pair@$$CBV?$basic_string@DU?$char_traits@D@std@@V?$allocator@D@2@@std@@W4NodeType@BT@@@std@@@1@@Z
	??$?0U?$pair@$$CBV?$basic_string@DU?$char_traits@D@std@@V?$allocator@D@2@@std@@W4NodeType@BT@@@std@@@?$allocator@V?$_List_unchecked_iterator@V?$_List_val@U?$_List_simple_types@U?$pair@$$CBV?$basic_string@DU?$char_traits@D@std@@V?$allocator@D@2@@std@@W4NodeType@BT@@@std@@@std@@@std@@@std@@@std@@QEAA@AEBV?$allocator@U?$pair@$$CBV?$basic_string@DU?$char_traits@D@std@@V?$allocator@D@2@@std@@W4NodeType@BT@@@std@@@1@@Z
	??$?0U?$pair@$$CBW4PostCond@BT@@V?$basic_string@DU?$char_traits@D@std@@V?$allocator@D@2@@std@@@std@@@?$_Tree_temp_node@V?$allocator@U?$_Tree_node@U?$pair@$$CBW4PostCond@BT@@V?$basic_string@DU?$char_traits@D@std@@V?$allocator@D@2@@std@@@std@@PEAX@std@@@std@@@std@@QEAA@AEAV?$allocator@U?$_Tree_node@U?$pair@$$CBW4PostCond@BT@@V?$basic_string@DU?$char_traits@D@std@@V?$allocator@D@2@@std@@@std@@PEAX@std@@@1@PEAU?$_Tree_node@U?$pair@$$CBW4PostCond@BT@@V?$basic_string@DU?$char_traits@D@std@@V?$allocator@D@2@@std@@@std@@PEAX@1@$$QEAU?$pair@$$CBW4PostCond@BT@@V?$basic_string@DU?$char_traits@D@std@@V?$allocator@D@2@@std@@@1@@Z
	??$?0U?$pair@$$CBW4PreCond@BT@@V?$basic_string@DU?$char_traits@D@std@@V?$allocator@D@2@@std@@@std@@@?$_Tree_temp_node@V?$allocator@U?$_Tree_node@U?$pair@$$CBW4PreCond@BT@@V?$basic_string@DU?$char_traits@D@std@@V?$allocator@D@2@@std@@@std@@PEAX@std@@@std@@@std@@QEAA@AEAV?$allocator@U?$_Tree_node@U?$pair@$$CBW4PreCond@BT@@V?$basic_string@DU?$char_traits@D@std@@V?$allocator@D@2@@std@@@std@@PEAX@std@@@1@PEAU?$_Tree_node@U?$pair@$$CBW4PreCond@BT@@V?$basic_string@DU?$char_traits@D@std@@V?$allocator@D@2@@std@@@std@@PEAX@1@$$QEAU?$pair@$$CBW4PreCond@BT@@V?$basic_string@DU?$char_traits@D@std@@V?$allocator@D@2@@std@@@1@@Z
	??$?0U?$pair@V?$basic_string@DU?$char_traits@D@std@@V?$allocator@D@2@@std@@VPortInfo@BT@@@std@@@?$_List_node_emplace_op2@V?$allocator@U?$_List_node@U?$pair@$$CBV?$basic_string@DU?$char_traits@D@std@@V?$allocator@D@2@@std@@VPortInfo@BT@@@std@@PEAX@std@@@std@@@std@@QEAA@AEAV?$allocator@U?$_List_node@U?$pair@$$CBV?$basic_string@DU?$char_traits@D@std@@V?$allocator@D@2@@std@@VPortInfo@BT@@@std@@PEAX@std@@@1@$$QEAU?$pair@V?$basic_string@DU?$char_traits@D@std@@V?$allocator@D@2@@std@@VPortInfo@BT@@@1@@Z
	??$?0UAnyValue@Grammar@BT@@X@production_info@lexy@@QEAA@UAnyValue@Grammar@BT@@@Z
	??$?0UBooleanLiteral@Grammar@BT@@X@production_info@lexy@@QEAA@UBooleanLiteral@Grammar@BT@@@Z
	??$?0UExprAssignment@Ast@BT@@$0A@@?$shared_ptr@UExprBase@Ast@BT@@@std@@QEAA@PEAUExprAssignment@Ast@BT@@@Z
	??$?0UExprBinaryArithmetic@Ast@BT@@$0A@@?$shared_ptr@UExprBase@Ast@BT@@@std@@QEAA@PEAUExprBinaryArithmetic@Ast@BT@@@Z
	??$?0UExprComparison@Ast@BT@@U?$default_delete@UExprComparison@Ast@BT@@@std@@$0A@@?$shared_ptr@UExprBase@Ast@BT@@@std@@QEAA@$$QEAV?$unique_ptr@UExprComparison@Ast@BT@@U?$default_delete@UExprComparison@Ast@BT@@@std@@@1@@Z
	??$?0UExprIf@Ast@BT@@$0A@@?$shared_ptr@UExprBase@Ast@BT@@@std@@QEAA@PEAUExprIf@Ast@BT@@@Z
	??$?0UExprLiteral@Ast@BT@@$0A@@?$shared_ptr@UExprBase@Ast@BT@@@std@@QEAA@PEAUExprLiteral@Ast@BT@@@Z
	??$?0UExprName@Ast@BT@@$0A@@?$shared_ptr@UExprBase@Ast@BT@@@std@@QEAA@PEAUExprName@Ast@BT@@@Z
	??$?0UExprUnaryArithmetic@Ast@BT@@$0A@@?$shared_ptr@UExprBase@Ast@BT@@@std@@QEAA@PEAUExprUnaryArithmetic@Ast@BT@@@Z
	??$?0UExpression@Grammar@BT@@X@production_info@lexy@@QEAA@UExpression@Grammar@BT@@@Z
	??$?0UFalse@BooleanLiteral@Grammar@BT@@X@production_info@lexy@@QEAA@UFalse@BooleanLiteral@Grammar@BT@@@Z
	??$?0UInteger@Grammar@BT@@X@production_info@lexy@@QEAA@UInteger@Grammar@BT@@@Z
	??$?0UName@Grammar@BT@@X@production_info@lexy@@QEAA@UName@Grammar@BT@@@Z
	??$?0UReal@Grammar@BT@@X@production_info@lexy@@QEAA@UReal@Grammar@BT@@@Z
	??$?0UStringLiteral@Grammar@BT@@X@production_info@lexy@@QEAA@UStringLiteral@Grammar@BT@@@Z
	??$?0UTrue@BooleanLiteral@Grammar@BT@@X@production_info@lexy@@QEAA@UTrue@BooleanLiteral@Grammar@BT@@@Z
	??$?0U_Exact_args_t@std@@$0A@@?$tuple@$$V@std@@QEAA@U_Exact_args_t@1@@Z
	??$?0U_Exact_args_t@std@@AEBV?$basic_string@DU?$char_traits@D@std@@V?$allocator@D@2@@1@$$V$0A@@?$tuple@AEBV?$basic_string@DU?$char_traits@D@std@@V?$allocator@D@2@@std@@@std@@QEAA@U_Exact_args_t@1@AEBV?$basic_string@DU?$char_traits@D@std@@V?$allocator@D@2@@1@@Z
	??$?0U_Exact_args_t@std@@V<lambda_1>@?1???0?$TimerQueue@Usteady_clock@chrono@std@@V?$duration@_JU?$ratio@$00$0DLJKMKAA@@std@@@23@@BT@@QEAA@XZ@$$V$0A@@?$tuple@V<lambda_1>@?1???0?$TimerQueue@Usteady_clock@chrono@std@@V?$duration@_JU?$ratio@$00$0DLJKMKAA@@std@@@23@@BT@@QEAA@XZ@@std@@QEAA@U_Exact_args_t@1@$$QEAV<lambda_1>@?1???0?$TimerQueue@Usteady_clock@chrono@std@@V?$duration@_JU?$ratio@$00$0DLJKMKAA@@std@@@23@@BT@@QEAA@XZ@@Z
	??$?0U_Exact_args_t@std@@V?$basic_string@DU?$char_traits@D@std@@V?$allocator@D@2@@1@$$V$0A@@?$tuple@$$QEAV?$basic_string@DU?$char_traits@D@std@@V?$allocator@D@2@@std@@@std@@QEAA@U_Exact_args_t@1@$$QEAV?$basic_string@DU?$char_traits@D@std@@V?$allocator@D@2@@1@@Z
	??$?0U_Zero_then_variadic_args_t@std@@M@?$_Compressed_pair@U?$hash@V?$basic_string@DU?$char_traits@D@std@@V?$allocator@D@2@@std@@@std@@V?$_Compressed_pair@U?$equal_to@V?$basic_string@DU?$char_traits@D@std@@V?$allocator@D@2@@std@@@std@@M$00@2@$00@std@@QEAA@U_Zero_then_variadic_args_t@1@$$QEAU21@$$QEAM@Z
	??$?0U_production@?$_token@U?$_seq@U?$_if@U?$_chc@U_plus@lexyd@@U_minus@2@@lexyd@@@lexyd@@U?$_digits@U?$_d@$09@lexyd@@@2@U?$_chc@U?$_br@U_period@lexyd@@U?$_digits@U?$_d@$09@lexyd@@@2@U?$_if@U?$_br@U?$_calt@U?$_ccp@$0GF@@lexyd@@U?$_ccp@$0EF@@2@@lexyd@@U?$_if@U?$_chc@U_plus@lexyd@@U_minus@2@@lexyd@@@2@U?$_digits@U?$_d@$09@lexyd@@@2@@lexyd@@@2@@lexyd@@U?$_br@U?$_calt@U?$_ccp@$0GF@@lexyd@@U?$_ccp@$0EF@@2@@lexyd@@U?$_if@U?$_chc@U_plus@lexyd@@U_minus@2@@lexyd@@@2@U?$_digits@U?$_d@$09@lexyd@@@2@@2@@2@U?$_peekn@U?$_calt@U?$_ccp@$0CO@@lexyd@@U_alpha@ascii@2@U_alphau@42@@lexyd@@Uinvalid_suffix@Real@Grammar@BT@@@2@@lexyd@@@lexyd@@X@production_info@lexy@@QEAA@U_production@?$_token@U?$_seq@U?$_if@U?$_chc@U_plus@lexyd@@U_minus@2@@lexyd@@@lexyd@@U?$_digits@U?$_d@$09@lexyd@@@2@U?$_chc@U?$_br@U_period@lexyd@@U?$_digits@U?$_d@$09@lexyd@@@2@U?$_if@U?$_br@U?$_calt@U?$_ccp@$0GF@@lexyd@@U?$_ccp@$0EF@@2@@lexyd@@U?$_if@U?$_chc@U_plus@lexyd@@U_minus@2@@lexyd@@@2@U?$_digits@U?$_d@$09@lexyd@@@2@@lexyd@@@2@@lexyd@@U?$_br@U?$_calt@U?$_ccp@$0GF@@lexyd@@U?$_ccp@$0EF@@2@@lexyd@@U?$_if@U?$_chc@U_plus@lexyd@@U_minus@2@@lexyd@@@2@U?$_digits@U?$_d@$09@lexyd@@@2@@2@@2@U?$_peekn@U?$_calt@U?$_ccp@$0CO@@lexyd@@U_alpha@ascii@2@U_alphau@42@@lexyd@@Uinvalid_suffix@Real@Grammar@BT@@@2@@lexyd@@@lexyd@@@Z
	??$?0U_production@?$_token@U_eol@lexyd@@@lexyd@@X@production_info@lexy@@QEAA@U_production@?$_token@U_eol@lexyd@@@lexyd@@@Z
	??$?0Uinteger@Integer@Grammar@BT@@X@production_info@lexy@@QEAA@Uinteger@Integer@Grammar@BT@@@Z
	??$?0Unested_expr@Grammar@BT@@X@production_info@lexy@@QEAA@Unested_expr@Grammar@BT@@@Z
	??$?0Ustmt@Grammar@BT@@X@production_info@lexy@@QEAA@Ustmt@Grammar@BT@@@Z
	??$?0V<lambda_1>@?1???$CreateBuilder@V?$SwitchNode@$01@BT@@$$V@BT@@YA?AV?$function@$$A6A?AV?$unique_ptr@VTreeNode@BT@@U?$default_delete@VTreeNode@BT@@@std@@@std@@AEBV?$basic_string@DU?$char_traits@D@std@@V?$allocator@D@2@@2@AEBUNodeConfig@BT@@@Z@std@@XZ@$0A@@?$_Func_impl_no_alloc@V<lambda_1>@?1???$CreateBuilder@V?$SwitchNode@$01@BT@@$$V@BT@@YA?AV?$function@$$A6A?AV?$unique_ptr@VTreeNode@BT@@U?$default_delete@VTreeNode@BT@@@std@@@std@@AEBV?$basic_string@DU?$char_traits@D@std@@V?$allocator@D@2@@2@AEBUNodeConfig@BT@@@Z@std@@XZ@V?$unique_ptr@VTreeNode@BT@@U?$default_delete@VTreeNode@BT@@@std@@@4@AEBV?$basic_string@DU?$char_traits@D@std@@V?$allocator@D@2@@4@AEBUNodeConfig@2@@std@@QEAA@$$QEAV<lambda_1>@?1???$CreateBuilder@V?$SwitchNode@$01@BT@@$$V@BT@@YA?AV?$function@$$A6A?AV?$unique_ptr@VTreeNode@BT@@U?$default_delete@VTreeNode@BT@@@std@@@std@@AEBV?$basic_string@DU?$char_traits@D@std@@V?$allocator@D@2@@2@AEBUNodeConfig@BT@@@Z@1@XZ@@Z
	??$?0V<lambda_1>@?1???$CreateBuilder@V?$SwitchNode@$01@BT@@$$V@BT@@YA?AV?$function@$$A6A?AV?$unique_ptr@VTreeNode@BT@@U?$default_delete@VTreeNode@BT@@@std@@@std@@AEBV?$basic_string@DU?$char_traits@D@std@@V?$allocator@D@2@@2@AEBUNodeConfig@BT@@@Z@std@@XZ@$0A@@?$function@$$A6A?AV?$unique_ptr@VTreeNode@BT@@U?$default_delete@VTreeNode@BT@@@std@@@std@@AEBV?$basic_string@DU?$char_traits@D@std@@V?$allocator@D@2@@2@AEBUNodeConfig@BT@@@Z@std@@QEAA@V<lambda_1>@?1???$CreateBuilder@V?$SwitchNode@$01@BT@@$$V@BT@@YA?AV01@XZ@@Z
	??$?0V<lambda_1>@?1???$CreateBuilder@V?$SwitchNode@$02@BT@@$$V@BT@@YA?AV?$function@$$A6A?AV?$unique_ptr@VTreeNode@BT@@U?$default_delete@VTreeNode@BT@@@std@@@std@@AEBV?$basic_string@DU?$char_traits@D@std@@V?$allocator@D@2@@2@AEBUNodeConfig@BT@@@Z@std@@XZ@$0A@@?$_Func_impl_no_alloc@V<lambda_1>@?1???$CreateBuilder@V?$SwitchNode@$02@BT@@$$V@BT@@YA?AV?$function@$$A6A?AV?$unique_ptr@VTreeNode@BT@@U?$default_delete@VTreeNode@BT@@@std@@@std@@AEBV?$basic_string@DU?$char_traits@D@std@@V?$allocator@D@2@@2@AEBUNodeConfig@BT@@@Z@std@@XZ@V?$unique_ptr@VTreeNode@BT@@U?$default_delete@VTreeNode@BT@@@std@@@4@AEBV?$basic_string@DU?$char_traits@D@std@@V?$allocator@D@2@@4@AEBUNodeConfig@2@@std@@QEAA@$$QEAV<lambda_1>@?1???$CreateBuilder@V?$SwitchNode@$02@BT@@$$V@BT@@YA?AV?$function@$$A6A?AV?$unique_ptr@VTreeNode@BT@@U?$default_delete@VTreeNode@BT@@@std@@@std@@AEBV?$basic_string@DU?$char_traits@D@std@@V?$allocator@D@2@@2@AEBUNodeConfig@BT@@@Z@1@XZ@@Z
	??$?0V<lambda_1>@?1???$CreateBuilder@V?$SwitchNode@$02@BT@@$$V@BT@@YA?AV?$function@$$A6A?AV?$unique_ptr@VTreeNode@BT@@U?$default_delete@VTreeNode@BT@@@std@@@std@@AEBV?$basic_string@DU?$char_traits@D@std@@V?$allocator@D@2@@2@AEBUNodeConfig@BT@@@Z@std@@XZ@$0A@@?$function@$$A6A?AV?$unique_ptr@VTreeNode@BT@@U?$default_delete@VTreeNode@BT@@@std@@@std@@AEBV?$basic_string@DU?$char_traits@D@std@@V?$allocator@D@2@@2@AEBUNodeConfig@BT@@@Z@std@@QEAA@V<lambda_1>@?1???$CreateBuilder@V?$SwitchNode@$02@BT@@$$V@BT@@YA?AV01@XZ@@Z
	??$?0V<lambda_1>@?1???$CreateBuilder@V?$SwitchNode@$03@BT@@$$V@BT@@YA?AV?$function@$$A6A?AV?$unique_ptr@VTreeNode@BT@@U?$default_delete@VTreeNode@BT@@@std@@@std@@AEBV?$basic_string@DU?$char_traits@D@std@@V?$allocator@D@2@@2@AEBUNodeConfig@BT@@@Z@std@@XZ@$0A@@?$_Func_impl_no_alloc@V<lambda_1>@?1???$CreateBuilder@V?$SwitchNode@$03@BT@@$$V@BT@@YA?AV?$function@$$A6A?AV?$unique_ptr@VTreeNode@BT@@U?$default_delete@VTreeNode@BT@@@std@@@std@@AEBV?$basic_string@DU?$char_traits@D@std@@V?$allocator@D@2@@2@AEBUNodeConfig@BT@@@Z@std@@XZ@V?$unique_ptr@VTreeNode@BT@@U?$default_delete@VTreeNode@BT@@@std@@@4@AEBV?$basic_string@DU?$char_traits@D@std@@V?$allocator@D@2@@4@AEBUNodeConfig@2@@std@@QEAA@$$QEAV<lambda_1>@?1???$CreateBuilder@V?$SwitchNode@$03@BT@@$$V@BT@@YA?AV?$function@$$A6A?AV?$unique_ptr@VTreeNode@BT@@U?$default_delete@VTreeNode@BT@@@std@@@std@@AEBV?$basic_string@DU?$char_traits@D@std@@V?$allocator@D@2@@2@AEBUNodeConfig@BT@@@Z@1@XZ@@Z
	??$?0V<lambda_1>@?1???$CreateBuilder@V?$SwitchNode@$03@BT@@$$V@BT@@YA?AV?$function@$$A6A?AV?$unique_ptr@VTreeNode@BT@@U?$default_delete@VTreeNode@BT@@@std@@@std@@AEBV?$basic_string@DU?$char_traits@D@std@@V?$allocator@D@2@@2@AEBUNodeConfig@BT@@@Z@std@@XZ@$0A@@?$function@$$A6A?AV?$unique_ptr@VTreeNode@BT@@U?$default_delete@VTreeNode@BT@@@std@@@std@@AEBV?$basic_string@DU?$char_traits@D@std@@V?$allocator@D@2@@2@AEBUNodeConfig@BT@@@Z@std@@QEAA@V<lambda_1>@?1???$CreateBuilder@V?$SwitchNode@$03@BT@@$$V@BT@@YA?AV01@XZ@@Z
	??$?0V<lambda_1>@?1???$CreateBuilder@V?$SwitchNode@$04@BT@@$$V@BT@@YA?AV?$function@$$A6A?AV?$unique_ptr@VTreeNode@BT@@U?$default_delete@VTreeNode@BT@@@std@@@std@@AEBV?$basic_string@DU?$char_traits@D@std@@V?$allocator@D@2@@2@AEBUNodeConfig@BT@@@Z@std@@XZ@$0A@@?$_Func_impl_no_alloc@V<lambda_1>@?1???$CreateBuilder@V?$SwitchNode@$04@BT@@$$V@BT@@YA?AV?$function@$$A6A?AV?$unique_ptr@VTreeNode@BT@@U?$default_delete@VTreeNode@BT@@@std@@@std@@AEBV?$basic_string@DU?$char_traits@D@std@@V?$allocator@D@2@@2@AEBUNodeConfig@BT@@@Z@std@@XZ@V?$unique_ptr@VTreeNode@BT@@U?$default_delete@VTreeNode@BT@@@std@@@4@AEBV?$basic_string@DU?$char_traits@D@std@@V?$allocator@D@2@@4@AEBUNodeConfig@2@@std@@QEAA@$$QEAV<lambda_1>@?1???$CreateBuilder@V?$SwitchNode@$04@BT@@$$V@BT@@YA?AV?$function@$$A6A?AV?$unique_ptr@VTreeNode@BT@@U?$default_delete@VTreeNode@BT@@@std@@@std@@AEBV?$basic_string@DU?$char_traits@D@std@@V?$allocator@D@2@@2@AEBUNodeConfig@BT@@@Z@1@XZ@@Z
	??$?0V<lambda_1>@?1???$CreateBuilder@V?$SwitchNode@$04@BT@@$$V@BT@@YA?AV?$function@$$A6A?AV?$unique_ptr@VTreeNode@BT@@U?$default_delete@VTreeNode@BT@@@std@@@std@@AEBV?$basic_string@DU?$char_traits@D@std@@V?$allocator@D@2@@2@AEBUNodeConfig@BT@@@Z@std@@XZ@$0A@@?$function@$$A6A?AV?$unique_ptr@VTreeNode@BT@@U?$default_delete@VTreeNode@BT@@@std@@@std@@AEBV?$basic_string@DU?$char_traits@D@std@@V?$allocator@D@2@@2@AEBUNodeConfig@BT@@@Z@std@@QEAA@V<lambda_1>@?1???$CreateBuilder@V?$SwitchNode@$04@BT@@$$V@BT@@YA?AV01@XZ@@Z
	??$?0V<lambda_1>@?1???$CreateBuilder@V?$SwitchNode@$05@BT@@$$V@BT@@YA?AV?$function@$$A6A?AV?$unique_ptr@VTreeNode@BT@@U?$default_delete@VTreeNode@BT@@@std@@@std@@AEBV?$basic_string@DU?$char_traits@D@std@@V?$allocator@D@2@@2@AEBUNodeConfig@BT@@@Z@std@@XZ@$0A@@?$_Func_impl_no_alloc@V<lambda_1>@?1???$CreateBuilder@V?$SwitchNode@$05@BT@@$$V@BT@@YA?AV?$function@$$A6A?AV?$unique_ptr@VTreeNode@BT@@U?$default_delete@VTreeNode@BT@@@std@@@std@@AEBV?$basic_string@DU?$char_traits@D@std@@V?$allocator@D@2@@2@AEBUNodeConfig@BT@@@Z@std@@XZ@V?$unique_ptr@VTreeNode@BT@@U?$default_delete@VTreeNode@BT@@@std@@@4@AEBV?$basic_string@DU?$char_traits@D@std@@V?$allocator@D@2@@4@AEBUNodeConfig@2@@std@@QEAA@$$QEAV<lambda_1>@?1???$CreateBuilder@V?$SwitchNode@$05@BT@@$$V@BT@@YA?AV?$function@$$A6A?AV?$unique_ptr@VTreeNode@BT@@U?$default_delete@VTreeNode@BT@@@std@@@std@@AEBV?$basic_string@DU?$char_traits@D@std@@V?$allocator@D@2@@2@AEBUNodeConfig@BT@@@Z@1@XZ@@Z
	??$?0V<lambda_1>@?1???$CreateBuilder@V?$SwitchNode@$05@BT@@$$V@BT@@YA?AV?$function@$$A6A?AV?$unique_ptr@VTreeNode@BT@@U?$default_delete@VTreeNode@BT@@@std@@@std@@AEBV?$basic_string@DU?$char_traits@D@std@@V?$allocator@D@2@@2@AEBUNodeConfig@BT@@@Z@std@@XZ@$0A@@?$function@$$A6A?AV?$unique_ptr@VTreeNode@BT@@U?$default_delete@VTreeNode@BT@@@std@@@std@@AEBV?$basic_string@DU?$char_traits@D@std@@V?$allocator@D@2@@2@AEBUNodeConfig@BT@@@Z@std@@QEAA@V<lambda_1>@?1???$CreateBuilder@V?$SwitchNode@$05@BT@@$$V@BT@@YA?AV01@XZ@@Z
	??$?0V<lambda_1>@?1???$CreateBuilder@V?$TimeoutNode@Usteady_clock@chrono@std@@V?$duration@_JU?$ratio@$00$0DLJKMKAA@@std@@@23@@BT@@$$V@BT@@YA?AV?$function@$$A6A?AV?$unique_ptr@VTreeNode@BT@@U?$default_delete@VTreeNode@BT@@@std@@@std@@AEBV?$basic_string@DU?$char_traits@D@std@@V?$allocator@D@2@@2@AEBUNodeConfig@BT@@@Z@std@@XZ@$0A@@?$_Func_impl_no_alloc@V<lambda_1>@?1???$CreateBuilder@V?$TimeoutNode@Usteady_clock@chrono@std@@V?$duration@_JU?$ratio@$00$0DLJKMKAA@@std@@@23@@BT@@$$V@BT@@YA?AV?$function@$$A6A?AV?$unique_ptr@VTreeNode@BT@@U?$default_delete@VTreeNode@BT@@@std@@@std@@AEBV?$basic_string@DU?$char_traits@D@std@@V?$allocator@D@2@@2@AEBUNodeConfig@BT@@@Z@std@@XZ@V?$unique_ptr@VTreeNode@BT@@U?$default_delete@VTreeNode@BT@@@std@@@4@AEBV?$basic_string@DU?$char_traits@D@std@@V?$allocator@D@2@@4@AEBUNodeConfig@2@@std@@QEAA@$$QEAV<lambda_1>@?1???$CreateBuilder@V?$TimeoutNode@Usteady_clock@chrono@std@@V?$duration@_JU?$ratio@$00$0DLJKMKAA@@std@@@23@@BT@@$$V@BT@@YA?AV?$function@$$A6A?AV?$unique_ptr@VTreeNode@BT@@U?$default_delete@VTreeNode@BT@@@std@@@std@@AEBV?$basic_string@DU?$char_traits@D@std@@V?$allocator@D@2@@2@AEBUNodeConfig@BT@@@Z@1@XZ@@Z
	??$?0V<lambda_1>@?1???$CreateBuilder@V?$TimeoutNode@Usteady_clock@chrono@std@@V?$duration@_JU?$ratio@$00$0DLJKMKAA@@std@@@23@@BT@@$$V@BT@@YA?AV?$function@$$A6A?AV?$unique_ptr@VTreeNode@BT@@U?$default_delete@VTreeNode@BT@@@std@@@std@@AEBV?$basic_string@DU?$char_traits@D@std@@V?$allocator@D@2@@2@AEBUNodeConfig@BT@@@Z@std@@XZ@$0A@@?$function@$$A6A?AV?$unique_ptr@VTreeNode@BT@@U?$default_delete@VTreeNode@BT@@@std@@@std@@AEBV?$basic_string@DU?$char_traits@D@std@@V?$allocator@D@2@@2@AEBUNodeConfig@BT@@@Z@std@@QEAA@V<lambda_1>@?1???$CreateBuilder@V?$TimeoutNode@Usteady_clock@chrono@std@@V?$duration@_JU?$ratio@$00$0DLJKMKAA@@std@@@23@@BT@@$$V@BT@@YA?AV01@XZ@@Z
	??$?0V<lambda_1>@?1???$CreateBuilder@VAlwaysFailureNode@BT@@$$V@BT@@YA?AV?$function@$$A6A?AV?$unique_ptr@VTreeNode@BT@@U?$default_delete@VTreeNode@BT@@@std@@@std@@AEBV?$basic_string@DU?$char_traits@D@std@@V?$allocator@D@2@@2@AEBUNodeConfig@BT@@@Z@std@@XZ@$0A@@?$_Func_impl_no_alloc@V<lambda_1>@?1???$CreateBuilder@VAlwaysFailureNode@BT@@$$V@BT@@YA?AV?$function@$$A6A?AV?$unique_ptr@VTreeNode@BT@@U?$default_delete@VTreeNode@BT@@@std@@@std@@AEBV?$basic_string@DU?$char_traits@D@std@@V?$allocator@D@2@@2@AEBUNodeConfig@BT@@@Z@std@@XZ@V?$unique_ptr@VTreeNode@BT@@U?$default_delete@VTreeNode@BT@@@std@@@4@AEBV?$basic_string@DU?$char_traits@D@std@@V?$allocator@D@2@@4@AEBUNodeConfig@2@@std@@QEAA@$$QEAV<lambda_1>@?1???$CreateBuilder@VAlwaysFailureNode@BT@@$$V@BT@@YA?AV?$function@$$A6A?AV?$unique_ptr@VTreeNode@BT@@U?$default_delete@VTreeNode@BT@@@std@@@std@@AEBV?$basic_string@DU?$char_traits@D@std@@V?$allocator@D@2@@2@AEBUNodeConfig@BT@@@Z@1@XZ@@Z
	??$?0V<lambda_1>@?1???$CreateBuilder@VAlwaysFailureNode@BT@@$$V@BT@@YA?AV?$function@$$A6A?AV?$unique_ptr@VTreeNode@BT@@U?$default_delete@VTreeNode@BT@@@std@@@std@@AEBV?$basic_string@DU?$char_traits@D@std@@V?$allocator@D@2@@2@AEBUNodeConfig@BT@@@Z@std@@XZ@$0A@@?$function@$$A6A?AV?$unique_ptr@VTreeNode@BT@@U?$default_delete@VTreeNode@BT@@@std@@@std@@AEBV?$basic_string@DU?$char_traits@D@std@@V?$allocator@D@2@@2@AEBUNodeConfig@BT@@@Z@std@@QEAA@V<lambda_1>@?1???$CreateBuilder@VAlwaysFailureNode@BT@@$$V@BT@@YA?AV01@XZ@@Z
	??$?0V<lambda_1>@?1???$CreateBuilder@VAlwaysSuccessNode@BT@@$$V@BT@@YA?AV?$function@$$A6A?AV?$unique_ptr@VTreeNode@BT@@U?$default_delete@VTreeNode@BT@@@std@@@std@@AEBV?$basic_string@DU?$char_traits@D@std@@V?$allocator@D@2@@2@AEBUNodeConfig@BT@@@Z@std@@XZ@$0A@@?$_Func_impl_no_alloc@V<lambda_1>@?1???$CreateBuilder@VAlwaysSuccessNode@BT@@$$V@BT@@YA?AV?$function@$$A6A?AV?$unique_ptr@VTreeNode@BT@@U?$default_delete@VTreeNode@BT@@@std@@@std@@AEBV?$basic_string@DU?$char_traits@D@std@@V?$allocator@D@2@@2@AEBUNodeConfig@BT@@@Z@std@@XZ@V?$unique_ptr@VTreeNode@BT@@U?$default_delete@VTreeNode@BT@@@std@@@4@AEBV?$basic_string@DU?$char_traits@D@std@@V?$allocator@D@2@@4@AEBUNodeConfig@2@@std@@QEAA@$$QEAV<lambda_1>@?1???$CreateBuilder@VAlwaysSuccessNode@BT@@$$V@BT@@YA?AV?$function@$$A6A?AV?$unique_ptr@VTreeNode@BT@@U?$default_delete@VTreeNode@BT@@@std@@@std@@AEBV?$basic_string@DU?$char_traits@D@std@@V?$allocator@D@2@@2@AEBUNodeConfig@BT@@@Z@1@XZ@@Z
	??$?0V<lambda_1>@?1???$CreateBuilder@VAlwaysSuccessNode@BT@@$$V@BT@@YA?AV?$function@$$A6A?AV?$unique_ptr@VTreeNode@BT@@U?$default_delete@VTreeNode@BT@@@std@@@std@@AEBV?$basic_string@DU?$char_traits@D@std@@V?$allocator@D@2@@2@AEBUNodeConfig@BT@@@Z@std@@XZ@$0A@@?$function@$$A6A?AV?$unique_ptr@VTreeNode@BT@@U?$default_delete@VTreeNode@BT@@@std@@@std@@AEBV?$basic_string@DU?$char_traits@D@std@@V?$allocator@D@2@@2@AEBUNodeConfig@BT@@@Z@std@@QEAA@V<lambda_1>@?1???$CreateBuilder@VAlwaysSuccessNode@BT@@$$V@BT@@YA?AV01@XZ@@Z
	??$?0V<lambda_1>@?1???$CreateBuilder@VDelayNode@BT@@$$V@BT@@YA?AV?$function@$$A6A?AV?$unique_ptr@VTreeNode@BT@@U?$default_delete@VTreeNode@BT@@@std@@@std@@AEBV?$basic_string@DU?$char_traits@D@std@@V?$allocator@D@2@@2@AEBUNodeConfig@BT@@@Z@std@@XZ@$0A@@?$_Func_impl_no_alloc@V<lambda_1>@?1???$CreateBuilder@VDelayNode@BT@@$$V@BT@@YA?AV?$function@$$A6A?AV?$unique_ptr@VTreeNode@BT@@U?$default_delete@VTreeNode@BT@@@std@@@std@@AEBV?$basic_string@DU?$char_traits@D@std@@V?$allocator@D@2@@2@AEBUNodeConfig@BT@@@Z@std@@XZ@V?$unique_ptr@VTreeNode@BT@@U?$default_delete@VTreeNode@BT@@@std@@@4@AEBV?$basic_string@DU?$char_traits@D@std@@V?$allocator@D@2@@4@AEBUNodeConfig@2@@std@@QEAA@$$QEAV<lambda_1>@?1???$CreateBuilder@VDelayNode@BT@@$$V@BT@@YA?AV?$function@$$A6A?AV?$unique_ptr@VTreeNode@BT@@U?$default_delete@VTreeNode@BT@@@std@@@std@@AEBV?$basic_string@DU?$char_traits@D@std@@V?$allocator@D@2@@2@AEBUNodeConfig@BT@@@Z@1@XZ@@Z
	??$?0V<lambda_1>@?1???$CreateBuilder@VDelayNode@BT@@$$V@BT@@YA?AV?$function@$$A6A?AV?$unique_ptr@VTreeNode@BT@@U?$default_delete@VTreeNode@BT@@@std@@@std@@AEBV?$basic_string@DU?$char_traits@D@std@@V?$allocator@D@2@@2@AEBUNodeConfig@BT@@@Z@std@@XZ@$0A@@?$function@$$A6A?AV?$unique_ptr@VTreeNode@BT@@U?$default_delete@VTreeNode@BT@@@std@@@std@@AEBV?$basic_string@DU?$char_traits@D@std@@V?$allocator@D@2@@2@AEBUNodeConfig@BT@@@Z@std@@QEAA@V<lambda_1>@?1???$CreateBuilder@VDelayNode@BT@@$$V@BT@@YA?AV01@XZ@@Z
	??$?0V<lambda_1>@?1???$CreateBuilder@VFallbackNode@BT@@$$V@BT@@YA?AV?$function@$$A6A?AV?$unique_ptr@VTreeNode@BT@@U?$default_delete@VTreeNode@BT@@@std@@@std@@AEBV?$basic_string@DU?$char_traits@D@std@@V?$allocator@D@2@@2@AEBUNodeConfig@BT@@@Z@std@@XZ@$0A@@?$_Func_impl_no_alloc@V<lambda_1>@?1???$CreateBuilder@VFallbackNode@BT@@$$V@BT@@YA?AV?$function@$$A6A?AV?$unique_ptr@VTreeNode@BT@@U?$default_delete@VTreeNode@BT@@@std@@@std@@AEBV?$basic_string@DU?$char_traits@D@std@@V?$allocator@D@2@@2@AEBUNodeConfig@BT@@@Z@std@@XZ@V?$unique_ptr@VTreeNode@BT@@U?$default_delete@VTreeNode@BT@@@std@@@4@AEBV?$basic_string@DU?$char_traits@D@std@@V?$allocator@D@2@@4@AEBUNodeConfig@2@@std@@QEAA@$$QEAV<lambda_1>@?1???$CreateBuilder@VFallbackNode@BT@@$$V@BT@@YA?AV?$function@$$A6A?AV?$unique_ptr@VTreeNode@BT@@U?$default_delete@VTreeNode@BT@@@std@@@std@@AEBV?$basic_string@DU?$char_traits@D@std@@V?$allocator@D@2@@2@AEBUNodeConfig@BT@@@Z@1@XZ@@Z
	??$?0V<lambda_1>@?1???$CreateBuilder@VFallbackNode@BT@@$$V@BT@@YA?AV?$function@$$A6A?AV?$unique_ptr@VTreeNode@BT@@U?$default_delete@VTreeNode@BT@@@std@@@std@@AEBV?$basic_string@DU?$char_traits@D@std@@V?$allocator@D@2@@2@AEBUNodeConfig@BT@@@Z@std@@XZ@$0A@@?$function@$$A6A?AV?$unique_ptr@VTreeNode@BT@@U?$default_delete@VTreeNode@BT@@@std@@@std@@AEBV?$basic_string@DU?$char_traits@D@std@@V?$allocator@D@2@@2@AEBUNodeConfig@BT@@@Z@std@@QEAA@V<lambda_1>@?1???$CreateBuilder@VFallbackNode@BT@@$$V@BT@@YA?AV01@XZ@@Z
	??$?0V<lambda_1>@?1???$CreateBuilder@VForceFailureNode@BT@@$$V@BT@@YA?AV?$function@$$A6A?AV?$unique_ptr@VTreeNode@BT@@U?$default_delete@VTreeNode@BT@@@std@@@std@@AEBV?$basic_string@DU?$char_traits@D@std@@V?$allocator@D@2@@2@AEBUNodeConfig@BT@@@Z@std@@XZ@$0A@@?$_Func_impl_no_alloc@V<lambda_1>@?1???$CreateBuilder@VForceFailureNode@BT@@$$V@BT@@YA?AV?$function@$$A6A?AV?$unique_ptr@VTreeNode@BT@@U?$default_delete@VTreeNode@BT@@@std@@@std@@AEBV?$basic_string@DU?$char_traits@D@std@@V?$allocator@D@2@@2@AEBUNodeConfig@BT@@@Z@std@@XZ@V?$unique_ptr@VTreeNode@BT@@U?$default_delete@VTreeNode@BT@@@std@@@4@AEBV?$basic_string@DU?$char_traits@D@std@@V?$allocator@D@2@@4@AEBUNodeConfig@2@@std@@QEAA@$$QEAV<lambda_1>@?1???$CreateBuilder@VForceFailureNode@BT@@$$V@BT@@YA?AV?$function@$$A6A?AV?$unique_ptr@VTreeNode@BT@@U?$default_delete@VTreeNode@BT@@@std@@@std@@AEBV?$basic_string@DU?$char_traits@D@std@@V?$allocator@D@2@@2@AEBUNodeConfig@BT@@@Z@1@XZ@@Z
	??$?0V<lambda_1>@?1???$CreateBuilder@VForceFailureNode@BT@@$$V@BT@@YA?AV?$function@$$A6A?AV?$unique_ptr@VTreeNode@BT@@U?$default_delete@VTreeNode@BT@@@std@@@std@@AEBV?$basic_string@DU?$char_traits@D@std@@V?$allocator@D@2@@2@AEBUNodeConfig@BT@@@Z@std@@XZ@$0A@@?$function@$$A6A?AV?$unique_ptr@VTreeNode@BT@@U?$default_delete@VTreeNode@BT@@@std@@@std@@AEBV?$basic_string@DU?$char_traits@D@std@@V?$allocator@D@2@@2@AEBUNodeConfig@BT@@@Z@std@@QEAA@V<lambda_1>@?1???$CreateBuilder@VForceFailureNode@BT@@$$V@BT@@YA?AV01@XZ@@Z
	??$?0V<lambda_1>@?1???$CreateBuilder@VForceSuccessNode@BT@@$$V@BT@@YA?AV?$function@$$A6A?AV?$unique_ptr@VTreeNode@BT@@U?$default_delete@VTreeNode@BT@@@std@@@std@@AEBV?$basic_string@DU?$char_traits@D@std@@V?$allocator@D@2@@2@AEBUNodeConfig@BT@@@Z@std@@XZ@$0A@@?$_Func_impl_no_alloc@V<lambda_1>@?1???$CreateBuilder@VForceSuccessNode@BT@@$$V@BT@@YA?AV?$function@$$A6A?AV?$unique_ptr@VTreeNode@BT@@U?$default_delete@VTreeNode@BT@@@std@@@std@@AEBV?$basic_string@DU?$char_traits@D@std@@V?$allocator@D@2@@2@AEBUNodeConfig@BT@@@Z@std@@XZ@V?$unique_ptr@VTreeNode@BT@@U?$default_delete@VTreeNode@BT@@@std@@@4@AEBV?$basic_string@DU?$char_traits@D@std@@V?$allocator@D@2@@4@AEBUNodeConfig@2@@std@@QEAA@$$QEAV<lambda_1>@?1???$CreateBuilder@VForceSuccessNode@BT@@$$V@BT@@YA?AV?$function@$$A6A?AV?$unique_ptr@VTreeNode@BT@@U?$default_delete@VTreeNode@BT@@@std@@@std@@AEBV?$basic_string@DU?$char_traits@D@std@@V?$allocator@D@2@@2@AEBUNodeConfig@BT@@@Z@1@XZ@@Z
	??$?0V<lambda_1>@?1???$CreateBuilder@VForceSuccessNode@BT@@$$V@BT@@YA?AV?$function@$$A6A?AV?$unique_ptr@VTreeNode@BT@@U?$default_delete@VTreeNode@BT@@@std@@@std@@AEBV?$basic_string@DU?$char_traits@D@std@@V?$allocator@D@2@@2@AEBUNodeConfig@BT@@@Z@std@@XZ@$0A@@?$function@$$A6A?AV?$unique_ptr@VTreeNode@BT@@U?$default_delete@VTreeNode@BT@@@std@@@std@@AEBV?$basic_string@DU?$char_traits@D@std@@V?$allocator@D@2@@2@AEBUNodeConfig@BT@@@Z@std@@QEAA@V<lambda_1>@?1???$CreateBuilder@VForceSuccessNode@BT@@$$V@BT@@YA?AV01@XZ@@Z
	??$?0V<lambda_1>@?1???$CreateBuilder@VIfThenElseNode@BT@@$$V@BT@@YA?AV?$function@$$A6A?AV?$unique_ptr@VTreeNode@BT@@U?$default_delete@VTreeNode@BT@@@std@@@std@@AEBV?$basic_string@DU?$char_traits@D@std@@V?$allocator@D@2@@2@AEBUNodeConfig@BT@@@Z@std@@XZ@$0A@@?$_Func_impl_no_alloc@V<lambda_1>@?1???$CreateBuilder@VIfThenElseNode@BT@@$$V@BT@@YA?AV?$function@$$A6A?AV?$unique_ptr@VTreeNode@BT@@U?$default_delete@VTreeNode@BT@@@std@@@std@@AEBV?$basic_string@DU?$char_traits@D@std@@V?$allocator@D@2@@2@AEBUNodeConfig@BT@@@Z@std@@XZ@V?$unique_ptr@VTreeNode@BT@@U?$default_delete@VTreeNode@BT@@@std@@@4@AEBV?$basic_string@DU?$char_traits@D@std@@V?$allocator@D@2@@4@AEBUNodeConfig@2@@std@@QEAA@$$QEAV<lambda_1>@?1???$CreateBuilder@VIfThenElseNode@BT@@$$V@BT@@YA?AV?$function@$$A6A?AV?$unique_ptr@VTreeNode@BT@@U?$default_delete@VTreeNode@BT@@@std@@@std@@AEBV?$basic_string@DU?$char_traits@D@std@@V?$allocator@D@2@@2@AEBUNodeConfig@BT@@@Z@1@XZ@@Z
	??$?0V<lambda_1>@?1???$CreateBuilder@VIfThenElseNode@BT@@$$V@BT@@YA?AV?$function@$$A6A?AV?$unique_ptr@VTreeNode@BT@@U?$default_delete@VTreeNode@BT@@@std@@@std@@AEBV?$basic_string@DU?$char_traits@D@std@@V?$allocator@D@2@@2@AEBUNodeConfig@BT@@@Z@std@@XZ@$0A@@?$function@$$A6A?AV?$unique_ptr@VTreeNode@BT@@U?$default_delete@VTreeNode@BT@@@std@@@std@@AEBV?$basic_string@DU?$char_traits@D@std@@V?$allocator@D@2@@2@AEBUNodeConfig@BT@@@Z@std@@QEAA@V<lambda_1>@?1???$CreateBuilder@VIfThenElseNode@BT@@$$V@BT@@YA?AV01@XZ@@Z
	??$?0V<lambda_1>@?1???$CreateBuilder@VInverterNode@BT@@$$V@BT@@YA?AV?$function@$$A6A?AV?$unique_ptr@VTreeNode@BT@@U?$default_delete@VTreeNode@BT@@@std@@@std@@AEBV?$basic_string@DU?$char_traits@D@std@@V?$allocator@D@2@@2@AEBUNodeConfig@BT@@@Z@std@@XZ@$0A@@?$_Func_impl_no_alloc@V<lambda_1>@?1???$CreateBuilder@VInverterNode@BT@@$$V@BT@@YA?AV?$function@$$A6A?AV?$unique_ptr@VTreeNode@BT@@U?$default_delete@VTreeNode@BT@@@std@@@std@@AEBV?$basic_string@DU?$char_traits@D@std@@V?$allocator@D@2@@2@AEBUNodeConfig@BT@@@Z@std@@XZ@V?$unique_ptr@VTreeNode@BT@@U?$default_delete@VTreeNode@BT@@@std@@@4@AEBV?$basic_string@DU?$char_traits@D@std@@V?$allocator@D@2@@4@AEBUNodeConfig@2@@std@@QEAA@$$QEAV<lambda_1>@?1???$CreateBuilder@VInverterNode@BT@@$$V@BT@@YA?AV?$function@$$A6A?AV?$unique_ptr@VTreeNode@BT@@U?$default_delete@VTreeNode@BT@@@std@@@std@@AEBV?$basic_string@DU?$char_traits@D@std@@V?$allocator@D@2@@2@AEBUNodeConfig@BT@@@Z@1@XZ@@Z
	??$?0V<lambda_1>@?1???$CreateBuilder@VInverterNode@BT@@$$V@BT@@YA?AV?$function@$$A6A?AV?$unique_ptr@VTreeNode@BT@@U?$default_delete@VTreeNode@BT@@@std@@@std@@AEBV?$basic_string@DU?$char_traits@D@std@@V?$allocator@D@2@@2@AEBUNodeConfig@BT@@@Z@std@@XZ@$0A@@?$function@$$A6A?AV?$unique_ptr@VTreeNode@BT@@U?$default_delete@VTreeNode@BT@@@std@@@std@@AEBV?$basic_string@DU?$char_traits@D@std@@V?$allocator@D@2@@2@AEBUNodeConfig@BT@@@Z@std@@QEAA@V<lambda_1>@?1???$CreateBuilder@VInverterNode@BT@@$$V@BT@@YA?AV01@XZ@@Z
	??$?0V<lambda_1>@?1???$CreateBuilder@VKeepRunningUntilFailureNode@BT@@$$V@BT@@YA?AV?$function@$$A6A?AV?$unique_ptr@VTreeNode@BT@@U?$default_delete@VTreeNode@BT@@@std@@@std@@AEBV?$basic_string@DU?$char_traits@D@std@@V?$allocator@D@2@@2@AEBUNodeConfig@BT@@@Z@std@@XZ@$0A@@?$_Func_impl_no_alloc@V<lambda_1>@?1???$CreateBuilder@VKeepRunningUntilFailureNode@BT@@$$V@BT@@YA?AV?$function@$$A6A?AV?$unique_ptr@VTreeNode@BT@@U?$default_delete@VTreeNode@BT@@@std@@@std@@AEBV?$basic_string@DU?$char_traits@D@std@@V?$allocator@D@2@@2@AEBUNodeConfig@BT@@@Z@std@@XZ@V?$unique_ptr@VTreeNode@BT@@U?$default_delete@VTreeNode@BT@@@std@@@4@AEBV?$basic_string@DU?$char_traits@D@std@@V?$allocator@D@2@@4@AEBUNodeConfig@2@@std@@QEAA@$$QEAV<lambda_1>@?1???$CreateBuilder@VKeepRunningUntilFailureNode@BT@@$$V@BT@@YA?AV?$function@$$A6A?AV?$unique_ptr@VTreeNode@BT@@U?$default_delete@VTreeNode@BT@@@std@@@std@@AEBV?$basic_string@DU?$char_traits@D@std@@V?$allocator@D@2@@2@AEBUNodeConfig@BT@@@Z@1@XZ@@Z
	??$?0V<lambda_1>@?1???$CreateBuilder@VKeepRunningUntilFailureNode@BT@@$$V@BT@@YA?AV?$function@$$A6A?AV?$unique_ptr@VTreeNode@BT@@U?$default_delete@VTreeNode@BT@@@std@@@std@@AEBV?$basic_string@DU?$char_traits@D@std@@V?$allocator@D@2@@2@AEBUNodeConfig@BT@@@Z@std@@XZ@$0A@@?$function@$$A6A?AV?$unique_ptr@VTreeNode@BT@@U?$default_delete@VTreeNode@BT@@@std@@@std@@AEBV?$basic_string@DU?$char_traits@D@std@@V?$allocator@D@2@@2@AEBUNodeConfig@BT@@@Z@std@@QEAA@V<lambda_1>@?1???$CreateBuilder@VKeepRunningUntilFailureNode@BT@@$$V@BT@@YA?AV01@XZ@@Z
	??$?0V<lambda_1>@?1???$CreateBuilder@VParallelNode@BT@@$$V@BT@@YA?AV?$function@$$A6A?AV?$unique_ptr@VTreeNode@BT@@U?$default_delete@VTreeNode@BT@@@std@@@std@@AEBV?$basic_string@DU?$char_traits@D@std@@V?$allocator@D@2@@2@AEBUNodeConfig@BT@@@Z@std@@XZ@$0A@@?$_Func_impl_no_alloc@V<lambda_1>@?1???$CreateBuilder@VParallelNode@BT@@$$V@BT@@YA?AV?$function@$$A6A?AV?$unique_ptr@VTreeNode@BT@@U?$default_delete@VTreeNode@BT@@@std@@@std@@AEBV?$basic_string@DU?$char_traits@D@std@@V?$allocator@D@2@@2@AEBUNodeConfig@BT@@@Z@std@@XZ@V?$unique_ptr@VTreeNode@BT@@U?$default_delete@VTreeNode@BT@@@std@@@4@AEBV?$basic_string@DU?$char_traits@D@std@@V?$allocator@D@2@@4@AEBUNodeConfig@2@@std@@QEAA@$$QEAV<lambda_1>@?1???$CreateBuilder@VParallelNode@BT@@$$V@BT@@YA?AV?$function@$$A6A?AV?$unique_ptr@VTreeNode@BT@@U?$default_delete@VTreeNode@BT@@@std@@@std@@AEBV?$basic_string@DU?$char_traits@D@std@@V?$allocator@D@2@@2@AEBUNodeConfig@BT@@@Z@1@XZ@@Z
	??$?0V<lambda_1>@?1???$CreateBuilder@VParallelNode@BT@@$$V@BT@@YA?AV?$function@$$A6A?AV?$unique_ptr@VTreeNode@BT@@U?$default_delete@VTreeNode@BT@@@std@@@std@@AEBV?$basic_string@DU?$char_traits@D@std@@V?$allocator@D@2@@2@AEBUNodeConfig@BT@@@Z@std@@XZ@$0A@@?$function@$$A6A?AV?$unique_ptr@VTreeNode@BT@@U?$default_delete@VTreeNode@BT@@@std@@@std@@AEBV?$basic_string@DU?$char_traits@D@std@@V?$allocator@D@2@@2@AEBUNodeConfig@BT@@@Z@std@@QEAA@V<lambda_1>@?1???$CreateBuilder@VParallelNode@BT@@$$V@BT@@YA?AV01@XZ@@Z
	??$?0V<lambda_1>@?1???$CreateBuilder@VPreconditionNode@BT@@$$V@BT@@YA?AV?$function@$$A6A?AV?$unique_ptr@VTreeNode@BT@@U?$default_delete@VTreeNode@BT@@@std@@@std@@AEBV?$basic_string@DU?$char_traits@D@std@@V?$allocator@D@2@@2@AEBUNodeConfig@BT@@@Z@std@@XZ@$0A@@?$_Func_impl_no_alloc@V<lambda_1>@?1???$CreateBuilder@VPreconditionNode@BT@@$$V@BT@@YA?AV?$function@$$A6A?AV?$unique_ptr@VTreeNode@BT@@U?$default_delete@VTreeNode@BT@@@std@@@std@@AEBV?$basic_string@DU?$char_traits@D@std@@V?$allocator@D@2@@2@AEBUNodeConfig@BT@@@Z@std@@XZ@V?$unique_ptr@VTreeNode@BT@@U?$default_delete@VTreeNode@BT@@@std@@@4@AEBV?$basic_string@DU?$char_traits@D@std@@V?$allocator@D@2@@4@AEBUNodeConfig@2@@std@@QEAA@$$QEAV<lambda_1>@?1???$CreateBuilder@VPreconditionNode@BT@@$$V@BT@@YA?AV?$function@$$A6A?AV?$unique_ptr@VTreeNode@BT@@U?$default_delete@VTreeNode@BT@@@std@@@std@@AEBV?$basic_string@DU?$char_traits@D@std@@V?$allocator@D@2@@2@AEBUNodeConfig@BT@@@Z@1@XZ@@Z
	??$?0V<lambda_1>@?1???$CreateBuilder@VPreconditionNode@BT@@$$V@BT@@YA?AV?$function@$$A6A?AV?$unique_ptr@VTreeNode@BT@@U?$default_delete@VTreeNode@BT@@@std@@@std@@AEBV?$basic_string@DU?$char_traits@D@std@@V?$allocator@D@2@@2@AEBUNodeConfig@BT@@@Z@std@@XZ@$0A@@?$function@$$A6A?AV?$unique_ptr@VTreeNode@BT@@U?$default_delete@VTreeNode@BT@@@std@@@std@@AEBV?$basic_string@DU?$char_traits@D@std@@V?$allocator@D@2@@2@AEBUNodeConfig@BT@@@Z@std@@QEAA@V<lambda_1>@?1???$CreateBuilder@VPreconditionNode@BT@@$$V@BT@@YA?AV01@XZ@@Z
	??$?0V<lambda_1>@?1???$CreateBuilder@VReactiveFallback@BT@@$$V@BT@@YA?AV?$function@$$A6A?AV?$unique_ptr@VTreeNode@BT@@U?$default_delete@VTreeNode@BT@@@std@@@std@@AEBV?$basic_string@DU?$char_traits@D@std@@V?$allocator@D@2@@2@AEBUNodeConfig@BT@@@Z@std@@XZ@$0A@@?$_Func_impl_no_alloc@V<lambda_1>@?1???$CreateBuilder@VReactiveFallback@BT@@$$V@BT@@YA?AV?$function@$$A6A?AV?$unique_ptr@VTreeNode@BT@@U?$default_delete@VTreeNode@BT@@@std@@@std@@AEBV?$basic_string@DU?$char_traits@D@std@@V?$allocator@D@2@@2@AEBUNodeConfig@BT@@@Z@std@@XZ@V?$unique_ptr@VTreeNode@BT@@U?$default_delete@VTreeNode@BT@@@std@@@4@AEBV?$basic_string@DU?$char_traits@D@std@@V?$allocator@D@2@@4@AEBUNodeConfig@2@@std@@QEAA@$$QEAV<lambda_1>@?1???$CreateBuilder@VReactiveFallback@BT@@$$V@BT@@YA?AV?$function@$$A6A?AV?$unique_ptr@VTreeNode@BT@@U?$default_delete@VTreeNode@BT@@@std@@@std@@AEBV?$basic_string@DU?$char_traits@D@std@@V?$allocator@D@2@@2@AEBUNodeConfig@BT@@@Z@1@XZ@@Z
	??$?0V<lambda_1>@?1???$CreateBuilder@VReactiveFallback@BT@@$$V@BT@@YA?AV?$function@$$A6A?AV?$unique_ptr@VTreeNode@BT@@U?$default_delete@VTreeNode@BT@@@std@@@std@@AEBV?$basic_string@DU?$char_traits@D@std@@V?$allocator@D@2@@2@AEBUNodeConfig@BT@@@Z@std@@XZ@$0A@@?$function@$$A6A?AV?$unique_ptr@VTreeNode@BT@@U?$default_delete@VTreeNode@BT@@@std@@@std@@AEBV?$basic_string@DU?$char_traits@D@std@@V?$allocator@D@2@@2@AEBUNodeConfig@BT@@@Z@std@@QEAA@V<lambda_1>@?1???$CreateBuilder@VReactiveFallback@BT@@$$V@BT@@YA?AV01@XZ@@Z
	??$?0V<lambda_1>@?1???$CreateBuilder@VReactiveSequence@BT@@$$V@BT@@YA?AV?$function@$$A6A?AV?$unique_ptr@VTreeNode@BT@@U?$default_delete@VTreeNode@BT@@@std@@@std@@AEBV?$basic_string@DU?$char_traits@D@std@@V?$allocator@D@2@@2@AEBUNodeConfig@BT@@@Z@std@@XZ@$0A@@?$_Func_impl_no_alloc@V<lambda_1>@?1???$CreateBuilder@VReactiveSequence@BT@@$$V@BT@@YA?AV?$function@$$A6A?AV?$unique_ptr@VTreeNode@BT@@U?$default_delete@VTreeNode@BT@@@std@@@std@@AEBV?$basic_string@DU?$char_traits@D@std@@V?$allocator@D@2@@2@AEBUNodeConfig@BT@@@Z@std@@XZ@V?$unique_ptr@VTreeNode@BT@@U?$default_delete@VTreeNode@BT@@@std@@@4@AEBV?$basic_string@DU?$char_traits@D@std@@V?$allocator@D@2@@4@AEBUNodeConfig@2@@std@@QEAA@$$QEAV<lambda_1>@?1???$CreateBuilder@VReactiveSequence@BT@@$$V@BT@@YA?AV?$function@$$A6A?AV?$unique_ptr@VTreeNode@BT@@U?$default_delete@VTreeNode@BT@@@std@@@std@@AEBV?$basic_string@DU?$char_traits@D@std@@V?$allocator@D@2@@2@AEBUNodeConfig@BT@@@Z@1@XZ@@Z
	??$?0V<lambda_1>@?1???$CreateBuilder@VReactiveSequence@BT@@$$V@BT@@YA?AV?$function@$$A6A?AV?$unique_ptr@VTreeNode@BT@@U?$default_delete@VTreeNode@BT@@@std@@@std@@AEBV?$basic_string@DU?$char_traits@D@std@@V?$allocator@D@2@@2@AEBUNodeConfig@BT@@@Z@std@@XZ@$0A@@?$function@$$A6A?AV?$unique_ptr@VTreeNode@BT@@U?$default_delete@VTreeNode@BT@@@std@@@std@@AEBV?$basic_string@DU?$char_traits@D@std@@V?$allocator@D@2@@2@AEBUNodeConfig@BT@@@Z@std@@QEAA@V<lambda_1>@?1???$CreateBuilder@VReactiveSequence@BT@@$$V@BT@@YA?AV01@XZ@@Z
	??$?0V<lambda_1>@?1???$CreateBuilder@VRepeatNode@BT@@$$V@BT@@YA?AV?$function@$$A6A?AV?$unique_ptr@VTreeNode@BT@@U?$default_delete@VTreeNode@BT@@@std@@@std@@AEBV?$basic_string@DU?$char_traits@D@std@@V?$allocator@D@2@@2@AEBUNodeConfig@BT@@@Z@std@@XZ@$0A@@?$_Func_impl_no_alloc@V<lambda_1>@?1???$CreateBuilder@VRepeatNode@BT@@$$V@BT@@YA?AV?$function@$$A6A?AV?$unique_ptr@VTreeNode@BT@@U?$default_delete@VTreeNode@BT@@@std@@@std@@AEBV?$basic_string@DU?$char_traits@D@std@@V?$allocator@D@2@@2@AEBUNodeConfig@BT@@@Z@std@@XZ@V?$unique_ptr@VTreeNode@BT@@U?$default_delete@VTreeNode@BT@@@std@@@4@AEBV?$basic_string@DU?$char_traits@D@std@@V?$allocator@D@2@@4@AEBUNodeConfig@2@@std@@QEAA@$$QEAV<lambda_1>@?1???$CreateBuilder@VRepeatNode@BT@@$$V@BT@@YA?AV?$function@$$A6A?AV?$unique_ptr@VTreeNode@BT@@U?$default_delete@VTreeNode@BT@@@std@@@std@@AEBV?$basic_string@DU?$char_traits@D@std@@V?$allocator@D@2@@2@AEBUNodeConfig@BT@@@Z@1@XZ@@Z
	??$?0V<lambda_1>@?1???$CreateBuilder@VRepeatNode@BT@@$$V@BT@@YA?AV?$function@$$A6A?AV?$unique_ptr@VTreeNode@BT@@U?$default_delete@VTreeNode@BT@@@std@@@std@@AEBV?$basic_string@DU?$char_traits@D@std@@V?$allocator@D@2@@2@AEBUNodeConfig@BT@@@Z@std@@XZ@$0A@@?$function@$$A6A?AV?$unique_ptr@VTreeNode@BT@@U?$default_delete@VTreeNode@BT@@@std@@@std@@AEBV?$basic_string@DU?$char_traits@D@std@@V?$allocator@D@2@@2@AEBUNodeConfig@BT@@@Z@std@@QEAA@V<lambda_1>@?1???$CreateBuilder@VRepeatNode@BT@@$$V@BT@@YA?AV01@XZ@@Z
	??$?0V<lambda_1>@?1???$CreateBuilder@VRetryNode@BT@@$$V@BT@@YA?AV?$function@$$A6A?AV?$unique_ptr@VTreeNode@BT@@U?$default_delete@VTreeNode@BT@@@std@@@std@@AEBV?$basic_string@DU?$char_traits@D@std@@V?$allocator@D@2@@2@AEBUNodeConfig@BT@@@Z@std@@XZ@$0A@@?$_Func_impl_no_alloc@V<lambda_1>@?1???$CreateBuilder@VRetryNode@BT@@$$V@BT@@YA?AV?$function@$$A6A?AV?$unique_ptr@VTreeNode@BT@@U?$default_delete@VTreeNode@BT@@@std@@@std@@AEBV?$basic_string@DU?$char_traits@D@std@@V?$allocator@D@2@@2@AEBUNodeConfig@BT@@@Z@std@@XZ@V?$unique_ptr@VTreeNode@BT@@U?$default_delete@VTreeNode@BT@@@std@@@4@AEBV?$basic_string@DU?$char_traits@D@std@@V?$allocator@D@2@@4@AEBUNodeConfig@2@@std@@QEAA@$$QEAV<lambda_1>@?1???$CreateBuilder@VRetryNode@BT@@$$V@BT@@YA?AV?$function@$$A6A?AV?$unique_ptr@VTreeNode@BT@@U?$default_delete@VTreeNode@BT@@@std@@@std@@AEBV?$basic_string@DU?$char_traits@D@std@@V?$allocator@D@2@@2@AEBUNodeConfig@BT@@@Z@1@XZ@@Z
	??$?0V<lambda_1>@?1???$CreateBuilder@VRetryNode@BT@@$$V@BT@@YA?AV?$function@$$A6A?AV?$unique_ptr@VTreeNode@BT@@U?$default_delete@VTreeNode@BT@@@std@@@std@@AEBV?$basic_string@DU?$char_traits@D@std@@V?$allocator@D@2@@2@AEBUNodeConfig@BT@@@Z@std@@XZ@$0A@@?$function@$$A6A?AV?$unique_ptr@VTreeNode@BT@@U?$default_delete@VTreeNode@BT@@@std@@@std@@AEBV?$basic_string@DU?$char_traits@D@std@@V?$allocator@D@2@@2@AEBUNodeConfig@BT@@@Z@std@@QEAA@V<lambda_1>@?1???$CreateBuilder@VRetryNode@BT@@$$V@BT@@YA?AV01@XZ@@Z
	??$?0V<lambda_1>@?1???$CreateBuilder@VScriptNode@BT@@$$V@BT@@YA?AV?$function@$$A6A?AV?$unique_ptr@VTreeNode@BT@@U?$default_delete@VTreeNode@BT@@@std@@@std@@AEBV?$basic_string@DU?$char_traits@D@std@@V?$allocator@D@2@@2@AEBUNodeConfig@BT@@@Z@std@@XZ@$0A@@?$_Func_impl_no_alloc@V<lambda_1>@?1???$CreateBuilder@VScriptNode@BT@@$$V@BT@@YA?AV?$function@$$A6A?AV?$unique_ptr@VTreeNode@BT@@U?$default_delete@VTreeNode@BT@@@std@@@std@@AEBV?$basic_string@DU?$char_traits@D@std@@V?$allocator@D@2@@2@AEBUNodeConfig@BT@@@Z@std@@XZ@V?$unique_ptr@VTreeNode@BT@@U?$default_delete@VTreeNode@BT@@@std@@@4@AEBV?$basic_string@DU?$char_traits@D@std@@V?$allocator@D@2@@4@AEBUNodeConfig@2@@std@@QEAA@$$QEAV<lambda_1>@?1???$CreateBuilder@VScriptNode@BT@@$$V@BT@@YA?AV?$function@$$A6A?AV?$unique_ptr@VTreeNode@BT@@U?$default_delete@VTreeNode@BT@@@std@@@std@@AEBV?$basic_string@DU?$char_traits@D@std@@V?$allocator@D@2@@2@AEBUNodeConfig@BT@@@Z@1@XZ@@Z
	??$?0V<lambda_1>@?1???$CreateBuilder@VScriptNode@BT@@$$V@BT@@YA?AV?$function@$$A6A?AV?$unique_ptr@VTreeNode@BT@@U?$default_delete@VTreeNode@BT@@@std@@@std@@AEBV?$basic_string@DU?$char_traits@D@std@@V?$allocator@D@2@@2@AEBUNodeConfig@BT@@@Z@std@@XZ@$0A@@?$function@$$A6A?AV?$unique_ptr@VTreeNode@BT@@U?$default_delete@VTreeNode@BT@@@std@@@std@@AEBV?$basic_string@DU?$char_traits@D@std@@V?$allocator@D@2@@2@AEBUNodeConfig@BT@@@Z@std@@QEAA@V<lambda_1>@?1???$CreateBuilder@VScriptNode@BT@@$$V@BT@@YA?AV01@XZ@@Z
	??$?0V<lambda_1>@?1???$CreateBuilder@VSequenceNode@BT@@$$V@BT@@YA?AV?$function@$$A6A?AV?$unique_ptr@VTreeNode@BT@@U?$default_delete@VTreeNode@BT@@@std@@@std@@AEBV?$basic_string@DU?$char_traits@D@std@@V?$allocator@D@2@@2@AEBUNodeConfig@BT@@@Z@std@@XZ@$0A@@?$_Func_impl_no_alloc@V<lambda_1>@?1???$CreateBuilder@VSequenceNode@BT@@$$V@BT@@YA?AV?$function@$$A6A?AV?$unique_ptr@VTreeNode@BT@@U?$default_delete@VTreeNode@BT@@@std@@@std@@AEBV?$basic_string@DU?$char_traits@D@std@@V?$allocator@D@2@@2@AEBUNodeConfig@BT@@@Z@std@@XZ@V?$unique_ptr@VTreeNode@BT@@U?$default_delete@VTreeNode@BT@@@std@@@4@AEBV?$basic_string@DU?$char_traits@D@std@@V?$allocator@D@2@@4@AEBUNodeConfig@2@@std@@QEAA@$$QEAV<lambda_1>@?1???$CreateBuilder@VSequenceNode@BT@@$$V@BT@@YA?AV?$function@$$A6A?AV?$unique_ptr@VTreeNode@BT@@U?$default_delete@VTreeNode@BT@@@std@@@std@@AEBV?$basic_string@DU?$char_traits@D@std@@V?$allocator@D@2@@2@AEBUNodeConfig@BT@@@Z@1@XZ@@Z
	??$?0V<lambda_1>@?1???$CreateBuilder@VSequenceNode@BT@@$$V@BT@@YA?AV?$function@$$A6A?AV?$unique_ptr@VTreeNode@BT@@U?$default_delete@VTreeNode@BT@@@std@@@std@@AEBV?$basic_string@DU?$char_traits@D@std@@V?$allocator@D@2@@2@AEBUNodeConfig@BT@@@Z@std@@XZ@$0A@@?$function@$$A6A?AV?$unique_ptr@VTreeNode@BT@@U?$default_delete@VTreeNode@BT@@@std@@@std@@AEBV?$basic_string@DU?$char_traits@D@std@@V?$allocator@D@2@@2@AEBUNodeConfig@BT@@@Z@std@@QEAA@V<lambda_1>@?1???$CreateBuilder@VSequenceNode@BT@@$$V@BT@@YA?AV01@XZ@@Z
	??$?0V<lambda_1>@?1???$CreateBuilder@VSequenceWithMemory@BT@@$$V@BT@@YA?AV?$function@$$A6A?AV?$unique_ptr@VTreeNode@BT@@U?$default_delete@VTreeNode@BT@@@std@@@std@@AEBV?$basic_string@DU?$char_traits@D@std@@V?$allocator@D@2@@2@AEBUNodeConfig@BT@@@Z@std@@XZ@$0A@@?$_Func_impl_no_alloc@V<lambda_1>@?1???$CreateBuilder@VSequenceWithMemory@BT@@$$V@BT@@YA?AV?$function@$$A6A?AV?$unique_ptr@VTreeNode@BT@@U?$default_delete@VTreeNode@BT@@@std@@@std@@AEBV?$basic_string@DU?$char_traits@D@std@@V?$allocator@D@2@@2@AEBUNodeConfig@BT@@@Z@std@@XZ@V?$unique_ptr@VTreeNode@BT@@U?$default_delete@VTreeNode@BT@@@std@@@4@AEBV?$basic_string@DU?$char_traits@D@std@@V?$allocator@D@2@@4@AEBUNodeConfig@2@@std@@QEAA@$$QEAV<lambda_1>@?1???$CreateBuilder@VSequenceWithMemory@BT@@$$V@BT@@YA?AV?$function@$$A6A?AV?$unique_ptr@VTreeNode@BT@@U?$default_delete@VTreeNode@BT@@@std@@@std@@AEBV?$basic_string@DU?$char_traits@D@std@@V?$allocator@D@2@@2@AEBUNodeConfig@BT@@@Z@1@XZ@@Z
	??$?0V<lambda_1>@?1???$CreateBuilder@VSequenceWithMemory@BT@@$$V@BT@@YA?AV?$function@$$A6A?AV?$unique_ptr@VTreeNode@BT@@U?$default_delete@VTreeNode@BT@@@std@@@std@@AEBV?$basic_string@DU?$char_traits@D@std@@V?$allocator@D@2@@2@AEBUNodeConfig@BT@@@Z@std@@XZ@$0A@@?$function@$$A6A?AV?$unique_ptr@VTreeNode@BT@@U?$default_delete@VTreeNode@BT@@@std@@@std@@AEBV?$basic_string@DU?$char_traits@D@std@@V?$allocator@D@2@@2@AEBUNodeConfig@BT@@@Z@std@@QEAA@V<lambda_1>@?1???$CreateBuilder@VSequenceWithMemory@BT@@$$V@BT@@YA?AV01@XZ@@Z
	??$?0V<lambda_1>@?1???$CreateBuilder@VSetBlackboard@BT@@$$V@BT@@YA?AV?$function@$$A6A?AV?$unique_ptr@VTreeNode@BT@@U?$default_delete@VTreeNode@BT@@@std@@@std@@AEBV?$basic_string@DU?$char_traits@D@std@@V?$allocator@D@2@@2@AEBUNodeConfig@BT@@@Z@std@@XZ@$0A@@?$_Func_impl_no_alloc@V<lambda_1>@?1???$CreateBuilder@VSetBlackboard@BT@@$$V@BT@@YA?AV?$function@$$A6A?AV?$unique_ptr@VTreeNode@BT@@U?$default_delete@VTreeNode@BT@@@std@@@std@@AEBV?$basic_string@DU?$char_traits@D@std@@V?$allocator@D@2@@2@AEBUNodeConfig@BT@@@Z@std@@XZ@V?$unique_ptr@VTreeNode@BT@@U?$default_delete@VTreeNode@BT@@@std@@@4@AEBV?$basic_string@DU?$char_traits@D@std@@V?$allocator@D@2@@4@AEBUNodeConfig@2@@std@@QEAA@$$QEAV<lambda_1>@?1???$CreateBuilder@VSetBlackboard@BT@@$$V@BT@@YA?AV?$function@$$A6A?AV?$unique_ptr@VTreeNode@BT@@U?$default_delete@VTreeNode@BT@@@std@@@std@@AEBV?$basic_string@DU?$char_traits@D@std@@V?$allocator@D@2@@2@AEBUNodeConfig@BT@@@Z@1@XZ@@Z
	??$?0V<lambda_1>@?1???$CreateBuilder@VSetBlackboard@BT@@$$V@BT@@YA?AV?$function@$$A6A?AV?$unique_ptr@VTreeNode@BT@@U?$default_delete@VTreeNode@BT@@@std@@@std@@AEBV?$basic_string@DU?$char_traits@D@std@@V?$allocator@D@2@@2@AEBUNodeConfig@BT@@@Z@std@@XZ@$0A@@?$function@$$A6A?AV?$unique_ptr@VTreeNode@BT@@U?$default_delete@VTreeNode@BT@@@std@@@std@@AEBV?$basic_string@DU?$char_traits@D@std@@V?$allocator@D@2@@2@AEBUNodeConfig@BT@@@Z@std@@QEAA@V<lambda_1>@?1???$CreateBuilder@VSetBlackboard@BT@@$$V@BT@@YA?AV01@XZ@@Z
	??$?0V<lambda_1>@?1???$CreateBuilder@VSubTreeNode@BT@@$$V@BT@@YA?AV?$function@$$A6A?AV?$unique_ptr@VTreeNode@BT@@U?$default_delete@VTreeNode@BT@@@std@@@std@@AEBV?$basic_string@DU?$char_traits@D@std@@V?$allocator@D@2@@2@AEBUNodeConfig@BT@@@Z@std@@XZ@$0A@@?$_Func_impl_no_alloc@V<lambda_1>@?1???$CreateBuilder@VSubTreeNode@BT@@$$V@BT@@YA?AV?$function@$$A6A?AV?$unique_ptr@VTreeNode@BT@@U?$default_delete@VTreeNode@BT@@@std@@@std@@AEBV?$basic_string@DU?$char_traits@D@std@@V?$allocator@D@2@@2@AEBUNodeConfig@BT@@@Z@std@@XZ@V?$unique_ptr@VTreeNode@BT@@U?$default_delete@VTreeNode@BT@@@std@@@4@AEBV?$basic_string@DU?$char_traits@D@std@@V?$allocator@D@2@@4@AEBUNodeConfig@2@@std@@QEAA@$$QEAV<lambda_1>@?1???$CreateBuilder@VSubTreeNode@BT@@$$V@BT@@YA?AV?$function@$$A6A?AV?$unique_ptr@VTreeNode@BT@@U?$default_delete@VTreeNode@BT@@@std@@@std@@AEBV?$basic_string@DU?$char_traits@D@std@@V?$allocator@D@2@@2@AEBUNodeConfig@BT@@@Z@1@XZ@@Z
	??$?0V<lambda_1>@?1???$CreateBuilder@VSubTreeNode@BT@@$$V@BT@@YA?AV?$function@$$A6A?AV?$unique_ptr@VTreeNode@BT@@U?$default_delete@VTreeNode@BT@@@std@@@std@@AEBV?$basic_string@DU?$char_traits@D@std@@V?$allocator@D@2@@2@AEBUNodeConfig@BT@@@Z@std@@XZ@$0A@@?$function@$$A6A?AV?$unique_ptr@VTreeNode@BT@@U?$default_delete@VTreeNode@BT@@@std@@@std@@AEBV?$basic_string@DU?$char_traits@D@std@@V?$allocator@D@2@@2@AEBUNodeConfig@BT@@@Z@std@@QEAA@V<lambda_1>@?1???$CreateBuilder@VSubTreeNode@BT@@$$V@BT@@YA?AV01@XZ@@Z
	??$?0V<lambda_1>@?1???$CreateBuilder@VWhileDoElseNode@BT@@$$V@BT@@YA?AV?$function@$$A6A?AV?$unique_ptr@VTreeNode@BT@@U?$default_delete@VTreeNode@BT@@@std@@@std@@AEBV?$basic_string@DU?$char_traits@D@std@@V?$allocator@D@2@@2@AEBUNodeConfig@BT@@@Z@std@@XZ@$0A@@?$_Func_impl_no_alloc@V<lambda_1>@?1???$CreateBuilder@VWhileDoElseNode@BT@@$$V@BT@@YA?AV?$function@$$A6A?AV?$unique_ptr@VTreeNode@BT@@U?$default_delete@VTreeNode@BT@@@std@@@std@@AEBV?$basic_string@DU?$char_traits@D@std@@V?$allocator@D@2@@2@AEBUNodeConfig@BT@@@Z@std@@XZ@V?$unique_ptr@VTreeNode@BT@@U?$default_delete@VTreeNode@BT@@@std@@@4@AEBV?$basic_string@DU?$char_traits@D@std@@V?$allocator@D@2@@4@AEBUNodeConfig@2@@std@@QEAA@$$QEAV<lambda_1>@?1???$CreateBuilder@VWhileDoElseNode@BT@@$$V@BT@@YA?AV?$function@$$A6A?AV?$unique_ptr@VTreeNode@BT@@U?$default_delete@VTreeNode@BT@@@std@@@std@@AEBV?$basic_string@DU?$char_traits@D@std@@V?$allocator@D@2@@2@AEBUNodeConfig@BT@@@Z@1@XZ@@Z
	??$?0V<lambda_1>@?1???$CreateBuilder@VWhileDoElseNode@BT@@$$V@BT@@YA?AV?$function@$$A6A?AV?$unique_ptr@VTreeNode@BT@@U?$default_delete@VTreeNode@BT@@@std@@@std@@AEBV?$basic_string@DU?$char_traits@D@std@@V?$allocator@D@2@@2@AEBUNodeConfig@BT@@@Z@std@@XZ@$0A@@?$function@$$A6A?AV?$unique_ptr@VTreeNode@BT@@U?$default_delete@VTreeNode@BT@@@std@@@std@@AEBV?$basic_string@DU?$char_traits@D@std@@V?$allocator@D@2@@2@AEBUNodeConfig@BT@@@Z@std@@QEAA@V<lambda_1>@?1???$CreateBuilder@VWhileDoElseNode@BT@@$$V@BT@@YA?AV01@XZ@@Z
	??$?0V<lambda_1>@?1???$GetAnyFromStringFunctor@H@BT@@YA?AV?$function@$$A6A?AVAny@BT@@V?$basic_string_view@DU?$char_traits@D@std@@@std@@@Z@std@@XZ@$0A@@?$_Func_impl_no_alloc@V<lambda_1>@?1???$GetAnyFromStringFunctor@H@BT@@YA?AV?$function@$$A6A?AVAny@BT@@V?$basic_string_view@DU?$char_traits@D@std@@@std@@@Z@std@@XZ@VAny@2@V?$basic_string_view@DU?$char_traits@D@std@@@4@@std@@QEAA@$$QEAV<lambda_1>@?1???$GetAnyFromStringFunctor@H@BT@@YA?AV?$function@$$A6A?AVAny@BT@@V?$basic_string_view@DU?$char_traits@D@std@@@std@@@Z@1@XZ@@Z
	??$?0V<lambda_1>@?1???$GetAnyFromStringFunctor@H@BT@@YA?AV?$function@$$A6A?AVAny@BT@@V?$basic_string_view@DU?$char_traits@D@std@@@std@@@Z@std@@XZ@$0A@@?$function@$$A6A?AVAny@BT@@V?$basic_string_view@DU?$char_traits@D@std@@@std@@@Z@std@@QEAA@V<lambda_1>@?1???$GetAnyFromStringFunctor@H@BT@@YA?AV01@XZ@@Z
	??$?0V<lambda_1>@?1???$GetAnyFromStringFunctor@I@BT@@YA?AV?$function@$$A6A?AVAny@BT@@V?$basic_string_view@DU?$char_traits@D@std@@@std@@@Z@std@@XZ@$0A@@?$_Func_impl_no_alloc@V<lambda_1>@?1???$GetAnyFromStringFunctor@I@BT@@YA?AV?$function@$$A6A?AVAny@BT@@V?$basic_string_view@DU?$char_traits@D@std@@@std@@@Z@std@@XZ@VAny@2@V?$basic_string_view@DU?$char_traits@D@std@@@4@@std@@QEAA@$$QEAV<lambda_1>@?1???$GetAnyFromStringFunctor@I@BT@@YA?AV?$function@$$A6A?AVAny@BT@@V?$basic_string_view@DU?$char_traits@D@std@@@std@@@Z@1@XZ@@Z
	??$?0V<lambda_1>@?1???$GetAnyFromStringFunctor@I@BT@@YA?AV?$function@$$A6A?AVAny@BT@@V?$basic_string_view@DU?$char_traits@D@std@@@std@@@Z@std@@XZ@$0A@@?$function@$$A6A?AVAny@BT@@V?$basic_string_view@DU?$char_traits@D@std@@@std@@@Z@std@@QEAA@V<lambda_1>@?1???$GetAnyFromStringFunctor@I@BT@@YA?AV01@XZ@@Z
	??$?0V<lambda_1>@?1???$GetAnyFromStringFunctor@V?$basic_string@DU?$char_traits@D@std@@V?$allocator@D@2@@std@@@BT@@YA?AV?$function@$$A6A?AVAny@BT@@V?$basic_string_view@DU?$char_traits@D@std@@@std@@@Z@std@@XZ@$0A@@?$_Func_impl_no_alloc@V<lambda_1>@?1???$GetAnyFromStringFunctor@V?$basic_string@DU?$char_traits@D@std@@V?$allocator@D@2@@std@@@BT@@YA?AV?$function@$$A6A?AVAny@BT@@V?$basic_string_view@DU?$char_traits@D@std@@@std@@@Z@std@@XZ@VAny@2@V?$basic_string_view@DU?$char_traits@D@std@@@4@@std@@QEAA@$$QEAV<lambda_1>@?1???$GetAnyFromStringFunctor@V?$basic_string@DU?$char_traits@D@std@@V?$allocator@D@2@@std@@@BT@@YA?AV?$function@$$A6A?AVAny@BT@@V?$basic_string_view@DU?$char_traits@D@std@@@std@@@Z@1@XZ@@Z
	??$?0V<lambda_1>@?1???$GetAnyFromStringFunctor@V?$basic_string@DU?$char_traits@D@std@@V?$allocator@D@2@@std@@@BT@@YA?AV?$function@$$A6A?AVAny@BT@@V?$basic_string_view@DU?$char_traits@D@std@@@std@@@Z@std@@XZ@$0A@@?$function@$$A6A?AVAny@BT@@V?$basic_string_view@DU?$char_traits@D@std@@@std@@@Z@std@@QEAA@V<lambda_1>@?1???$GetAnyFromStringFunctor@V?$basic_string@DU?$char_traits@D@std@@V?$allocator@D@2@@std@@@BT@@YA?AV01@XZ@@Z
	??$?0V<lambda_1>@?1???$GetAnyFromStringFunctor@W4NodeStatus@BT@@@BT@@YA?AV?$function@$$A6A?AVAny@BT@@V?$basic_string_view@DU?$char_traits@D@std@@@std@@@Z@std@@XZ@$0A@@?$_Func_impl_no_alloc@V<lambda_1>@?1???$GetAnyFromStringFunctor@W4NodeStatus@BT@@@BT@@YA?AV?$function@$$A6A?AVAny@BT@@V?$basic_string_view@DU?$char_traits@D@std@@@std@@@Z@std@@XZ@VAny@2@V?$basic_string_view@DU?$char_traits@D@std@@@4@@std@@QEAA@$$QEAV<lambda_1>@?1???$GetAnyFromStringFunctor@W4NodeStatus@BT@@@BT@@YA?AV?$function@$$A6A?AVAny@BT@@V?$basic_string_view@DU?$char_traits@D@std@@@std@@@Z@1@XZ@@Z
	??$?0V<lambda_1>@?1???$GetAnyFromStringFunctor@W4NodeStatus@BT@@@BT@@YA?AV?$function@$$A6A?AVAny@BT@@V?$basic_string_view@DU?$char_traits@D@std@@@std@@@Z@std@@XZ@$0A@@?$function@$$A6A?AVAny@BT@@V?$basic_string_view@DU?$char_traits@D@std@@@std@@@Z@std@@QEAA@V<lambda_1>@?1???$GetAnyFromStringFunctor@W4NodeStatus@BT@@@BT@@YA?AV01@XZ@@Z
	??$?0V<lambda_1>@?1???$GetAnyFromStringFunctor@_N@BT@@YA?AV?$function@$$A6A?AVAny@BT@@V?$basic_string_view@DU?$char_traits@D@std@@@std@@@Z@std@@XZ@$0A@@?$_Func_impl_no_alloc@V<lambda_1>@?1???$GetAnyFromStringFunctor@_N@BT@@YA?AV?$function@$$A6A?AVAny@BT@@V?$basic_string_view@DU?$char_traits@D@std@@@std@@@Z@std@@XZ@VAny@2@V?$basic_string_view@DU?$char_traits@D@std@@@4@@std@@QEAA@$$QEAV<lambda_1>@?1???$GetAnyFromStringFunctor@_N@BT@@YA?AV?$function@$$A6A?AVAny@BT@@V?$basic_string_view@DU?$char_traits@D@std@@@std@@@Z@1@XZ@@Z
	??$?0V<lambda_1>@?1???$GetAnyFromStringFunctor@_N@BT@@YA?AV?$function@$$A6A?AVAny@BT@@V?$basic_string_view@DU?$char_traits@D@std@@@std@@@Z@std@@XZ@$0A@@?$function@$$A6A?AVAny@BT@@V?$basic_string_view@DU?$char_traits@D@std@@@std@@@Z@std@@QEAA@V<lambda_1>@?1???$GetAnyFromStringFunctor@_N@BT@@YA?AV01@XZ@@Z
	??$?0V<lambda_1>@?1???0?$TimerQueue@Usteady_clock@chrono@std@@V?$duration@_JU?$ratio@$00$0DLJKMKAA@@std@@@23@@BT@@QEAA@XZ@$$V$0A@@?$tuple@V<lambda_1>@?1???0?$TimerQueue@Usteady_clock@chrono@std@@V?$duration@_JU?$ratio@$00$0DLJKMKAA@@std@@@23@@BT@@QEAA@XZ@@std@@QEAA@$$QEAV<lambda_1>@?1???0?$TimerQueue@Usteady_clock@chrono@std@@V?$duration@_JU?$ratio@$00$0DLJKMKAA@@std@@@23@@BT@@QEAA@XZ@@Z
	??$?0V<lambda_1>@?1???0?$TimerQueue@Usteady_clock@chrono@std@@V?$duration@_JU?$ratio@$00$0DLJKMKAA@@std@@@23@@BT@@QEAA@XZ@$$V$0A@@thread@std@@QEAA@$$QEAV<lambda_1>@?1???0?$TimerQueue@Usteady_clock@chrono@std@@V?$duration@_JU?$ratio@$00$0DLJKMKAA@@std@@@23@@BT@@QEAA@XZ@@Z
	??$?0V<lambda_1>@?1???0?$TimerQueue@Usteady_clock@chrono@std@@V?$duration@_JU?$ratio@$00$0DLJKMKAA@@std@@@23@@BT@@QEAA@XZ@@?$_Tuple_val@V<lambda_1>@?1???0?$TimerQueue@Usteady_clock@chrono@std@@V?$duration@_JU?$ratio@$00$0DLJKMKAA@@std@@@23@@BT@@QEAA@XZ@@std@@QEAA@$$QEAV<lambda_1>@?1???0?$TimerQueue@Usteady_clock@chrono@std@@V?$duration@_JU?$ratio@$00$0DLJKMKAA@@std@@@23@@BT@@QEAA@XZ@@Z
	??$?0V<lambda_1>@?1???0StatusChangeLogger@BT@@QEAA@PEAVTreeNode@2@@Z@$0A@@?$_Func_impl_no_alloc@V<lambda_1>@?1???0StatusChangeLogger@BT@@QEAA@PEAVTreeNode@3@@Z@XV?$time_point@Usteady_clock@chrono@std@@V?$duration@_JU?$ratio@$00$0DLJKMKAA@@std@@@23@@chrono@std@@AEBV43@W4NodeStatus@3@W483@@std@@QEAA@$$QEAV<lambda_1>@?1???0StatusChangeLogger@BT@@QEAA@PEAVTreeNode@4@@Z@@Z
	??$?0V<lambda_1>@?1???0StatusChangeLogger@BT@@QEAA@PEAVTreeNode@2@@Z@$0A@@?$function@$$A6AXV?$time_point@Usteady_clock@chrono@std@@V?$duration@_JU?$ratio@$00$0DLJKMKAA@@std@@@23@@chrono@std@@AEBVTreeNode@BT@@W4NodeStatus@5@2@Z@std@@QEAA@V<lambda_1>@?1???0StatusChangeLogger@BT@@QEAA@PEAVTreeNode@4@@Z@@Z
	??$?0V<lambda_1>@?1???1?$TimerQueue@Usteady_clock@chrono@std@@V?$duration@_JU?$ratio@$00$0DLJKMKAA@@std@@@23@@BT@@QEAA@XZ@$0A@@?$_Func_impl_no_alloc@V<lambda_1>@?1???1?$TimerQueue@Usteady_clock@chrono@std@@V?$duration@_JU?$ratio@$00$0DLJKMKAA@@std@@@23@@BT@@QEAA@XZ@X_N@std@@QEAA@$$QEAV<lambda_1>@?1???1?$TimerQueue@Usteady_clock@chrono@std@@V?$duration@_JU?$ratio@$00$0DLJKMKAA@@std@@@23@@BT@@QEAA@XZ@@Z
	??$?0V<lambda_1>@?1???1?$TimerQueue@Usteady_clock@chrono@std@@V?$duration@_JU?$ratio@$00$0DLJKMKAA@@std@@@23@@BT@@QEAA@XZ@$0A@@?$function@$$A6AX_N@Z@std@@QEAA@V<lambda_1>@?1???1?$TimerQueue@Usteady_clock@chrono@std@@V?$duration@_JU?$ratio@$00$0DLJKMKAA@@std@@@23@@BT@@QEAA@XZ@@Z
	??$?0V<lambda_1>@?1??CreateFlatbuffersBehaviorTree@BT@@YAXAEAVFlatBufferBuilder@flatbuffers@@AEBVTree@2@@Z@$0A@@?$_Func_impl_no_alloc@V<lambda_1>@?1??CreateFlatbuffersBehaviorTree@BT@@YAXAEAVFlatBufferBuilder@flatbuffers@@AEBVTree@3@@Z@XPEAVTreeNode@3@@std@@QEAA@$$QEAV<lambda_1>@?1??CreateFlatbuffersBehaviorTree@BT@@YAXAEAVFlatBufferBuilder@flatbuffers@@AEBVTree@4@@Z@@Z
	??$?0V<lambda_1>@?1??CreateFlatbuffersBehaviorTree@BT@@YAXAEAVFlatBufferBuilder@flatbuffers@@AEBVTree@2@@Z@$0A@@?$function@$$A6AXPEAVTreeNode@BT@@@Z@std@@QEAA@V<lambda_1>@?1??CreateFlatbuffersBehaviorTree@BT@@YAXAEAVFlatBufferBuilder@flatbuffers@@AEBVTree@4@@Z@@Z
	??$?0V<lambda_1>@?1??_MakeVoidToUnitFunc@details@Concurrency@@YA?AV?$function@$$A6AEXZ@std@@AEBV?$function@$$A6AXXZ@5@@Z@$0A@@?$_Func_impl_no_alloc@V<lambda_1>@?1??_MakeVoidToUnitFunc@details@Concurrency@@YA?AV?$function@$$A6AEXZ@std@@AEBV?$function@$$A6AXXZ@6@@Z@E$$V@std@@QEAA@$$QEAV<lambda_1>@?1??_MakeVoidToUnitFunc@details@Concurrency@@YA?AV?$function@$$A6AEXZ@1@AEBV?$function@$$A6AXXZ@1@@Z@@Z
	??$?0V<lambda_1>@?1??_MakeVoidToUnitFunc@details@Concurrency@@YA?AV?$function@$$A6AEXZ@std@@AEBV?$function@$$A6AXXZ@5@@Z@$0A@@?$function@$$A6AEXZ@std@@QEAA@V<lambda_1>@?1??_MakeVoidToUnitFunc@details@Concurrency@@YA?AV01@AEBV?$function@$$A6AXXZ@1@@Z@@Z
	??$?0V<lambda_1>@?1??haltTree@Tree@BT@@QEAAXXZ@$0A@@?$_Func_impl_no_alloc@V<lambda_1>@?1??haltTree@Tree@BT@@QEAAXXZ@XPEAVTreeNode@4@@std@@QEAA@$$QEAV<lambda_1>@?1??haltTree@Tree@BT@@QEAAXXZ@@Z
	??$?0V<lambda_1>@?1??haltTree@Tree@BT@@QEAAXXZ@$0A@@?$function@$$A6AXPEAVTreeNode@BT@@@Z@std@@QEAA@V<lambda_1>@?1??haltTree@Tree@BT@@QEAAXXZ@@Z
	??$?0V<lambda_1>@?4??_ScheduleContinuationTask@_Task_impl_base@details@Concurrency@@QEAAXPEAU_ContinuationTaskHandleBase@34@@Z@$0A@@?$_Func_impl_no_alloc@V<lambda_1>@?4??_ScheduleContinuationTask@_Task_impl_base@details@Concurrency@@QEAAXPEAU_ContinuationTaskHandleBase@45@@Z@X$$V@std@@QEAA@$$QEAV<lambda_1>@?4??_ScheduleContinuationTask@_Task_impl_base@details@Concurrency@@QEAAXPEAU_ContinuationTaskHandleBase@56@@Z@@Z
	??$?0V<lambda_1>@?4??_ScheduleContinuationTask@_Task_impl_base@details@Concurrency@@QEAAXPEAU_ContinuationTaskHandleBase@34@@Z@$0A@@?$function@$$A6AXXZ@std@@QEAA@V<lambda_1>@?4??_ScheduleContinuationTask@_Task_impl_base@details@Concurrency@@QEAAXPEAU_ContinuationTaskHandleBase@56@@Z@@Z
	??$?0V<lambda_1>@?7???R0?4??_ScheduleContinuationTask@_Task_impl_base@details@Concurrency@@QEAAXPEAU_ContinuationTaskHandleBase@34@@Z@QEBA@XZ@$0A@@?$_Func_impl_no_alloc@V<lambda_1>@?7???R1?4??_ScheduleContinuationTask@_Task_impl_base@details@Concurrency@@QEAAXPEAU_ContinuationTaskHandleBase@45@@Z@QEBA@XZ@X$$V@std@@QEAA@$$QEAV<lambda_1>@?7???R2?4??_ScheduleContinuationTask@_Task_impl_base@details@Concurrency@@QEAAXPEAU_ContinuationTaskHandleBase@56@@Z@QEBA@XZ@@Z
	??$?0V<lambda_1>@?7???R0?4??_ScheduleContinuationTask@_Task_impl_base@details@Concurrency@@QEAAXPEAU_ContinuationTaskHandleBase@34@@Z@QEBA@XZ@$0A@@?$function@$$A6AXXZ@std@@QEAA@V<lambda_1>@?7???R2?4??_ScheduleContinuationTask@_Task_impl_base@details@Concurrency@@QEAAXPEAU_ContinuationTaskHandleBase@56@@Z@QEBA@XZ@@Z
	??$?0V<lambda_1>@?CC@??_CancelAndRunContinuations@?$_Task_impl@E@details@Concurrency@@UEAA_N_N00AEBV?$shared_ptr@U_ExceptionHolder@details@Concurrency@@@std@@@Z@$0A@@?$_Func_impl_no_alloc@V<lambda_1>@?CC@??_CancelAndRunContinuations@?$_Task_impl@E@details@Concurrency@@UEAA_N_N00AEBV?$shared_ptr@U_ExceptionHolder@details@Concurrency@@@std@@@Z@X$$V@std@@QEAA@$$QEAV<lambda_1>@?CC@??_CancelAndRunContinuations@?$_Task_impl@E@details@Concurrency@@UEAA_N_N00AEBV?$shared_ptr@U_ExceptionHolder@details@Concurrency@@@1@@Z@@Z
	??$?0V<lambda_1>@?CC@??_CancelAndRunContinuations@?$_Task_impl@E@details@Concurrency@@UEAA_N_N00AEBV?$shared_ptr@U_ExceptionHolder@details@Concurrency@@@std@@@Z@$0A@@?$function@$$A6AXXZ@std@@QEAA@V<lambda_1>@?CC@??_CancelAndRunContinuations@?$_Task_impl@E@details@Concurrency@@UEAA_N_N00AEBV?$shared_ptr@U_ExceptionHolder@details@Concurrency@@@1@@Z@@Z
	??$?0V<lambda_1>@?O@??tick@?$TimeoutNode@Usteady_clock@chrono@std@@V?$duration@_JU?$ratio@$00$0DLJKMKAA@@std@@@23@@BT@@EEAA?AW4NodeStatus@3@XZ@$0A@@?$_Func_impl_no_alloc@V<lambda_1>@?O@??tick@?$TimeoutNode@Usteady_clock@chrono@std@@V?$duration@_JU?$ratio@$00$0DLJKMKAA@@std@@@23@@BT@@EEAA?AW4NodeStatus@4@XZ@X_N@std@@QEAA@$$QEAV<lambda_1>@?O@??tick@?$TimeoutNode@Usteady_clock@chrono@std@@V?$duration@_JU?$ratio@$00$0DLJKMKAA@@std@@@23@@BT@@EEAA?AW4NodeStatus@5@XZ@@Z
	??$?0V<lambda_1>@?O@??tick@?$TimeoutNode@Usteady_clock@chrono@std@@V?$duration@_JU?$ratio@$00$0DLJKMKAA@@std@@@23@@BT@@EEAA?AW4NodeStatus@3@XZ@$0A@@?$function@$$A6AX_N@Z@std@@QEAA@V<lambda_1>@?O@??tick@?$TimeoutNode@Usteady_clock@chrono@std@@V?$duration@_JU?$ratio@$00$0DLJKMKAA@@std@@@23@@BT@@EEAA?AW4NodeStatus@5@XZ@@Z
	??$?0V<lambda_2>@?1???0StatusChangeLogger@BT@@QEAA@PEAVTreeNode@2@@Z@$0A@@?$_Func_impl_no_alloc@V<lambda_2>@?1???0StatusChangeLogger@BT@@QEAA@PEAVTreeNode@3@@Z@XPEAV43@@std@@QEAA@$$QEAV<lambda_2>@?1???0StatusChangeLogger@BT@@QEAA@PEAVTreeNode@4@@Z@@Z
	??$?0V<lambda_2>@?1???0StatusChangeLogger@BT@@QEAA@PEAVTreeNode@2@@Z@$0A@@?$function@$$A6AXPEAVTreeNode@BT@@@Z@std@@QEAA@V<lambda_2>@?1???0StatusChangeLogger@BT@@QEAA@PEAVTreeNode@4@@Z@@Z
	??$?0V?$SwitchNode@$01@BT@@$0A@@?$default_delete@VTreeNode@BT@@@std@@QEAA@AEBU?$default_delete@V?$SwitchNode@$01@BT@@@1@@Z
	??$?0V?$SwitchNode@$01@BT@@U?$default_delete@V?$SwitchNode@$01@BT@@@std@@$0A@@?$unique_ptr@VTreeNode@BT@@U?$default_delete@VTreeNode@BT@@@std@@@std@@QEAA@$$QEAV?$unique_ptr@V?$SwitchNode@$01@BT@@U?$default_delete@V?$SwitchNode@$01@BT@@@std@@@1@@Z
	??$?0V?$SwitchNode@$02@BT@@$0A@@?$default_delete@VTreeNode@BT@@@std@@QEAA@AEBU?$default_delete@V?$SwitchNode@$02@BT@@@1@@Z
	??$?0V?$SwitchNode@$02@BT@@U?$default_delete@V?$SwitchNode@$02@BT@@@std@@$0A@@?$unique_ptr@VTreeNode@BT@@U?$default_delete@VTreeNode@BT@@@std@@@std@@QEAA@$$QEAV?$unique_ptr@V?$SwitchNode@$02@BT@@U?$default_delete@V?$SwitchNode@$02@BT@@@std@@@1@@Z
	??$?0V?$SwitchNode@$03@BT@@$0A@@?$default_delete@VTreeNode@BT@@@std@@QEAA@AEBU?$default_delete@V?$SwitchNode@$03@BT@@@1@@Z
	??$?0V?$SwitchNode@$03@BT@@U?$default_delete@V?$SwitchNode@$03@BT@@@std@@$0A@@?$unique_ptr@VTreeNode@BT@@U?$default_delete@VTreeNode@BT@@@std@@@std@@QEAA@$$QEAV?$unique_ptr@V?$SwitchNode@$03@BT@@U?$default_delete@V?$SwitchNode@$03@BT@@@std@@@1@@Z
	??$?0V?$SwitchNode@$04@BT@@$0A@@?$default_delete@VTreeNode@BT@@@std@@QEAA@AEBU?$default_delete@V?$SwitchNode@$04@BT@@@1@@Z
	??$?0V?$SwitchNode@$04@BT@@U?$default_delete@V?$SwitchNode@$04@BT@@@std@@$0A@@?$unique_ptr@VTreeNode@BT@@U?$default_delete@VTreeNode@BT@@@std@@@std@@QEAA@$$QEAV?$unique_ptr@V?$SwitchNode@$04@BT@@U?$default_delete@V?$SwitchNode@$04@BT@@@std@@@1@@Z
	??$?0V?$SwitchNode@$05@BT@@$0A@@?$default_delete@VTreeNode@BT@@@std@@QEAA@AEBU?$default_delete@V?$SwitchNode@$05@BT@@@1@@Z
	??$?0V?$SwitchNode@$05@BT@@U?$default_delete@V?$SwitchNode@$05@BT@@@std@@$0A@@?$unique_ptr@VTreeNode@BT@@U?$default_delete@VTreeNode@BT@@@std@@@std@@QEAA@$$QEAV?$unique_ptr@V?$SwitchNode@$05@BT@@U?$default_delete@V?$SwitchNode@$05@BT@@@std@@@1@@Z
	??$?0V?$TimeoutNode@Usteady_clock@chrono@std@@V?$duration@_JU?$ratio@$00$0DLJKMKAA@@std@@@23@@BT@@$0A@@?$default_delete@VTreeNode@BT@@@std@@QEAA@AEBU?$default_delete@V?$TimeoutNode@Usteady_clock@chrono@std@@V?$duration@_JU?$ratio@$00$0DLJKMKAA@@std@@@23@@BT@@@1@@Z
	??$?0V?$TimeoutNode@Usteady_clock@chrono@std@@V?$duration@_JU?$ratio@$00$0DLJKMKAA@@std@@@23@@BT@@U?$default_delete@V?$TimeoutNode@Usteady_clock@chrono@std@@V?$duration@_JU?$ratio@$00$0DLJKMKAA@@std@@@23@@BT@@@std@@$0A@@?$unique_ptr@VTreeNode@BT@@U?$default_delete@VTreeNode@BT@@@std@@@std@@QEAA@$$QEAV?$unique_ptr@V?$TimeoutNode@Usteady_clock@chrono@std@@V?$duration@_JU?$ratio@$00$0DLJKMKAA@@std@@@23@@BT@@U?$default_delete@V?$TimeoutNode@Usteady_clock@chrono@std@@V?$duration@_JU?$ratio@$00$0DLJKMKAA@@std@@@23@@BT@@@std@@@1@@Z
	??$?0V?$_List_iterator@V?$_List_val@U?$_List_simple_types@U?$pair@$$CBV?$basic_string@DU?$char_traits@D@std@@V?$allocator@D@2@@std@@UEntry@Blackboard@BT@@@std@@@std@@@std@@@std@@_N$0A@@?$pair@V?$_List_iterator@V?$_List_val@U?$_List_simple_types@U?$pair@$$CBV?$basic_string@DU?$char_traits@D@std@@V?$allocator@D@2@@std@@UEntry@Blackboard@BT@@@std@@@std@@@std@@@std@@_N@std@@QEAA@$$QEAV?$_List_iterator@V?$_List_val@U?$_List_simple_types@U?$pair@$$CBV?$basic_string@DU?$char_traits@D@std@@V?$allocator@D@2@@std@@UEntry@Blackboard@BT@@@std@@@std@@@std@@@1@$$QEA_N@Z
	??$?0V?$_List_iterator@V?$_List_val@U?$_List_simple_types@U?$pair@$$CBV?$basic_string@DU?$char_traits@D@std@@V?$allocator@D@2@@std@@UTreeNodeManifest@BT@@@std@@@std@@@std@@@std@@_N$0A@@?$pair@V?$_List_iterator@V?$_List_val@U?$_List_simple_types@U?$pair@$$CBV?$basic_string@DU?$char_traits@D@std@@V?$allocator@D@2@@std@@UTreeNodeManifest@BT@@@std@@@std@@@std@@@std@@_N@std@@QEAA@$$QEAV?$_List_iterator@V?$_List_val@U?$_List_simple_types@U?$pair@$$CBV?$basic_string@DU?$char_traits@D@std@@V?$allocator@D@2@@std@@UTreeNodeManifest@BT@@@std@@@std@@@std@@@1@$$QEA_N@Z
	??$?0V?$_List_iterator@V?$_List_val@U?$_List_simple_types@U?$pair@$$CBV?$basic_string@DU?$char_traits@D@std@@V?$allocator@D@2@@std@@V12@@std@@@std@@@std@@@std@@_N$0A@@?$pair@V?$_List_iterator@V?$_List_val@U?$_List_simple_types@U?$pair@$$CBV?$basic_string@DU?$char_traits@D@std@@V?$allocator@D@2@@std@@V12@@std@@@std@@@std@@@std@@_N@std@@QEAA@$$QEAV?$_List_iterator@V?$_List_val@U?$_List_simple_types@U?$pair@$$CBV?$basic_string@DU?$char_traits@D@std@@V?$allocator@D@2@@std@@V12@@std@@@std@@@std@@@1@$$QEA_N@Z
	??$?0V?$_List_iterator@V?$_List_val@U?$_List_simple_types@U?$pair@$$CBV?$basic_string@DU?$char_traits@D@std@@V?$allocator@D@2@@std@@V?$function@$$A6A?AV?$unique_ptr@VTreeNode@BT@@U?$default_delete@VTreeNode@BT@@@std@@@std@@AEBV?$basic_string@DU?$char_traits@D@std@@V?$allocator@D@2@@2@AEBUNodeConfig@BT@@@Z@2@@std@@@std@@@std@@@std@@_N$0A@@?$pair@V?$_List_iterator@V?$_List_val@U?$_List_simple_types@U?$pair@$$CBV?$basic_string@DU?$char_traits@D@std@@V?$allocator@D@2@@std@@V?$function@$$A6A?AV?$unique_ptr@VTreeNode@BT@@U?$default_delete@VTreeNode@BT@@@std@@@std@@AEBV?$basic_string@DU?$char_traits@D@std@@V?$allocator@D@2@@2@AEBUNodeConfig@BT@@@Z@2@@std@@@std@@@std@@@std@@_N@std@@QEAA@$$QEAV?$_List_iterator@V?$_List_val@U?$_List_simple_types@U?$pair@$$CBV?$basic_string@DU?$char_traits@D@std@@V?$allocator@D@2@@std@@V?$function@$$A6A?AV?$unique_ptr@VTreeNode@BT@@U?$default_delete@VTreeNode@BT@@@std@@@std@@AEBV?$basic_string@DU?$char_traits@D@std@@V?$allocator@D@2@@2@AEBUNodeConfig@BT@@@Z@2@@std@@@std@@@std@@@1@$$QEA_N@Z
	??$?0V?$_List_iterator@V?$_List_val@U?$_List_simple_types@U?$pair@$$CBV?$basic_string@DU?$char_traits@D@std@@V?$allocator@D@2@@std@@VPortInfo@BT@@@std@@@std@@@std@@@std@@_N$0A@@?$pair@V?$_List_iterator@V?$_List_val@U?$_List_simple_types@U?$pair@$$CBV?$basic_string@DU?$char_traits@D@std@@V?$allocator@D@2@@std@@VPortInfo@BT@@@std@@@std@@@std@@@std@@_N@std@@QEAA@$$QEAV?$_List_iterator@V?$_List_val@U?$_List_simple_types@U?$pair@$$CBV?$basic_string@DU?$char_traits@D@std@@V?$allocator@D@2@@std@@VPortInfo@BT@@@std@@@std@@@std@@@1@$$QEA_N@Z
	??$?0V?$_List_iterator@V?$_List_val@U?$_List_simple_types@U?$pair@$$CBV?$basic_string@DU?$char_traits@D@std@@V?$allocator@D@2@@std@@W4NodeType@BT@@@std@@@std@@@std@@@std@@_N$0A@@?$pair@V?$_List_iterator@V?$_List_val@U?$_List_simple_types@U?$pair@$$CBV?$basic_string@DU?$char_traits@D@std@@V?$allocator@D@2@@std@@W4NodeType@BT@@@std@@@std@@@std@@@std@@_N@std@@QEAA@$$QEAV?$_List_iterator@V?$_List_val@U?$_List_simple_types@U?$pair@$$CBV?$basic_string@DU?$char_traits@D@std@@V?$allocator@D@2@@std@@W4NodeType@BT@@@std@@@std@@@std@@@1@$$QEA_N@Z
	??$?0V?$_Tree_const_iterator@V?$_Tree_val@U?$_Tree_simple_types@V?$basic_string@DU?$char_traits@D@std@@V?$allocator@D@2@@std@@@std@@@std@@@std@@AEB_N$0A@@?$pair@V?$_Tree_const_iterator@V?$_Tree_val@U?$_Tree_simple_types@V?$basic_string@DU?$char_traits@D@std@@V?$allocator@D@2@@std@@@std@@@std@@@std@@_N@std@@QEAA@$$QEAV?$_Tree_const_iterator@V?$_Tree_val@U?$_Tree_simple_types@V?$basic_string@DU?$char_traits@D@std@@V?$allocator@D@2@@std@@@std@@@std@@@1@AEB_N@Z
	??$?0V?$_Tree_const_iterator@V?$_Tree_val@U?$_Tree_simple_types@V?$basic_string_view@DU?$char_traits@D@std@@@std@@@std@@@std@@@std@@AEB_N$0A@@?$pair@V?$_Tree_const_iterator@V?$_Tree_val@U?$_Tree_simple_types@V?$basic_string_view@DU?$char_traits@D@std@@@std@@@std@@@std@@@std@@_N@std@@QEAA@$$QEAV?$_Tree_const_iterator@V?$_Tree_val@U?$_Tree_simple_types@V?$basic_string_view@DU?$char_traits@D@std@@@std@@@std@@@std@@@1@AEB_N@Z
	??$?0V?$_Tree_const_iterator@V?$_Tree_val@U?$_Tree_simple_types@_K@std@@@std@@@std@@AEB_N$0A@@?$pair@V?$_Tree_const_iterator@V?$_Tree_val@U?$_Tree_simple_types@_K@std@@@std@@@std@@_N@std@@QEAA@$$QEAV?$_Tree_const_iterator@V?$_Tree_val@U?$_Tree_simple_types@_K@std@@@std@@@1@AEB_N@Z
	??$?0V?$_Tree_iterator@V?$_Tree_val@U?$_Tree_simple_types@U?$pair@$$CBW4PostCond@BT@@V?$basic_string@DU?$char_traits@D@std@@V?$allocator@D@2@@std@@@std@@@std@@@std@@@std@@AEB_N$0A@@?$pair@V?$_Tree_iterator@V?$_Tree_val@U?$_Tree_simple_types@U?$pair@$$CBW4PostCond@BT@@V?$basic_string@DU?$char_traits@D@std@@V?$allocator@D@2@@std@@@std@@@std@@@std@@@std@@_N@std@@QEAA@$$QEAV?$_Tree_iterator@V?$_Tree_val@U?$_Tree_simple_types@U?$pair@$$CBW4PostCond@BT@@V?$basic_string@DU?$char_traits@D@std@@V?$allocator@D@2@@std@@@std@@@std@@@std@@@1@AEB_N@Z
	??$?0V?$_Tree_iterator@V?$_Tree_val@U?$_Tree_simple_types@U?$pair@$$CBW4PreCond@BT@@V?$basic_string@DU?$char_traits@D@std@@V?$allocator@D@2@@std@@@std@@@std@@@std@@@std@@AEB_N$0A@@?$pair@V?$_Tree_iterator@V?$_Tree_val@U?$_Tree_simple_types@U?$pair@$$CBW4PreCond@BT@@V?$basic_string@DU?$char_traits@D@std@@V?$allocator@D@2@@std@@@std@@@std@@@std@@@std@@_N@std@@QEAA@$$QEAV?$_Tree_iterator@V?$_Tree_val@U?$_Tree_simple_types@U?$pair@$$CBW4PreCond@BT@@V?$basic_string@DU?$char_traits@D@std@@V?$allocator@D@2@@std@@@std@@@std@@@std@@@1@AEB_N@Z
	??$?0V?$allocator@D@std@@$$V@?$_Compressed_pair@V?$allocator@D@std@@V?$_String_val@U?$_Simple_types@D@std@@@2@$00@std@@QEAA@U_One_then_variadic_args_t@1@$$QEAV?$allocator@D@1@@Z
	??$?0V?$allocator@H@std@@PEAHPEAHPEAH@?$_Compressed_pair@V?$allocator@H@std@@V?$_Vector_val@U?$_Simple_types@H@std@@@2@$00@std@@QEAA@U_One_then_variadic_args_t@1@$$QEAV?$allocator@H@1@$$QEAPEAH22@Z
	??$?0V?$allocator@N@std@@PEANPEANPEAN@?$_Compressed_pair@V?$allocator@N@std@@V?$_Vector_val@U?$_Simple_types@N@std@@@2@$00@std@@QEAA@U_One_then_variadic_args_t@1@$$QEAV?$allocator@N@1@$$QEAPEAN22@Z
	??$?0V?$allocator@PEAX@std@@$$V@?$_Compressed_pair@V?$allocator@PEAX@std@@V?$_Vector_val@U?$_Simple_types@PEAX@std@@@2@$00@std@@QEAA@U_One_then_variadic_args_t@1@$$QEAV?$allocator@PEAX@1@@Z
	??$?0V?$allocator@PEAX@std@@PEAPEAXPEAPEAXPEAPEAX@?$_Compressed_pair@V?$allocator@PEAX@std@@V?$_Vector_val@U?$_Simple_types@PEAX@std@@@2@$00@std@@QEAA@U_One_then_variadic_args_t@1@$$QEAV?$allocator@PEAX@1@$$QEAPEAPEAX22@Z
	??$?0V?$allocator@U?$_List_node@U?$pair@$$CBV?$basic_string@DU?$char_traits@D@std@@V?$allocator@D@2@@std@@V12@@std@@PEAX@std@@@std@@$$V@?$_Compressed_pair@V?$allocator@U?$_List_node@U?$pair@$$CBV?$basic_string@DU?$char_traits@D@std@@V?$allocator@D@2@@std@@V12@@std@@PEAX@std@@@std@@V?$_List_val@U?$_List_simple_types@U?$pair@$$CBV?$basic_string@DU?$char_traits@D@std@@V?$allocator@D@2@@std@@V12@@std@@@std@@@2@$00@std@@QEAA@U_One_then_variadic_args_t@1@$$QEAV?$allocator@U?$_List_node@U?$pair@$$CBV?$basic_string@DU?$char_traits@D@std@@V?$allocator@D@2@@std@@V12@@std@@PEAX@std@@@1@@Z
	??$?0V?$allocator@U?$_List_node@U?$pair@$$CBV?$basic_string@DU?$char_traits@D@std@@V?$allocator@D@2@@std@@V12@@std@@PEAX@std@@@std@@@?$_Hash@V?$_Umap_traits@V?$basic_string@DU?$char_traits@D@std@@V?$allocator@D@2@@std@@V12@V?$_Uhash_compare@V?$basic_string@DU?$char_traits@D@std@@V?$allocator@D@2@@std@@U?$hash@V?$basic_string@DU?$char_traits@D@std@@V?$allocator@D@2@@std@@@2@U?$equal_to@V?$basic_string@DU?$char_traits@D@std@@V?$allocator@D@2@@std@@@2@@2@V?$allocator@U?$pair@$$CBV?$basic_string@DU?$char_traits@D@std@@V?$allocator@D@2@@std@@V12@@std@@@2@$0A@@std@@@std@@IEAA@AEBV01@AEBV?$allocator@U?$_List_node@U?$pair@$$CBV?$basic_string@DU?$char_traits@D@std@@V?$allocator@D@2@@std@@V12@@std@@PEAX@std@@@1@@Z
	??$?0V?$allocator@U?$_List_node@U?$pair@$$CBV?$basic_string@DU?$char_traits@D@std@@V?$allocator@D@2@@std@@V12@@std@@PEAX@std@@@std@@@?$list@U?$pair@$$CBV?$basic_string@DU?$char_traits@D@std@@V?$allocator@D@2@@std@@V12@@std@@V?$allocator@U?$pair@$$CBV?$basic_string@DU?$char_traits@D@std@@V?$allocator@D@2@@std@@V12@@std@@@2@@std@@AEAA@U_Move_allocator_tag@1@AEAV?$allocator@U?$_List_node@U?$pair@$$CBV?$basic_string@DU?$char_traits@D@std@@V?$allocator@D@2@@std@@V12@@std@@PEAX@std@@@1@@Z
	??$?0V?$allocator@U?$_List_node@U?$pair@$$CBV?$basic_string@DU?$char_traits@D@std@@V?$allocator@D@2@@std@@VPortInfo@BT@@@std@@PEAX@std@@@std@@$$V@?$_Compressed_pair@V?$allocator@U?$_List_node@U?$pair@$$CBV?$basic_string@DU?$char_traits@D@std@@V?$allocator@D@2@@std@@VPortInfo@BT@@@std@@PEAX@std@@@std@@V?$_List_val@U?$_List_simple_types@U?$pair@$$CBV?$basic_string@DU?$char_traits@D@std@@V?$allocator@D@2@@std@@VPortInfo@BT@@@std@@@std@@@2@$00@std@@QEAA@U_One_then_variadic_args_t@1@$$QEAV?$allocator@U?$_List_node@U?$pair@$$CBV?$basic_string@DU?$char_traits@D@std@@V?$allocator@D@2@@std@@VPortInfo@BT@@@std@@PEAX@std@@@1@@Z
	??$?0V?$allocator@U?$_List_node@U?$pair@$$CBV?$basic_string@DU?$char_traits@D@std@@V?$allocator@D@2@@std@@VPortInfo@BT@@@std@@PEAX@std@@@std@@@?$_Hash@V?$_Umap_traits@V?$basic_string@DU?$char_traits@D@std@@V?$allocator@D@2@@std@@VPortInfo@BT@@V?$_Uhash_compare@V?$basic_string@DU?$char_traits@D@std@@V?$allocator@D@2@@std@@U?$hash@V?$basic_string@DU?$char_traits@D@std@@V?$allocator@D@2@@std@@@2@U?$equal_to@V?$basic_string@DU?$char_traits@D@std@@V?$allocator@D@2@@std@@@2@@2@V?$allocator@U?$pair@$$CBV?$basic_string@DU?$char_traits@D@std@@V?$allocator@D@2@@std@@VPortInfo@BT@@@std@@@2@$0A@@std@@@std@@IEAA@AEBV01@AEBV?$allocator@U?$_List_node@U?$pair@$$CBV?$basic_string@DU?$char_traits@D@std@@V?$allocator@D@2@@std@@VPortInfo@BT@@@std@@PEAX@std@@@1@@Z
	??$?0V?$allocator@U?$_List_node@U?$pair@$$CBV?$basic_string@DU?$char_traits@D@std@@V?$allocator@D@2@@std@@VPortInfo@BT@@@std@@PEAX@std@@@std@@@?$list@U?$pair@$$CBV?$basic_string@DU?$char_traits@D@std@@V?$allocator@D@2@@std@@VPortInfo@BT@@@std@@V?$allocator@U?$pair@$$CBV?$basic_string@DU?$char_traits@D@std@@V?$allocator@D@2@@std@@VPortInfo@BT@@@std@@@2@@std@@AEAA@U_Move_allocator_tag@1@AEAV?$allocator@U?$_List_node@U?$pair@$$CBV?$basic_string@DU?$char_traits@D@std@@V?$allocator@D@2@@std@@VPortInfo@BT@@@std@@PEAX@std@@@1@@Z
	??$?0V?$allocator@U?$_Tree_node@U?$pair@$$CBW4PostCond@BT@@V?$basic_string@DU?$char_traits@D@std@@V?$allocator@D@2@@std@@@std@@PEAX@std@@@std@@$$V@?$_Compressed_pair@V?$allocator@U?$_Tree_node@U?$pair@$$CBW4PostCond@BT@@V?$basic_string@DU?$char_traits@D@std@@V?$allocator@D@2@@std@@@std@@PEAX@std@@@std@@V?$_Tree_val@U?$_Tree_simple_types@U?$pair@$$CBW4PostCond@BT@@V?$basic_string@DU?$char_traits@D@std@@V?$allocator@D@2@@std@@@std@@@std@@@2@$00@std@@QEAA@U_One_then_variadic_args_t@1@$$QEAV?$allocator@U?$_Tree_node@U?$pair@$$CBW4PostCond@BT@@V?$basic_string@DU?$char_traits@D@std@@V?$allocator@D@2@@std@@@std@@PEAX@std@@@1@@Z
	??$?0V?$allocator@U?$_Tree_node@U?$pair@$$CBW4PostCond@BT@@V?$basic_string@DU?$char_traits@D@std@@V?$allocator@D@2@@std@@@std@@PEAX@std@@@std@@@?$_Tree@V?$_Tmap_traits@W4PostCond@BT@@V?$basic_string@DU?$char_traits@D@std@@V?$allocator@D@2@@std@@U?$less@W4PostCond@BT@@@4@V?$allocator@U?$pair@$$CBW4PostCond@BT@@V?$basic_string@DU?$char_traits@D@std@@V?$allocator@D@2@@std@@@std@@@4@$0A@@std@@@std@@QEAA@AEBV01@$$QEAV?$allocator@U?$_Tree_node@U?$pair@$$CBW4PostCond@BT@@V?$basic_string@DU?$char_traits@D@std@@V?$allocator@D@2@@std@@@std@@PEAX@std@@@1@@Z
	??$?0V?$allocator@U?$_Tree_node@U?$pair@$$CBW4PreCond@BT@@V?$basic_string@DU?$char_traits@D@std@@V?$allocator@D@2@@std@@@std@@PEAX@std@@@std@@$$V@?$_Compressed_pair@V?$allocator@U?$_Tree_node@U?$pair@$$CBW4PreCond@BT@@V?$basic_string@DU?$char_traits@D@std@@V?$allocator@D@2@@std@@@std@@PEAX@std@@@std@@V?$_Tree_val@U?$_Tree_simple_types@U?$pair@$$CBW4PreCond@BT@@V?$basic_string@DU?$char_traits@D@std@@V?$allocator@D@2@@std@@@std@@@std@@@2@$00@std@@QEAA@U_One_then_variadic_args_t@1@$$QEAV?$allocator@U?$_Tree_node@U?$pair@$$CBW4PreCond@BT@@V?$basic_string@DU?$char_traits@D@std@@V?$allocator@D@2@@std@@@std@@PEAX@std@@@1@@Z
	??$?0V?$allocator@U?$_Tree_node@U?$pair@$$CBW4PreCond@BT@@V?$basic_string@DU?$char_traits@D@std@@V?$allocator@D@2@@std@@@std@@PEAX@std@@@std@@@?$_Tree@V?$_Tmap_traits@W4PreCond@BT@@V?$basic_string@DU?$char_traits@D@std@@V?$allocator@D@2@@std@@U?$less@W4PreCond@BT@@@4@V?$allocator@U?$pair@$$CBW4PreCond@BT@@V?$basic_string@DU?$char_traits@D@std@@V?$allocator@D@2@@std@@@std@@@4@$0A@@std@@@std@@QEAA@AEBV01@$$QEAV?$allocator@U?$_Tree_node@U?$pair@$$CBW4PreCond@BT@@V?$basic_string@DU?$char_traits@D@std@@V?$allocator@D@2@@std@@@std@@PEAX@std@@@1@@Z
	??$?0V?$allocator@V?$_List_unchecked_iterator@V?$_List_val@U?$_List_simple_types@U?$pair@$$CBV?$basic_string@DU?$char_traits@D@std@@V?$allocator@D@2@@std@@V12@@std@@@std@@@std@@@std@@@std@@$$V@?$_Compressed_pair@V?$allocator@V?$_List_unchecked_iterator@V?$_List_val@U?$_List_simple_types@U?$pair@$$CBV?$basic_string@DU?$char_traits@D@std@@V?$allocator@D@2@@std@@V12@@std@@@std@@@std@@@std@@@std@@V?$_Vector_val@U?$_Simple_types@V?$_List_unchecked_iterator@V?$_List_val@U?$_List_simple_types@U?$pair@$$CBV?$basic_string@DU?$char_traits@D@std@@V?$allocator@D@2@@std@@V12@@std@@@std@@@std@@@std@@@std@@@2@$00@std@@QEAA@U_One_then_variadic_args_t@1@$$QEAV?$allocator@V?$_List_unchecked_iterator@V?$_List_val@U?$_List_simple_types@U?$pair@$$CBV?$basic_string@DU?$char_traits@D@std@@V?$allocator@D@2@@std@@V12@@std@@@std@@@std@@@std@@@1@@Z
	??$?0V?$allocator@V?$_List_unchecked_iterator@V?$_List_val@U?$_List_simple_types@U?$pair@$$CBV?$basic_string@DU?$char_traits@D@std@@V?$allocator@D@2@@std@@V12@@std@@@std@@@std@@@std@@@std@@$0A@@?$_Hash_vec@V?$allocator@V?$_List_unchecked_iterator@V?$_List_val@U?$_List_simple_types@U?$pair@$$CBV?$basic_string@DU?$char_traits@D@std@@V?$allocator@D@2@@std@@V12@@std@@@std@@@std@@@std@@@std@@@std@@QEAA@$$QEAV?$allocator@V?$_List_unchecked_iterator@V?$_List_val@U?$_List_simple_types@U?$pair@$$CBV?$basic_string@DU?$char_traits@D@std@@V?$allocator@D@2@@std@@V12@@std@@@std@@@std@@@std@@@1@@Z
	??$?0V?$allocator@V?$_List_unchecked_iterator@V?$_List_val@U?$_List_simple_types@U?$pair@$$CBV?$basic_string@DU?$char_traits@D@std@@V?$allocator@D@2@@std@@VPortInfo@BT@@@std@@@std@@@std@@@std@@@std@@$$V@?$_Compressed_pair@V?$allocator@V?$_List_unchecked_iterator@V?$_List_val@U?$_List_simple_types@U?$pair@$$CBV?$basic_string@DU?$char_traits@D@std@@V?$allocator@D@2@@std@@VPortInfo@BT@@@std@@@std@@@std@@@std@@@std@@V?$_Vector_val@U?$_Simple_types@V?$_List_unchecked_iterator@V?$_List_val@U?$_List_simple_types@U?$pair@$$CBV?$basic_string@DU?$char_traits@D@std@@V?$allocator@D@2@@std@@VPortInfo@BT@@@std@@@std@@@std@@@std@@@std@@@2@$00@std@@QEAA@U_One_then_variadic_args_t@1@$$QEAV?$allocator@V?$_List_unchecked_iterator@V?$_List_val@U?$_List_simple_types@U?$pair@$$CBV?$basic_string@DU?$char_traits@D@std@@V?$allocator@D@2@@std@@VPortInfo@BT@@@std@@@std@@@std@@@std@@@1@@Z
	??$?0V?$allocator@V?$_List_unchecked_iterator@V?$_List_val@U?$_List_simple_types@U?$pair@$$CBV?$basic_string@DU?$char_traits@D@std@@V?$allocator@D@2@@std@@VPortInfo@BT@@@std@@@std@@@std@@@std@@@std@@$0A@@?$_Hash_vec@V?$allocator@V?$_List_unchecked_iterator@V?$_List_val@U?$_List_simple_types@U?$pair@$$CBV?$basic_string@DU?$char_traits@D@std@@V?$allocator@D@2@@std@@VPortInfo@BT@@@std@@@std@@@std@@@std@@@std@@@std@@QEAA@$$QEAV?$allocator@V?$_List_unchecked_iterator@V?$_List_val@U?$_List_simple_types@U?$pair@$$CBV?$basic_string@DU?$char_traits@D@std@@V?$allocator@D@2@@std@@VPortInfo@BT@@@std@@@std@@@std@@@std@@@1@@Z
	??$?0V?$allocator@V?$basic_string@DU?$char_traits@D@std@@V?$allocator@D@2@@std@@@std@@PEAV?$basic_string@DU?$char_traits@D@std@@V?$allocator@D@2@@1@PEAV21@PEAV21@@?$_Compressed_pair@V?$allocator@V?$basic_string@DU?$char_traits@D@std@@V?$allocator@D@2@@std@@@std@@V?$_Vector_val@U?$_Simple_types@V?$basic_string@DU?$char_traits@D@std@@V?$allocator@D@2@@std@@@std@@@2@$00@std@@QEAA@U_One_then_variadic_args_t@1@$$QEAV?$allocator@V?$basic_string@DU?$char_traits@D@std@@V?$allocator@D@2@@std@@@1@$$QEAPEAV?$basic_string@DU?$char_traits@D@std@@V?$allocator@D@2@@1@22@Z
	??$?0V?$allocator@V?$basic_string_view@DU?$char_traits@D@std@@@std@@@std@@PEAV?$basic_string_view@DU?$char_traits@D@std@@@1@PEAV21@PEAV21@@?$_Compressed_pair@V?$allocator@V?$basic_string_view@DU?$char_traits@D@std@@@std@@@std@@V?$_Vector_val@U?$_Simple_types@V?$basic_string_view@DU?$char_traits@D@std@@@std@@@std@@@2@$00@std@@QEAA@U_One_then_variadic_args_t@1@$$QEAV?$allocator@V?$basic_string_view@DU?$char_traits@D@std@@@std@@@1@$$QEAPEAV?$basic_string_view@DU?$char_traits@D@std@@@1@22@Z
	??$?0V?$allocator@V?$shared_ptr@UExprBase@Ast@BT@@@std@@@std@@$$V@?$_Compressed_pair@V?$allocator@V?$shared_ptr@UExprBase@Ast@BT@@@std@@@std@@V?$_Vector_val@U?$_Simple_types@V?$shared_ptr@UExprBase@Ast@BT@@@std@@@std@@@2@$00@std@@QEAA@U_One_then_variadic_args_t@1@$$QEAV?$allocator@V?$shared_ptr@UExprBase@Ast@BT@@@std@@@1@@Z
	??$?0V?$allocator@V?$shared_ptr@UExprBase@Ast@BT@@@std@@@std@@PEAV?$shared_ptr@UExprBase@Ast@BT@@@1@PEAV21@PEAV21@@?$_Compressed_pair@V?$allocator@V?$shared_ptr@UExprBase@Ast@BT@@@std@@@std@@V?$_Vector_val@U?$_Simple_types@V?$shared_ptr@UExprBase@Ast@BT@@@std@@@std@@@2@$00@std@@QEAA@U_One_then_variadic_args_t@1@$$QEAV?$allocator@V?$shared_ptr@UExprBase@Ast@BT@@@std@@@1@$$QEAPEAV?$shared_ptr@UExprBase@Ast@BT@@@1@22@Z
	??$?0V?$allocator@_W@std@@$$V@?$_Compressed_pair@V?$allocator@_W@std@@V?$_String_val@U?$_Simple_types@_W@std@@@2@$00@std@@QEAA@U_One_then_variadic_args_t@1@$$QEAV?$allocator@_W@1@@Z
	??$?0V?$basic_fixedsize_stack@Ustack_traits@context@boost@@@context@boost@@AEAV?$function@$$A6AXAEAV?$push_coroutine@X@detail@coroutines2@boost@@@Z@std@@@?$pull_coroutine@X@detail@coroutines2@boost@@QEAA@$$QEAV?$basic_fixedsize_stack@Ustack_traits@context@boost@@@context@3@AEAV?$function@$$A6AXAEAV?$push_coroutine@X@detail@coroutines2@boost@@@Z@std@@@Z
	??$?0V?$basic_fixedsize_stack@Ustack_traits@context@boost@@@context@boost@@AEAV?$function@$$A6AXAEAV?$push_coroutine@X@detail@coroutines2@boost@@@Z@std@@@control_block@?$pull_coroutine@X@detail@coroutines2@boost@@QEAA@Upreallocated@context@4@$$QEAV?$basic_fixedsize_stack@Ustack_traits@context@boost@@@64@AEAV?$function@$$A6AXAEAV?$push_coroutine@X@detail@coroutines2@boost@@@Z@std@@@Z
	??$?0V?$basic_fixedsize_stack@Ustack_traits@context@boost@@@context@boost@@V<lambda_2_>@?0???$?0V?$basic_fixedsize_stack@Ustack_traits@context@boost@@@context@boost@@AEAV?$function@$$A6AXAEAV?$push_coroutine@X@detail@coroutines2@boost@@@Z@std@@@control_block@?$pull_coroutine@X@detail@coroutines2@2@QEAA@Upreallocated@12@$$QEAV012@AEAV?$function@$$A6AXAEAV?$push_coroutine@X@detail@coroutines2@boost@@@Z@std@@@Z@@fiber@context@boost@@QEAA@Uallocator_arg_t@std@@Upreallocated@12@$$QEAV?$basic_fixedsize_stack@Ustack_traits@context@boost@@@12@$$QEAV<lambda_2_>@?0???$?0V?$basic_fixedsize_stack@Ustack_traits@context@boost@@@context@boost@@AEAV?$function@$$A6AXAEAV?$push_coroutine@X@detail@coroutines2@boost@@@Z@std@@@control_block@?$pull_coroutine@X@detail@coroutines2@2@QEAA@12AEAV?$function@$$A6AXAEAV?$push_coroutine@X@detail@coroutines2@boost@@@Z@4@@Z@@Z
	??$?0V?$basic_string@DU?$char_traits@D@std@@V?$allocator@D@2@@std@@$$V$0A@@?$tuple@$$QEAV?$basic_string@DU?$char_traits@D@std@@V?$allocator@D@2@@std@@@std@@QEAA@$$QEAV?$basic_string@DU?$char_traits@D@std@@V?$allocator@D@2@@1@@Z
	??$?0V?$basic_string@DU?$char_traits@D@std@@V?$allocator@D@2@@std@@$0A@@?$expected@HV?$basic_string@DU?$char_traits@D@std@@V?$allocator@D@2@@std@@@expected_lite@nonstd@@QEAA@$$QEAV?$unexpected_type@V?$basic_string@DU?$char_traits@D@std@@V?$allocator@D@2@@std@@@12@@Z
	??$?0V?$basic_string@DU?$char_traits@D@std@@V?$allocator@D@2@@std@@$0A@@?$expected@IV?$basic_string@DU?$char_traits@D@std@@V?$allocator@D@2@@std@@@expected_lite@nonstd@@QEAA@$$QEAV?$unexpected_type@V?$basic_string@DU?$char_traits@D@std@@V?$allocator@D@2@@std@@@12@@Z
	??$?0V?$basic_string@DU?$char_traits@D@std@@V?$allocator@D@2@@std@@$0A@@?$expected@NV?$basic_string@DU?$char_traits@D@std@@V?$allocator@D@2@@std@@@expected_lite@nonstd@@QEAA@$$QEAV?$unexpected_type@V?$basic_string@DU?$char_traits@D@std@@V?$allocator@D@2@@std@@@12@@Z
	??$?0V?$basic_string@DU?$char_traits@D@std@@V?$allocator@D@2@@std@@$0A@@?$expected@Umonostate@std@@V?$basic_string@DU?$char_traits@D@std@@V?$allocator@D@2@@2@@expected_lite@nonstd@@QEAA@$$QEAV?$unexpected_type@V?$basic_string@DU?$char_traits@D@std@@V?$allocator@D@2@@std@@@12@@Z
	??$?0V?$basic_string@DU?$char_traits@D@std@@V?$allocator@D@2@@std@@$0A@@?$expected@V?$basic_string@DU?$char_traits@D@std@@V?$allocator@D@2@@std@@V12@@expected_lite@nonstd@@QEAA@$$QEAV?$basic_string@DU?$char_traits@D@std@@V?$allocator@D@2@@std@@@Z
	??$?0V?$basic_string@DU?$char_traits@D@std@@V?$allocator@D@2@@std@@$0A@@?$expected@V?$basic_string@DU?$char_traits@D@std@@V?$allocator@D@2@@std@@V12@@expected_lite@nonstd@@QEAA@$$QEAV?$unexpected_type@V?$basic_string@DU?$char_traits@D@std@@V?$allocator@D@2@@std@@@12@@Z
	??$?0V?$basic_string@DU?$char_traits@D@std@@V?$allocator@D@2@@std@@$0A@@?$expected@VAny@BT@@V?$basic_string@DU?$char_traits@D@std@@V?$allocator@D@2@@std@@@expected_lite@nonstd@@QEAA@$$QEAV?$unexpected_type@V?$basic_string@DU?$char_traits@D@std@@V?$allocator@D@2@@std@@@12@@Z
	??$?0V?$basic_string@DU?$char_traits@D@std@@V?$allocator@D@2@@std@@$0A@@?$expected@VSimpleString@SafeAny@@V?$basic_string@DU?$char_traits@D@std@@V?$allocator@D@2@@std@@@expected_lite@nonstd@@QEAA@$$QEAV?$unexpected_type@V?$basic_string@DU?$char_traits@D@std@@V?$allocator@D@2@@std@@@12@@Z
	??$?0V?$basic_string@DU?$char_traits@D@std@@V?$allocator@D@2@@std@@$0A@@?$expected@W4NodeStatus@BT@@V?$basic_string@DU?$char_traits@D@std@@V?$allocator@D@2@@std@@@expected_lite@nonstd@@QEAA@$$QEAV?$unexpected_type@V?$basic_string@DU?$char_traits@D@std@@V?$allocator@D@2@@std@@@12@@Z
	??$?0V?$basic_string@DU?$char_traits@D@std@@V?$allocator@D@2@@std@@$0A@@?$expected@_JV?$basic_string@DU?$char_traits@D@std@@V?$allocator@D@2@@std@@@expected_lite@nonstd@@QEAA@$$QEAV?$unexpected_type@V?$basic_string@DU?$char_traits@D@std@@V?$allocator@D@2@@std@@@12@@Z
	??$?0V?$basic_string@DU?$char_traits@D@std@@V?$allocator@D@2@@std@@$0A@@?$expected@_KV?$basic_string@DU?$char_traits@D@std@@V?$allocator@D@2@@std@@@expected_lite@nonstd@@QEAA@$$QEAV?$unexpected_type@V?$basic_string@DU?$char_traits@D@std@@V?$allocator@D@2@@std@@@12@@Z
	??$?0V?$basic_string@DU?$char_traits@D@std@@V?$allocator@D@2@@std@@$0A@@?$expected@_NV?$basic_string@DU?$char_traits@D@std@@V?$allocator@D@2@@std@@@expected_lite@nonstd@@QEAA@$$QEAV?$unexpected_type@V?$basic_string@DU?$char_traits@D@std@@V?$allocator@D@2@@std@@@12@@Z
	??$?0V?$basic_string@DU?$char_traits@D@std@@V?$allocator@D@2@@std@@$0A@@?$unexpected_type@V?$basic_string@DU?$char_traits@D@std@@V?$allocator@D@2@@std@@@expected_lite@nonstd@@QEAA@$$QEAV?$basic_string@DU?$char_traits@D@std@@V?$allocator@D@2@@std@@@Z
	??$?0V?$basic_string@DU?$char_traits@D@std@@V?$allocator@D@2@@std@@$0A@@path@filesystem@std@@QEAA@AEBV?$basic_string@DU?$char_traits@D@std@@V?$allocator@D@2@@2@W4format@012@@Z
	??$?0V?$basic_string@DU?$char_traits@D@std@@V?$allocator@D@2@@std@@@?$_Tuple_val@$$QEAV?$basic_string@DU?$char_traits@D@std@@V?$allocator@D@2@@std@@@std@@QEAA@$$QEAV?$basic_string@DU?$char_traits@D@std@@V?$allocator@D@2@@1@@Z
	??$?0V?$basic_string@DU?$char_traits@D@std@@V?$allocator@D@2@@std@@@?$_lazy_init_storage_non_trivial@V?$basic_string@DU?$char_traits@D@std@@V?$allocator@D@2@@std@@@_detail@lexy@@QEAA@H$$QEAV?$basic_string@DU?$char_traits@D@std@@V?$allocator@D@2@@std@@@Z
	??$?0V?$basic_string@DU?$char_traits@D@std@@V?$allocator@D@2@@std@@@?$lazy_init@V?$basic_string@DU?$char_traits@D@std@@V?$allocator@D@2@@std@@@_detail@lexy@@AEAA@H$$QEAV?$basic_string@DU?$char_traits@D@std@@V?$allocator@D@2@@std@@@Z
	??$?0V?$basic_string@DU?$char_traits@D@std@@V?$allocator@D@2@@std@@@BehaviorTreeException@BT@@QEAA@AEBV?$basic_string@DU?$char_traits@D@std@@V?$allocator@D@2@@std@@@Z
	??$?0V?$basic_string@DU?$char_traits@D@std@@V?$allocator@D@2@@std@@@RuntimeError@BT@@QEAA@AEBV?$basic_string@DU?$char_traits@D@std@@V?$allocator@D@2@@std@@@Z
	??$?0V?$basic_string@DU?$char_traits@D@std@@V?$allocator@D@2@@std@@D@?$string_input@Uutf8_encoding@lexy@@@lexy@@QEAA@AEBV?$basic_string@DU?$char_traits@D@std@@V?$allocator@D@2@@std@@@Z
	??$?0V?$basic_string@DU?$char_traits@D@std@@V?$allocator@D@2@@std@@V01@$0A@@?$pair@$$CBV?$basic_string@DU?$char_traits@D@std@@V?$allocator@D@2@@std@@V12@@std@@QEAA@$$QEAV?$basic_string@DU?$char_traits@D@std@@V?$allocator@D@2@@1@0@Z
	??$?0V?$basic_string@DU?$char_traits@D@std@@V?$allocator@D@2@@std@@VPortInfo@BT@@$0A@@?$pair@$$CBV?$basic_string@DU?$char_traits@D@std@@V?$allocator@D@2@@std@@VPortInfo@BT@@@std@@QEAA@$$QEAU?$pair@V?$basic_string@DU?$char_traits@D@std@@V?$allocator@D@2@@std@@VPortInfo@BT@@@1@@Z
	??$?0V?$basic_string@DU?$char_traits@D@std@@V?$allocator@D@2@@std@@VPortInfo@BT@@$0A@@?$pair@V?$basic_string@DU?$char_traits@D@std@@V?$allocator@D@2@@std@@VPortInfo@BT@@@std@@QEAA@XZ
	??$?0V?$basic_string_view@DU?$char_traits@D@std@@@std@@$0A@@?$basic_string@DU?$char_traits@D@std@@V?$allocator@D@2@@std@@QEAA@AEBV?$basic_string_view@DU?$char_traits@D@std@@@1@AEBV?$allocator@D@1@@Z
	??$?0V?$basic_string_view@DU?$char_traits@D@std@@@std@@$0A@@?$expected@V?$basic_string_view@DU?$char_traits@D@std@@@std@@V?$basic_string@DU?$char_traits@D@std@@V?$allocator@D@2@@2@@expected_lite@nonstd@@QEAA@$$QEAV?$basic_string_view@DU?$char_traits@D@std@@@std@@@Z
	??$?0V?$basic_string_view@DU?$char_traits@D@std@@@std@@@?$_Tree_temp_node@V?$allocator@U?$_Tree_node@V?$basic_string_view@DU?$char_traits@D@std@@@std@@PEAX@std@@@std@@@std@@QEAA@AEAV?$allocator@U?$_Tree_node@V?$basic_string_view@DU?$char_traits@D@std@@@std@@PEAX@std@@@1@PEAU?$_Tree_node@V?$basic_string_view@DU?$char_traits@D@std@@@std@@PEAX@1@$$QEAV?$basic_string_view@DU?$char_traits@D@std@@@1@@Z
	??$?0V?$basic_string_view@_WU?$char_traits@_W@std@@@std@@$0A@@?$basic_string@_WU?$char_traits@_W@std@@V?$allocator@_W@2@@std@@QEAA@AEBV?$basic_string_view@_WU?$char_traits@_W@std@@@1@AEBV?$allocator@_W@1@@Z
	??$?0V?$basic_string_view@_WU?$char_traits@_W@std@@@std@@$0A@@path@filesystem@std@@QEAA@AEBV?$basic_string_view@_WU?$char_traits@_W@std@@@2@W4format@012@@Z
	??$?0V?$function@$$A6AXV?$time_point@Usteady_clock@chrono@std@@V?$duration@_JU?$ratio@$00$0DLJKMKAA@@std@@@23@@chrono@std@@AEBVTreeNode@BT@@W4NodeStatus@5@2@Z@std@@$0A@@?$weak_ptr@V?$function@$$A6AXV?$time_point@Usteady_clock@chrono@std@@V?$duration@_JU?$ratio@$00$0DLJKMKAA@@std@@@23@@chrono@std@@AEBVTreeNode@BT@@W4NodeStatus@5@2@Z@std@@@std@@QEAA@AEBV?$shared_ptr@V?$function@$$A6AXV?$time_point@Usteady_clock@chrono@std@@V?$duration@_JU?$ratio@$00$0DLJKMKAA@@std@@@23@@chrono@std@@AEBVTreeNode@BT@@W4NodeStatus@5@2@Z@std@@@1@@Z
	??$?0V?$function@$$A6AXV?$time_point@Usteady_clock@chrono@std@@V?$duration@_JU?$ratio@$00$0DLJKMKAA@@std@@@23@@chrono@std@@AEBVTreeNode@BT@@W4NodeStatus@5@2@Z@std@@@?$_Ref_count_obj2@V?$function@$$A6AXV?$time_point@Usteady_clock@chrono@std@@V?$duration@_JU?$ratio@$00$0DLJKMKAA@@std@@@23@@chrono@std@@AEBVTreeNode@BT@@W4NodeStatus@5@2@Z@std@@@std@@QEAA@$$QEAV?$function@$$A6AXV?$time_point@Usteady_clock@chrono@std@@V?$duration@_JU?$ratio@$00$0DLJKMKAA@@std@@@23@@chrono@std@@AEBVTreeNode@BT@@W4NodeStatus@5@2@Z@1@@Z
	??$?0V?$shared_ptr@UExprBase@Ast@BT@@@std@@@?$_lazy_init_storage_non_trivial@V?$shared_ptr@UExprBase@Ast@BT@@@std@@@_detail@lexy@@QEAA@H$$QEAV?$shared_ptr@UExprBase@Ast@BT@@@std@@@Z
	??$?0V?$shared_ptr@UExprBase@Ast@BT@@@std@@@?$lazy_init@V?$shared_ptr@UExprBase@Ast@BT@@@std@@@_detail@lexy@@AEAA@H$$QEAV?$shared_ptr@UExprBase@Ast@BT@@@std@@@Z
	??$?0V?$string_input@Uutf8_encoding@lexy@@@lexy@@U_sink@?$_report_error@PEAD@lexy_ext@@@?$_ph@U_pr8@lexy@@@lexy@@QEAA@AEBV?$any_holder@PEBV?$string_input@Uutf8_encoding@lexy@@@lexy@@@_detail@1@AEAV?$any_holder@U_sink@?$_report_error@PEAD@lexy_ext@@@31@@Z
	??$?0V?$string_input@Uutf8_encoding@lexy@@@lexy@@U_sink@?$_report_error@PEAD@lexy_ext@@@?$_validate_callbacks@U_pr8@lexy@@@lexy@@QEAA@AEBV?$any_holder@PEBV?$string_input@Uutf8_encoding@lexy@@@lexy@@@_detail@1@AEAV?$any_holder@U_sink@?$_report_error@PEAD@lexy_ext@@@31@@Z
	??$?0V?$string_input@Uutf8_encoding@lexy@@@lexy@@U_sink@?$_report_error@PEAD@lexy_ext@@@?$_vh@U_pr8@lexy@@@lexy@@QEAA@AEBV?$any_holder@PEBV?$string_input@Uutf8_encoding@lexy@@@lexy@@@_detail@1@AEAV?$any_holder@U_sink@?$_report_error@PEAD@lexy_ext@@@31@@Z
	??$?0V?$tuple@$$QEAV?$basic_string@DU?$char_traits@D@std@@V?$allocator@D@2@@std@@@std@@V?$tuple@$$V@1@$0A@$$Z$S@?$pair@$$CBV?$basic_string@DU?$char_traits@D@std@@V?$allocator@D@2@@std@@H@std@@QEAA@AEAV?$tuple@$$QEAV?$basic_string@DU?$char_traits@D@std@@V?$allocator@D@2@@std@@@1@AEAV?$tuple@$$V@1@U?$integer_sequence@_K$0A@@1@U?$integer_sequence@_K$S@1@@Z
	??$?0V?$tuple@AEBV?$basic_string@DU?$char_traits@D@std@@V?$allocator@D@2@@std@@@std@@V?$tuple@$$V@1@$0A@$$Z$S@?$pair@$$CBV?$basic_string@DU?$char_traits@D@std@@V?$allocator@D@2@@std@@PEBVXMLElement@tinyxml2@@@std@@QEAA@AEAV?$tuple@AEBV?$basic_string@DU?$char_traits@D@std@@V?$allocator@D@2@@std@@@1@AEAV?$tuple@$$V@1@U?$integer_sequence@_K$0A@@1@U?$integer_sequence@_K$S@1@@Z
	??$?0V?$tuple@AEBV?$basic_string@DU?$char_traits@D@std@@V?$allocator@D@2@@std@@@std@@V?$tuple@$$V@1@$0A@$$Z$S@?$pair@$$CBV?$basic_string@DU?$char_traits@D@std@@V?$allocator@D@2@@std@@V12@@std@@QEAA@AEAV?$tuple@AEBV?$basic_string@DU?$char_traits@D@std@@V?$allocator@D@2@@std@@@1@AEAV?$tuple@$$V@1@U?$integer_sequence@_K$0A@@1@U?$integer_sequence@_K$S@1@@Z
	??$?0V?$unique_ptr@UExprComparison@Ast@BT@@U?$default_delete@UExprComparison@Ast@BT@@@std@@@std@@@?$_lazy_init_storage_non_trivial@V?$shared_ptr@UExprBase@Ast@BT@@@std@@@_detail@lexy@@QEAA@H$$QEAV?$unique_ptr@UExprComparison@Ast@BT@@U?$default_delete@UExprComparison@Ast@BT@@@std@@@std@@@Z
	??$?0V?$unique_ptr@UExprComparison@Ast@BT@@U?$default_delete@UExprComparison@Ast@BT@@@std@@@std@@@?$lazy_init@V?$shared_ptr@UExprBase@Ast@BT@@@std@@@_detail@lexy@@AEAA@H$$QEAV?$unique_ptr@UExprComparison@Ast@BT@@U?$default_delete@UExprComparison@Ast@BT@@@std@@@std@@@Z
	??$?0V?$vector@V?$shared_ptr@UExprBase@Ast@BT@@@std@@V?$allocator@V?$shared_ptr@UExprBase@Ast@BT@@@std@@@2@@std@@@?$_lazy_init_storage_non_trivial@V?$vector@V?$shared_ptr@UExprBase@Ast@BT@@@std@@V?$allocator@V?$shared_ptr@UExprBase@Ast@BT@@@std@@@2@@std@@@_detail@lexy@@QEAA@H$$QEAV?$vector@V?$shared_ptr@UExprBase@Ast@BT@@@std@@V?$allocator@V?$shared_ptr@UExprBase@Ast@BT@@@std@@@2@@std@@@Z
	??$?0V?$vector@V?$shared_ptr@UExprBase@Ast@BT@@@std@@V?$allocator@V?$shared_ptr@UExprBase@Ast@BT@@@std@@@2@@std@@@?$lazy_init@V?$vector@V?$shared_ptr@UExprBase@Ast@BT@@@std@@V?$allocator@V?$shared_ptr@UExprBase@Ast@BT@@@std@@@2@@std@@@_detail@lexy@@AEAA@H$$QEAV?$vector@V?$shared_ptr@UExprBase@Ast@BT@@@std@@V?$allocator@V?$shared_ptr@UExprBase@Ast@BT@@@std@@@2@@std@@@Z
	??$?0V?$vector@V?$shared_ptr@UExprBase@Ast@BT@@@std@@V?$allocator@V?$shared_ptr@UExprBase@Ast@BT@@@std@@@2@@std@@@?$parse_result@V?$vector@V?$shared_ptr@UExprBase@Ast@BT@@@std@@V?$allocator@V?$shared_ptr@UExprBase@Ast@BT@@@std@@@2@@std@@U?$_report_error@PEAD@lexy_ext@@@lexy@@AEAA@$$QEAV?$validate_result@U?$_report_error@PEAD@lexy_ext@@@1@$$QEAV?$vector@V?$shared_ptr@UExprBase@Ast@BT@@@std@@V?$allocator@V?$shared_ptr@UExprBase@Ast@BT@@@std@@@2@@std@@@Z
	??$?0VAlwaysFailureNode@BT@@$0A@@?$default_delete@VTreeNode@BT@@@std@@QEAA@AEBU?$default_delete@VAlwaysFailureNode@BT@@@1@@Z
	??$?0VAlwaysFailureNode@BT@@U?$default_delete@VAlwaysFailureNode@BT@@@std@@$0A@@?$unique_ptr@VTreeNode@BT@@U?$default_delete@VTreeNode@BT@@@std@@@std@@QEAA@$$QEAV?$unique_ptr@VAlwaysFailureNode@BT@@U?$default_delete@VAlwaysFailureNode@BT@@@std@@@1@@Z
	??$?0VAlwaysSuccessNode@BT@@$0A@@?$default_delete@VTreeNode@BT@@@std@@QEAA@AEBU?$default_delete@VAlwaysSuccessNode@BT@@@1@@Z
	??$?0VAlwaysSuccessNode@BT@@U?$default_delete@VAlwaysSuccessNode@BT@@@std@@$0A@@?$unique_ptr@VTreeNode@BT@@U?$default_delete@VTreeNode@BT@@@std@@@std@@QEAA@$$QEAV?$unique_ptr@VAlwaysSuccessNode@BT@@U?$default_delete@VAlwaysSuccessNode@BT@@@std@@@1@@Z
	??$?0VAny@BT@@$0A@@?$expected@VAny@BT@@V?$basic_string@DU?$char_traits@D@std@@V?$allocator@D@2@@std@@@expected_lite@nonstd@@QEAA@$$QEAVAny@BT@@@Z
	??$?0VAny@BT@@@?$_lazy_init_storage_non_trivial@VAny@BT@@@_detail@lexy@@QEAA@H$$QEAVAny@BT@@@Z
	??$?0VAny@BT@@@?$lazy_init@VAny@BT@@@_detail@lexy@@AEAA@H$$QEAVAny@BT@@@Z
	??$?0VBlackboard@BT@@$0A@@?$shared_ptr@VBlackboard@BT@@@std@@QEAA@PEAVBlackboard@BT@@@Z
	??$?0VBlackboard@BT@@$0A@@?$weak_ptr@VBlackboard@BT@@@std@@QEAA@AEBV?$shared_ptr@VBlackboard@BT@@@1@@Z
	??$?0VDelayNode@BT@@$0A@@?$default_delete@VTreeNode@BT@@@std@@QEAA@AEBU?$default_delete@VDelayNode@BT@@@1@@Z
	??$?0VDelayNode@BT@@U?$default_delete@VDelayNode@BT@@@std@@$0A@@?$unique_ptr@VTreeNode@BT@@U?$default_delete@VTreeNode@BT@@@std@@@std@@QEAA@$$QEAV?$unique_ptr@VDelayNode@BT@@U?$default_delete@VDelayNode@BT@@@std@@@1@@Z
	??$?0VFallbackNode@BT@@$0A@@?$default_delete@VTreeNode@BT@@@std@@QEAA@AEBU?$default_delete@VFallbackNode@BT@@@1@@Z
	??$?0VFallbackNode@BT@@U?$default_delete@VFallbackNode@BT@@@std@@$0A@@?$unique_ptr@VTreeNode@BT@@U?$default_delete@VTreeNode@BT@@@std@@@std@@QEAA@$$QEAV?$unique_ptr@VFallbackNode@BT@@U?$default_delete@VFallbackNode@BT@@@std@@@1@@Z
	??$?0VForceFailureNode@BT@@$0A@@?$default_delete@VTreeNode@BT@@@std@@QEAA@AEBU?$default_delete@VForceFailureNode@BT@@@1@@Z
	??$?0VForceFailureNode@BT@@U?$default_delete@VForceFailureNode@BT@@@std@@$0A@@?$unique_ptr@VTreeNode@BT@@U?$default_delete@VTreeNode@BT@@@std@@@std@@QEAA@$$QEAV?$unique_ptr@VForceFailureNode@BT@@U?$default_delete@VForceFailureNode@BT@@@std@@@1@@Z
	??$?0VForceSuccessNode@BT@@$0A@@?$default_delete@VTreeNode@BT@@@std@@QEAA@AEBU?$default_delete@VForceSuccessNode@BT@@@1@@Z
	??$?0VForceSuccessNode@BT@@U?$default_delete@VForceSuccessNode@BT@@@std@@$0A@@?$unique_ptr@VTreeNode@BT@@U?$default_delete@VTreeNode@BT@@@std@@@std@@QEAA@$$QEAV?$unique_ptr@VForceSuccessNode@BT@@U?$default_delete@VForceSuccessNode@BT@@@std@@@1@@Z
	??$?0VIfThenElseNode@BT@@$0A@@?$default_delete@VTreeNode@BT@@@std@@QEAA@AEBU?$default_delete@VIfThenElseNode@BT@@@1@@Z
	??$?0VIfThenElseNode@BT@@U?$default_delete@VIfThenElseNode@BT@@@std@@$0A@@?$unique_ptr@VTreeNode@BT@@U?$default_delete@VTreeNode@BT@@@std@@@std@@QEAA@$$QEAV?$unique_ptr@VIfThenElseNode@BT@@U?$default_delete@VIfThenElseNode@BT@@@std@@@1@@Z
	??$?0VInverterNode@BT@@$0A@@?$default_delete@VTreeNode@BT@@@std@@QEAA@AEBU?$default_delete@VInverterNode@BT@@@1@@Z
	??$?0VInverterNode@BT@@U?$default_delete@VInverterNode@BT@@@std@@$0A@@?$unique_ptr@VTreeNode@BT@@U?$default_delete@VTreeNode@BT@@@std@@@std@@QEAA@$$QEAV?$unique_ptr@VInverterNode@BT@@U?$default_delete@VInverterNode@BT@@@std@@@1@@Z
	??$?0VKeepRunningUntilFailureNode@BT@@$0A@@?$default_delete@VTreeNode@BT@@@std@@QEAA@AEBU?$default_delete@VKeepRunningUntilFailureNode@BT@@@1@@Z
	??$?0VKeepRunningUntilFailureNode@BT@@U?$default_delete@VKeepRunningUntilFailureNode@BT@@@std@@$0A@@?$unique_ptr@VTreeNode@BT@@U?$default_delete@VTreeNode@BT@@@std@@@std@@QEAA@$$QEAV?$unique_ptr@VKeepRunningUntilFailureNode@BT@@U?$default_delete@VKeepRunningUntilFailureNode@BT@@@std@@@1@@Z
	??$?0VParallelNode@BT@@$0A@@?$default_delete@VTreeNode@BT@@@std@@QEAA@AEBU?$default_delete@VParallelNode@BT@@@1@@Z
	??$?0VParallelNode@BT@@U?$default_delete@VParallelNode@BT@@@std@@$0A@@?$unique_ptr@VTreeNode@BT@@U?$default_delete@VTreeNode@BT@@@std@@@std@@QEAA@$$QEAV?$unique_ptr@VParallelNode@BT@@U?$default_delete@VParallelNode@BT@@@std@@@1@@Z
	??$?0VPreconditionNode@BT@@$0A@@?$default_delete@VTreeNode@BT@@@std@@QEAA@AEBU?$default_delete@VPreconditionNode@BT@@@1@@Z
	??$?0VPreconditionNode@BT@@U?$default_delete@VPreconditionNode@BT@@@std@@$0A@@?$unique_ptr@VTreeNode@BT@@U?$default_delete@VTreeNode@BT@@@std@@@std@@QEAA@$$QEAV?$unique_ptr@VPreconditionNode@BT@@U?$default_delete@VPreconditionNode@BT@@@std@@@1@@Z
	??$?0VReactiveFallback@BT@@$0A@@?$default_delete@VTreeNode@BT@@@std@@QEAA@AEBU?$default_delete@VReactiveFallback@BT@@@1@@Z
	??$?0VReactiveFallback@BT@@U?$default_delete@VReactiveFallback@BT@@@std@@$0A@@?$unique_ptr@VTreeNode@BT@@U?$default_delete@VTreeNode@BT@@@std@@@std@@QEAA@$$QEAV?$unique_ptr@VReactiveFallback@BT@@U?$default_delete@VReactiveFallback@BT@@@std@@@1@@Z
	??$?0VReactiveSequence@BT@@$0A@@?$default_delete@VTreeNode@BT@@@std@@QEAA@AEBU?$default_delete@VReactiveSequence@BT@@@1@@Z
	??$?0VReactiveSequence@BT@@U?$default_delete@VReactiveSequence@BT@@@std@@$0A@@?$unique_ptr@VTreeNode@BT@@U?$default_delete@VTreeNode@BT@@@std@@@std@@QEAA@$$QEAV?$unique_ptr@VReactiveSequence@BT@@U?$default_delete@VReactiveSequence@BT@@@std@@@1@@Z
	??$?0VRepeatNode@BT@@$0A@@?$default_delete@VTreeNode@BT@@@std@@QEAA@AEBU?$default_delete@VRepeatNode@BT@@@1@@Z
	??$?0VRepeatNode@BT@@U?$default_delete@VRepeatNode@BT@@@std@@$0A@@?$unique_ptr@VTreeNode@BT@@U?$default_delete@VTreeNode@BT@@@std@@@std@@QEAA@$$QEAV?$unique_ptr@VRepeatNode@BT@@U?$default_delete@VRepeatNode@BT@@@std@@@1@@Z
	??$?0VRetryNode@BT@@$0A@@?$default_delete@VTreeNode@BT@@@std@@QEAA@AEBU?$default_delete@VRetryNode@BT@@@1@@Z
	??$?0VRetryNode@BT@@U?$default_delete@VRetryNode@BT@@@std@@$0A@@?$unique_ptr@VTreeNode@BT@@U?$default_delete@VTreeNode@BT@@@std@@@std@@QEAA@$$QEAV?$unique_ptr@VRetryNode@BT@@U?$default_delete@VRetryNode@BT@@@std@@@1@@Z
	??$?0VScriptNode@BT@@$0A@@?$default_delete@VTreeNode@BT@@@std@@QEAA@AEBU?$default_delete@VScriptNode@BT@@@1@@Z
	??$?0VScriptNode@BT@@U?$default_delete@VScriptNode@BT@@@std@@$0A@@?$unique_ptr@VTreeNode@BT@@U?$default_delete@VTreeNode@BT@@@std@@@std@@QEAA@$$QEAV?$unique_ptr@VScriptNode@BT@@U?$default_delete@VScriptNode@BT@@@std@@@1@@Z
	??$?0VSequenceNode@BT@@$0A@@?$default_delete@VTreeNode@BT@@@std@@QEAA@AEBU?$default_delete@VSequenceNode@BT@@@1@@Z
	??$?0VSequenceNode@BT@@U?$default_delete@VSequenceNode@BT@@@std@@$0A@@?$unique_ptr@VTreeNode@BT@@U?$default_delete@VTreeNode@BT@@@std@@@std@@QEAA@$$QEAV?$unique_ptr@VSequenceNode@BT@@U?$default_delete@VSequenceNode@BT@@@std@@@1@@Z
	??$?0VSequenceWithMemory@BT@@$0A@@?$default_delete@VTreeNode@BT@@@std@@QEAA@AEBU?$default_delete@VSequenceWithMemory@BT@@@1@@Z
	??$?0VSequenceWithMemory@BT@@U?$default_delete@VSequenceWithMemory@BT@@@std@@$0A@@?$unique_ptr@VTreeNode@BT@@U?$default_delete@VTreeNode@BT@@@std@@@std@@QEAA@$$QEAV?$unique_ptr@VSequenceWithMemory@BT@@U?$default_delete@VSequenceWithMemory@BT@@@std@@@1@@Z
	??$?0VSetBlackboard@BT@@$0A@@?$default_delete@VTreeNode@BT@@@std@@QEAA@AEBU?$default_delete@VSetBlackboard@BT@@@1@@Z
	??$?0VSetBlackboard@BT@@U?$default_delete@VSetBlackboard@BT@@@std@@$0A@@?$unique_ptr@VTreeNode@BT@@U?$default_delete@VTreeNode@BT@@@std@@@std@@QEAA@$$QEAV?$unique_ptr@VSetBlackboard@BT@@U?$default_delete@VSetBlackboard@BT@@@std@@@1@@Z
	??$?0VSimpleActionNode@BT@@$0A@@?$default_delete@VTreeNode@BT@@@std@@QEAA@AEBU?$default_delete@VSimpleActionNode@BT@@@1@@Z
	??$?0VSimpleActionNode@BT@@U?$default_delete@VSimpleActionNode@BT@@@std@@$0A@@?$unique_ptr@VTreeNode@BT@@U?$default_delete@VTreeNode@BT@@@std@@@std@@QEAA@$$QEAV?$unique_ptr@VSimpleActionNode@BT@@U?$default_delete@VSimpleActionNode@BT@@@std@@@1@@Z
	??$?0VSimpleConditionNode@BT@@$0A@@?$default_delete@VTreeNode@BT@@@std@@QEAA@AEBU?$default_delete@VSimpleConditionNode@BT@@@1@@Z
	??$?0VSimpleConditionNode@BT@@U?$default_delete@VSimpleConditionNode@BT@@@std@@$0A@@?$unique_ptr@VTreeNode@BT@@U?$default_delete@VTreeNode@BT@@@std@@@std@@QEAA@$$QEAV?$unique_ptr@VSimpleConditionNode@BT@@U?$default_delete@VSimpleConditionNode@BT@@@std@@@1@@Z
	??$?0VSimpleDecoratorNode@BT@@$0A@@?$default_delete@VTreeNode@BT@@@std@@QEAA@AEBU?$default_delete@VSimpleDecoratorNode@BT@@@1@@Z
	??$?0VSimpleDecoratorNode@BT@@U?$default_delete@VSimpleDecoratorNode@BT@@@std@@$0A@@?$unique_ptr@VTreeNode@BT@@U?$default_delete@VTreeNode@BT@@@std@@@std@@QEAA@$$QEAV?$unique_ptr@VSimpleDecoratorNode@BT@@U?$default_delete@VSimpleDecoratorNode@BT@@@std@@@1@@Z
	??$?0VSimpleString@SafeAny@@X@any@linb@@QEAA@$$QEAVSimpleString@SafeAny@@@Z
	??$?0VSubTreeNode@BT@@$0A@@?$default_delete@VTreeNode@BT@@@std@@QEAA@AEBU?$default_delete@VSubTreeNode@BT@@@1@@Z
	??$?0VSubTreeNode@BT@@U?$default_delete@VSubTreeNode@BT@@@std@@$0A@@?$unique_ptr@VTreeNode@BT@@U?$default_delete@VTreeNode@BT@@@std@@@std@@QEAA@$$QEAV?$unique_ptr@VSubTreeNode@BT@@U?$default_delete@VSubTreeNode@BT@@@std@@@1@@Z
	??$?0VTreeNode@BT@@U?$default_delete@VTreeNode@BT@@@std@@$0A@@?$shared_ptr@VTreeNode@BT@@@std@@QEAA@$$QEAV?$unique_ptr@VTreeNode@BT@@U?$default_delete@VTreeNode@BT@@@std@@@1@@Z
	??$?0VWhileDoElseNode@BT@@$0A@@?$default_delete@VTreeNode@BT@@@std@@QEAA@AEBU?$default_delete@VWhileDoElseNode@BT@@@1@@Z
	??$?0VWhileDoElseNode@BT@@U?$default_delete@VWhileDoElseNode@BT@@@std@@$0A@@?$unique_ptr@VTreeNode@BT@@U?$default_delete@VTreeNode@BT@@@std@@@std@@QEAA@$$QEAV?$unique_ptr@VWhileDoElseNode@BT@@U?$default_delete@VWhileDoElseNode@BT@@@std@@@1@@Z
	??$?0VXMLParser@BT@@$0A@@?$shared_ptr@VParser@BT@@@std@@QEAA@$$QEAV?$shared_ptr@VXMLParser@BT@@@1@@Z
	??$?0W4NodeStatus@BT@@$0A@@?$expected@W4NodeStatus@BT@@V?$basic_string@DU?$char_traits@D@std@@V?$allocator@D@2@@std@@@expected_lite@nonstd@@QEAA@$$QEAW4NodeStatus@BT@@@Z
	??$?0W4NodeStatus@BT@@@Any@BT@@QEAA@AEBW4NodeStatus@1@PEAX@Z
	??$?0X@void_value_callback@_detail@lexy@@QEAA@PEAX@Z
	??$?0_J$0A@@?$duration@_JU?$ratio@$00$00@std@@@chrono@std@@QEAA@AEB_J@Z
	??$?0_J$0A@@?$duration@_JU?$ratio@$00$0DLJKMKAA@@std@@@chrono@std@@QEAA@AEB_J@Z
	??$?0_J$0A@@?$duration@_JU?$ratio@$00$0JIJGIA@@std@@@chrono@std@@QEAA@AEB_J@Z
	??$?0_J$0A@@?$duration@_JU?$ratio@$00$0PECEA@@std@@@chrono@std@@QEAA@AEB_J@Z
	??$?0_J$0A@@?$expected@_JV?$basic_string@DU?$char_traits@D@std@@V?$allocator@D@2@@std@@@expected_lite@nonstd@@QEAA@$$QEA_J@Z
	??$?0_J@?$_lazy_init_storage_trivial@_J@_detail@lexy@@QEAA@H$$QEA_J@Z
	??$?0_J@?$lazy_init@_J@_detail@lexy@@AEAA@H$$QEA_J@Z
	??$?0_J@Any@BT@@QEAA@AEB_JPEAX@Z
	??$?0_JU?$ratio@$00$00@std@@$0A@@?$duration@_JU?$ratio@$00$0DLJKMKAA@@std@@@chrono@std@@QEAA@AEBV?$duration@_JU?$ratio@$00$00@std@@@12@@Z
	??$?0_JU?$ratio@$00$0DLJKMKAA@@std@@$0A@@?$duration@NU?$ratio@$00$00@std@@@chrono@std@@QEAA@AEBV?$duration@_JU?$ratio@$00$0DLJKMKAA@@std@@@12@@Z
	??$?0_JU?$ratio@$00$0DLJKMKAA@@std@@$0A@@?$duration@NU?$ratio@$00$0DLJKMKAA@@std@@@chrono@std@@QEAA@AEBV?$duration@_JU?$ratio@$00$0DLJKMKAA@@std@@@12@@Z
	??$?0_JU?$ratio@$00$0DOI@@std@@$0A@@?$duration@_JU?$ratio@$00$0DLJKMKAA@@std@@@chrono@std@@QEAA@AEBV?$duration@_JU?$ratio@$00$0DOI@@std@@@12@@Z
	??$?0_JU?$ratio@$00$0DOI@@std@@$0A@@?$duration@_JU?$ratio@$00$0JIJGIA@@std@@@chrono@std@@QEAA@AEBV?$duration@_JU?$ratio@$00$0DOI@@std@@@12@@Z
	??$?0_JU?$ratio@$00$0JIJGIA@@std@@$0A@@?$duration@_JU?$ratio@$00$0DLJKMKAA@@std@@@chrono@std@@QEAA@AEBV?$duration@_JU?$ratio@$00$0JIJGIA@@std@@@12@@Z
	??$?0_JU?$ratio@$00$0PECEA@@std@@$0A@@?$duration@_JU?$ratio@$00$0DLJKMKAA@@std@@@chrono@std@@QEAA@AEBV?$duration@_JU?$ratio@$00$0PECEA@@std@@@12@@Z
	??$?0_JX@any@linb@@QEAA@$$QEA_J@Z
	??$?0_K$0A@@?$expected@_KV?$basic_string@DU?$char_traits@D@std@@V?$allocator@D@2@@std@@@expected_lite@nonstd@@QEAA@$$QEA_K@Z
	??$?0_K$0A@@?$optional@_K@std@@QEAA@$$QEA_K@Z
	??$?0_K@?$_Optional_construct_base@_K@std@@QEAA@Uin_place_t@1@$$QEA_K@Z
	??$?0_K@?$_Optional_destruct_base@_K$00@std@@QEAA@Uin_place_t@1@$$QEA_K@Z
	??$?0_KX@any@linb@@QEAA@$$QEA_K@Z
	??$?0_N$0A@@?$expected@_NV?$basic_string@DU?$char_traits@D@std@@V?$allocator@D@2@@std@@@expected_lite@nonstd@@QEAA@$$QEA_N@Z
	??$?0_N@Any@BT@@QEAA@AEB_NPEAX@Z
	??$?0_NAEBV?$time_point@Usteady_clock@chrono@std@@V?$duration@_JU?$ratio@$00$0DLJKMKAA@@std@@@23@@chrono@std@@$0A@@?$pair@_NV?$time_point@Usteady_clock@chrono@std@@V?$duration@_JU?$ratio@$00$0DLJKMKAA@@std@@@23@@chrono@std@@@std@@QEAA@$$QEA_NAEBV?$time_point@Usteady_clock@chrono@std@@V?$duration@_JU?$ratio@$00$0DLJKMKAA@@std@@@23@@chrono@1@@Z
	??$?0_NV?$time_point@Usteady_clock@chrono@std@@V?$duration@_JU?$ratio@$00$0DLJKMKAA@@std@@@23@@chrono@std@@$0A@@?$pair@_NV?$time_point@Usteady_clock@chrono@std@@V?$duration@_JU?$ratio@$00$0DLJKMKAA@@std@@@23@@chrono@std@@@std@@QEAA@$$QEA_N$$QEAV?$time_point@Usteady_clock@chrono@std@@V?$duration@_JU?$ratio@$00$0DLJKMKAA@@std@@@23@@chrono@1@@Z
	??$?4$$CBV?$basic_string@DU?$char_traits@D@std@@V?$allocator@D@2@@std@@UTreeNodeManifest@BT@@$0A@@?$pair@V?$basic_string@DU?$char_traits@D@std@@V?$allocator@D@2@@std@@UTreeNodeManifest@BT@@@std@@QEAAAEAU01@AEBU?$pair@$$CBV?$basic_string@DU?$char_traits@D@std@@V?$allocator@D@2@@std@@UTreeNodeManifest@BT@@@1@@Z
	??$?4$$CBV?$basic_string@DU?$char_traits@D@std@@V?$allocator@D@2@@std@@V01@$0A@@?$pair@V?$basic_string@DU?$char_traits@D@std@@V?$allocator@D@2@@std@@V12@@std@@QEAAAEAU01@AEBU?$pair@$$CBV?$basic_string@DU?$char_traits@D@std@@V?$allocator@D@2@@std@@V12@@1@@Z
	??$?4$$CBV?$basic_string@DU?$char_traits@D@std@@V?$allocator@D@2@@std@@VPortInfo@BT@@$0A@@?$pair@V?$basic_string@DU?$char_traits@D@std@@V?$allocator@D@2@@std@@VPortInfo@BT@@@std@@QEAAAEAU01@AEBU?$pair@$$CBV?$basic_string@DU?$char_traits@D@std@@V?$allocator@D@2@@std@@VPortInfo@BT@@@1@@Z
	??$?4NX@any@linb@@QEAAAEAV01@$$QEAN@Z
	??$?4U?$pair@V?$basic_string@DU?$char_traits@D@std@@V?$allocator@D@2@@std@@VPortInfo@BT@@@std@@$0A@@?$pair@V?$basic_string@DU?$char_traits@D@std@@V?$allocator@D@2@@std@@VPortInfo@BT@@@std@@QEAAAEAU01@$$QEAU01@@Z
	??$?4VTreeNode@BT@@U?$default_delete@VTreeNode@BT@@@std@@@?$shared_ptr@VTreeNode@BT@@@std@@QEAAAEAV01@$$QEAV?$unique_ptr@VTreeNode@BT@@U?$default_delete@VTreeNode@BT@@@std@@@1@@Z
	??$?4VXMLParser@BT@@@?$shared_ptr@VParser@BT@@@std@@QEAAAEAV01@$$QEAV?$shared_ptr@VXMLParser@BT@@@1@@Z
	??$?4_JX@any@linb@@QEAAAEAV01@$$QEA_J@Z
	??$?4_KX@any@linb@@QEAAAEAV01@$$QEA_K@Z
	??$?6DU?$char_traits@D@std@@V?$allocator@D@1@@std@@YAAEAV?$basic_ostream@DU?$char_traits@D@std@@@0@AEAV10@AEBV?$basic_string@DU?$char_traits@D@std@@V?$allocator@D@2@@0@@Z
	??$?6U?$char_traits@D@std@@@std@@YAAEAV?$basic_ostream@DU?$char_traits@D@std@@@0@AEAV10@PEBD@Z
	??$?8DU?$char_traits@D@std@@$01@std@@YA_NV?$basic_string_view@DU?$char_traits@D@std@@@0@0@Z
	??$?8DU?$char_traits@D@std@@V?$allocator@D@1@@std@@YA_NAEBV?$basic_string@DU?$char_traits@D@std@@V?$allocator@D@2@@0@0@Z
	??$?8U_Task_impl_base@details@Concurrency@@@std@@YA_NAEBV?$shared_ptr@U_Task_impl_base@details@Concurrency@@@0@$$T@Z
	??$?CU?$_Task_impl@E@details@Concurrency@@$0A@@?$shared_ptr@U?$_Task_impl@E@details@Concurrency@@@std@@QEBAPEAU?$_Task_impl@E@details@Concurrency@@XZ
	??$?CUExprBase@Ast@BT@@$0A@@?$shared_ptr@UExprBase@Ast@BT@@@std@@QEBAPEAUExprBase@Ast@BT@@XZ
	??$?CUSubtree@Tree@BT@@$0A@@?$shared_ptr@USubtree@Tree@BT@@@std@@QEBAPEAUSubtree@Tree@BT@@XZ
	??$?CU_ExceptionHolder@details@Concurrency@@$0A@@?$shared_ptr@U_ExceptionHolder@details@Concurrency@@@std@@QEBAPEAU_ExceptionHolder@details@Concurrency@@XZ
	??$?CU_Task_impl_base@details@Concurrency@@$0A@@?$shared_ptr@U_Task_impl_base@details@Concurrency@@@std@@QEBAPEAU_Task_impl_base@details@Concurrency@@XZ
	??$?CUscheduler_interface@Concurrency@@$0A@@?$shared_ptr@Uscheduler_interface@Concurrency@@@std@@QEBAPEAUscheduler_interface@Concurrency@@XZ
	??$?CV?$unordered_map@V?$basic_string@DU?$char_traits@D@std@@V?$allocator@D@2@@std@@HU?$hash@V?$basic_string@DU?$char_traits@D@std@@V?$allocator@D@2@@std@@@2@U?$equal_to@V?$basic_string@DU?$char_traits@D@std@@V?$allocator@D@2@@std@@@2@V?$allocator@U?$pair@$$CBV?$basic_string@DU?$char_traits@D@std@@V?$allocator@D@2@@std@@H@std@@@2@@std@@$0A@@?$shared_ptr@V?$unordered_map@V?$basic_string@DU?$char_traits@D@std@@V?$allocator@D@2@@std@@HU?$hash@V?$basic_string@DU?$char_traits@D@std@@V?$allocator@D@2@@std@@@2@U?$equal_to@V?$basic_string@DU?$char_traits@D@std@@V?$allocator@D@2@@std@@@2@V?$allocator@U?$pair@$$CBV?$basic_string@DU?$char_traits@D@std@@V?$allocator@D@2@@std@@H@std@@@2@@std@@@std@@QEBAPEAV?$unordered_map@V?$basic_string@DU?$char_traits@D@std@@V?$allocator@D@2@@std@@HU?$hash@V?$basic_string@DU?$char_traits@D@std@@V?$allocator@D@2@@std@@@2@U?$equal_to@V?$basic_string@DU?$char_traits@D@std@@V?$allocator@D@2@@std@@@2@V?$allocator@U?$pair@$$CBV?$basic_string@DU?$char_traits@D@std@@V?$allocator@D@2@@std@@H@std@@@2@@1@XZ
	??$?CVBlackboard@BT@@$0A@@?$shared_ptr@VBlackboard@BT@@@std@@QEBAPEAVBlackboard@BT@@XZ
	??$?CVParser@BT@@$0A@@?$shared_ptr@VParser@BT@@@std@@QEBAPEAVParser@BT@@XZ
	??$?CVTreeNode@BT@@$0A@@?$shared_ptr@VTreeNode@BT@@@std@@QEBAPEAVTreeNode@BT@@XZ
	??$?CVWakeUpSignal@BT@@$0A@@?$shared_ptr@VWakeUpSignal@BT@@@std@@QEBAPEAVWakeUpSignal@BT@@XZ
	??$?DV?$function@$$A6AXV?$time_point@Usteady_clock@chrono@std@@V?$duration@_JU?$ratio@$00$0DLJKMKAA@@std@@@23@@chrono@std@@AEBVTreeNode@BT@@W4NodeStatus@5@2@Z@std@@$0A@@?$shared_ptr@V?$function@$$A6AXV?$time_point@Usteady_clock@chrono@std@@V?$duration@_JU?$ratio@$00$0DLJKMKAA@@std@@@23@@chrono@std@@AEBVTreeNode@BT@@W4NodeStatus@5@2@Z@std@@@std@@QEBAAEAV?$function@$$A6AXV?$time_point@Usteady_clock@chrono@std@@V?$duration@_JU?$ratio@$00$0DLJKMKAA@@std@@@23@@chrono@std@@AEBVTreeNode@BT@@W4NodeStatus@5@2@Z@1@XZ
	??$?DV?$unordered_map@V?$basic_string@DU?$char_traits@D@std@@V?$allocator@D@2@@std@@HU?$hash@V?$basic_string@DU?$char_traits@D@std@@V?$allocator@D@2@@std@@@2@U?$equal_to@V?$basic_string@DU?$char_traits@D@std@@V?$allocator@D@2@@std@@@2@V?$allocator@U?$pair@$$CBV?$basic_string@DU?$char_traits@D@std@@V?$allocator@D@2@@std@@H@std@@@2@@std@@$0A@@?$shared_ptr@V?$unordered_map@V?$basic_string@DU?$char_traits@D@std@@V?$allocator@D@2@@std@@HU?$hash@V?$basic_string@DU?$char_traits@D@std@@V?$allocator@D@2@@std@@@2@U?$equal_to@V?$basic_string@DU?$char_traits@D@std@@V?$allocator@D@2@@std@@@2@V?$allocator@U?$pair@$$CBV?$basic_string@DU?$char_traits@D@std@@V?$allocator@D@2@@std@@H@std@@@2@@std@@@std@@QEBAAEAV?$unordered_map@V?$basic_string@DU?$char_traits@D@std@@V?$allocator@D@2@@std@@HU?$hash@V?$basic_string@DU?$char_traits@D@std@@V?$allocator@D@2@@std@@@2@U?$equal_to@V?$basic_string@DU?$char_traits@D@std@@V?$allocator@D@2@@std@@@2@V?$allocator@U?$pair@$$CBV?$basic_string@DU?$char_traits@D@std@@V?$allocator@D@2@@std@@H@std@@@2@@1@XZ
	??$?GUsteady_clock@chrono@std@@V?$duration@_JU?$ratio@$00$0DLJKMKAA@@std@@@12@V312@@chrono@std@@YA?AV?$duration@_JU?$ratio@$00$0DLJKMKAA@@std@@@01@AEBV?$time_point@Usteady_clock@chrono@std@@V?$duration@_JU?$ratio@$00$0DLJKMKAA@@std@@@23@@01@0@Z
	??$?GUsteady_clock@chrono@std@@V?$duration@_JU?$ratio@$00$0DLJKMKAA@@std@@@12@_JU?$ratio@$00$0JIJGIA@@2@@chrono@std@@YA?AV?$time_point@Usteady_clock@chrono@std@@V?$duration@_JU?$ratio@$00$0DLJKMKAA@@std@@@23@@01@AEBV201@AEBV?$duration@_JU?$ratio@$00$0JIJGIA@@std@@@01@@Z
	??$?GUsteady_clock@chrono@std@@V?$duration@_JU?$ratio@$00$0DLJKMKAA@@std@@@12@_JU?$ratio@$00$0PECEA@@2@@chrono@std@@YA?AV?$time_point@Usteady_clock@chrono@std@@V?$duration@_JU?$ratio@$00$0DLJKMKAA@@std@@@23@@01@AEBV201@AEBV?$duration@_JU?$ratio@$00$0PECEA@@std@@@01@@Z
	??$?G_JU?$ratio@$00$0DLJKMKAA@@std@@_JU01@@chrono@std@@YA?AV?$duration@_JU?$ratio@$00$0DLJKMKAA@@std@@@01@AEBV201@0@Z
	??$?G_JU?$ratio@$00$0DLJKMKAA@@std@@_JU?$ratio@$00$0JIJGIA@@1@@chrono@std@@YA?AV?$duration@_JU?$ratio@$00$0DLJKMKAA@@std@@@01@AEBV201@AEBV?$duration@_JU?$ratio@$00$0JIJGIA@@std@@@01@@Z
	??$?G_JU?$ratio@$00$0DLJKMKAA@@std@@_JU?$ratio@$00$0PECEA@@1@@chrono@std@@YA?AV?$duration@_JU?$ratio@$00$0DLJKMKAA@@std@@@01@AEBV201@AEBV?$duration@_JU?$ratio@$00$0PECEA@@std@@@01@@Z
	??$?HDU?$char_traits@D@std@@V?$allocator@D@1@@std@@YA?AV?$basic_string@DU?$char_traits@D@std@@V?$allocator@D@2@@0@$$QEAV10@0@Z
	??$?HDU?$char_traits@D@std@@V?$allocator@D@1@@std@@YA?AV?$basic_string@DU?$char_traits@D@std@@V?$allocator@D@2@@0@$$QEAV10@AEBV10@@Z
	??$?HDU?$char_traits@D@std@@V?$allocator@D@1@@std@@YA?AV?$basic_string@DU?$char_traits@D@std@@V?$allocator@D@2@@0@$$QEAV10@QEBD@Z
	??$?HDU?$char_traits@D@std@@V?$allocator@D@1@@std@@YA?AV?$basic_string@DU?$char_traits@D@std@@V?$allocator@D@2@@0@AEBV10@0@Z
	??$?HDU?$char_traits@D@std@@V?$allocator@D@1@@std@@YA?AV?$basic_string@DU?$char_traits@D@std@@V?$allocator@D@2@@0@QEBD$$QEAV10@@Z
	??$?HDU?$char_traits@D@std@@V?$allocator@D@1@@std@@YA?AV?$basic_string@DU?$char_traits@D@std@@V?$allocator@D@2@@0@QEBDAEBV10@@Z
	??$?HUsteady_clock@chrono@std@@V?$duration@_JU?$ratio@$00$0DLJKMKAA@@std@@@12@_JU?$ratio@$00$0DOI@@2@@chrono@std@@YA?AV?$time_point@Usteady_clock@chrono@std@@V?$duration@_JU?$ratio@$00$0DLJKMKAA@@std@@@23@@01@AEBV201@AEBV?$duration@_JU?$ratio@$00$0DOI@@std@@@01@@Z
	??$?H_JU?$ratio@$00$0DLJKMKAA@@std@@_JU?$ratio@$00$0DOI@@1@@chrono@std@@YA?AV?$duration@_JU?$ratio@$00$0DLJKMKAA@@std@@@01@AEBV201@AEBV?$duration@_JU?$ratio@$00$0DOI@@std@@@01@@Z
	??$?K_JU?$ratio@$00$0PECEA@@std@@I@chrono@std@@YA?AV?$duration@_JU?$ratio@$00$0PECEA@@std@@@01@AEBV201@AEBI@Z
	??$?R$$V@?$production_value_callback@UFalse@BooleanLiteral@Grammar@BT@@X@lexy@@QEBAHXZ
	??$?R$$V@?$production_value_callback@UTrue@BooleanLiteral@Grammar@BT@@X@lexy@@QEBAHXZ
	??$?R$$V@void_value_callback@_detail@lexy@@QEBAXXZ
	??$?RAEA_J@?$_construct@_J@lexy@@QEBA_JAEA_J@Z
	??$?RAEA_J@?$production_value_callback@UInteger@Grammar@BT@@X@lexy@@QEBA_JAEA_J@Z
	??$?RAEA_J@?$production_value_callback@Uinteger@Integer@Grammar@BT@@X@lexy@@QEBA_JAEA_J@Z
	??$?RH@?$_construct@VAny@BT@@@lexy@@QEBA?AVAny@BT@@$$QEAH@Z
	??$?RH@?$production_value_callback@UBooleanLiteral@Grammar@BT@@X@lexy@@QEBA?AVAny@BT@@$$QEAH@Z
	??$?RNN@<lambda_1>@?1??evaluate@ExprComparison@Ast@BT@@UEBA?AVAny@4@AEAUEnvironment@34@@Z@QEBA?A_PAEBN1W4op_t@234@@Z
	??$?RU?$_opv@W4op_t@ExprUnaryArithmetic@Ast@BT@@$00@lexy@@V?$shared_ptr@UExprBase@Ast@BT@@@std@@@?$_new@UExprUnaryArithmetic@Ast@BT@@V?$shared_ptr@UExprBase@Ast@BT@@@std@@@lexy@@QEBA?AV?$shared_ptr@UExprBase@Ast@BT@@@std@@$$QEAU?$_opv@W4op_t@ExprUnaryArithmetic@Ast@BT@@$00@1@$$QEAV23@@Z
	??$?RU?$_opv@W4op_t@ExprUnaryArithmetic@Ast@BT@@$00@lexy@@V?$shared_ptr@UExprBase@Ast@BT@@@std@@@?$production_value_callback@UExpression@Grammar@BT@@X@lexy@@QEBA?AV?$shared_ptr@UExprBase@Ast@BT@@@std@@$$QEAU?$_opv@W4op_t@ExprUnaryArithmetic@Ast@BT@@$00@1@$$QEAV23@@Z
	??$?RU?$_opv@W4op_t@ExprUnaryArithmetic@Ast@BT@@$01@lexy@@V?$shared_ptr@UExprBase@Ast@BT@@@std@@@?$_new@UExprUnaryArithmetic@Ast@BT@@V?$shared_ptr@UExprBase@Ast@BT@@@std@@@lexy@@QEBA?AV?$shared_ptr@UExprBase@Ast@BT@@@std@@$$QEAU?$_opv@W4op_t@ExprUnaryArithmetic@Ast@BT@@$01@1@$$QEAV23@@Z
	??$?RU?$_opv@W4op_t@ExprUnaryArithmetic@Ast@BT@@$01@lexy@@V?$shared_ptr@UExprBase@Ast@BT@@@std@@@?$production_value_callback@UExpression@Grammar@BT@@X@lexy@@QEBA?AV?$shared_ptr@UExprBase@Ast@BT@@@std@@$$QEAU?$_opv@W4op_t@ExprUnaryArithmetic@Ast@BT@@$01@1@$$QEAV23@@Z
	??$?RU?$_opv@W4op_t@ExprUnaryArithmetic@Ast@BT@@$0A@@lexy@@V?$shared_ptr@UExprBase@Ast@BT@@@std@@@?$_new@UExprUnaryArithmetic@Ast@BT@@V?$shared_ptr@UExprBase@Ast@BT@@@std@@@lexy@@QEBA?AV?$shared_ptr@UExprBase@Ast@BT@@@std@@$$QEAU?$_opv@W4op_t@ExprUnaryArithmetic@Ast@BT@@$0A@@1@$$QEAV23@@Z
	??$?RU?$_opv@W4op_t@ExprUnaryArithmetic@Ast@BT@@$0A@@lexy@@V?$shared_ptr@UExprBase@Ast@BT@@@std@@@?$production_value_callback@UExpression@Grammar@BT@@X@lexy@@QEBA?AV?$shared_ptr@UExprBase@Ast@BT@@@std@@$$QEAU?$_opv@W4op_t@ExprUnaryArithmetic@Ast@BT@@$0A@@1@$$QEAV23@@Z
	??$?RU?$bp@U_pr8@lexy@@@?$_op@Uminus_sign@lexy@@U?$_lit@D$0CN@@lexyd@@$$V@lexyd@@@<lambda_1>@?1???$try_parse@U?$parse_context_control_block@V?$_ph@U_pr8@lexy@@@lexy@@X@_detail@lexy@@@?$bp@U_pr8@lexy@@U?$integer_sequence@_K$0A@$00@_detail@2@@?$_chc@U_plus@lexyd@@U_minus@2@@lexyd@@QEAA_NPEBU?$parse_context_control_block@V?$_ph@U_pr8@lexy@@@lexy@@X@_detail@lexy@@AEBU_pr8@6@@Z@QEBA?A_P_KAEAU?$bp@U_pr8@lexy@@@?$_op@Uminus_sign@lexy@@U?$_lit@D$0CN@@lexyd@@$$V@3@@Z
	??$?RU?$bp@U_pr8@lexy@@@?$_op@Uminus_sign@lexy@@U?$_lit@D$0CN@@lexyd@@$$V@lexyd@@@<lambda_1>@?1???$try_parse@U?$parse_context_control_block@V_mh@lexy@@X@_detail@lexy@@@?$bp@U_pr8@lexy@@U?$integer_sequence@_K$0A@$00@_detail@2@@?$_chc@U_plus@lexyd@@U_minus@2@@lexyd@@QEAA_NPEBU?$parse_context_control_block@V_mh@lexy@@X@_detail@lexy@@AEBU_pr8@6@@Z@QEBA?A_P_KAEAU?$bp@U_pr8@lexy@@@?$_op@Uminus_sign@lexy@@U?$_lit@D$0CN@@lexyd@@$$V@3@@Z
	??$?RU?$bp@U_pr8@lexy@@@?$_op@Uplus_sign@lexy@@U?$_lit@D$0CL@@lexyd@@$$V@lexyd@@@<lambda_1>@?1???$try_parse@U?$parse_context_control_block@V?$_ph@U_pr8@lexy@@@lexy@@X@_detail@lexy@@@?$bp@U_pr8@lexy@@U?$integer_sequence@_K$0A@$00@_detail@2@@?$_chc@U_plus@lexyd@@U_minus@2@@lexyd@@QEAA_NPEBU?$parse_context_control_block@V?$_ph@U_pr8@lexy@@@lexy@@X@_detail@lexy@@AEBU_pr8@6@@Z@QEBA?A_P_KAEAU?$bp@U_pr8@lexy@@@?$_op@Uplus_sign@lexy@@U?$_lit@D$0CL@@lexyd@@$$V@3@@Z
	??$?RU?$bp@U_pr8@lexy@@@?$_op@Uplus_sign@lexy@@U?$_lit@D$0CL@@lexyd@@$$V@lexyd@@@<lambda_1>@?1???$try_parse@U?$parse_context_control_block@V_mh@lexy@@X@_detail@lexy@@@?$bp@U_pr8@lexy@@U?$integer_sequence@_K$0A@$00@_detail@2@@?$_chc@U_plus@lexyd@@U_minus@2@@lexyd@@QEAA_NPEBU?$parse_context_control_block@V_mh@lexy@@X@_detail@lexy@@AEBU_pr8@6@@Z@QEBA?A_P_KAEAU?$bp@U_pr8@lexy@@@?$_op@Uplus_sign@lexy@@U?$_lit@D$0CL@@lexyd@@$$V@3@@Z
	??$?RU?$bp@U_pr8@lexy@@@?$_prd@UAnyValue@Grammar@BT@@@lexyd@@@<lambda_1>@?1???$parse@U?$_pc@V?$_ph@U_pr8@lexy@@@lexy@@XUExpression@Grammar@BT@@Unested_expr@45@@lexy@@U_pr8@2@$$V@?$p@Ufinal_parser@_detail@lexy@@@?$_chc@U?$_br@U?$_lit@D$0CI@@lexyd@@U?$_prd@Unested_expr@Grammar@BT@@@2@U?$_lit@D$0CJ@@2@@lexyd@@U?$_prd@UBooleanLiteral@Grammar@BT@@@2@U?$_prd@UName@Grammar@BT@@@2@U?$_prd@UAnyValue@Grammar@BT@@@2@U?$_err@Uexpected_operand@Expression@Grammar@BT@@X@2@@lexyd@@SA_NAEAU?$_pc@V?$_ph@U_pr8@lexy@@@lexy@@XUExpression@Grammar@BT@@Unested_expr@45@@lexy@@AEAU_pr8@5@@Z@QEBA?A_P$$QEAU?$bp@U_pr8@lexy@@@?$_prd@UAnyValue@Grammar@BT@@@3@@Z
	??$?RU?$bp@U_pr8@lexy@@@?$_prd@UAnyValue@Grammar@BT@@@lexyd@@@<lambda_1>@?1???$parse@U?$_pc@V?$_ph@U_pr8@lexy@@@lexy@@XUExpression@Grammar@BT@@Ustmt@45@@lexy@@U_pr8@2@$$V@?$p@Ufinal_parser@_detail@lexy@@@?$_chc@U?$_br@U?$_lit@D$0CI@@lexyd@@U?$_prd@Unested_expr@Grammar@BT@@@2@U?$_lit@D$0CJ@@2@@lexyd@@U?$_prd@UBooleanLiteral@Grammar@BT@@@2@U?$_prd@UName@Grammar@BT@@@2@U?$_prd@UAnyValue@Grammar@BT@@@2@U?$_err@Uexpected_operand@Expression@Grammar@BT@@X@2@@lexyd@@SA_NAEAU?$_pc@V?$_ph@U_pr8@lexy@@@lexy@@XUExpression@Grammar@BT@@Ustmt@45@@lexy@@AEAU_pr8@5@@Z@QEBA?A_P$$QEAU?$bp@U_pr8@lexy@@@?$_prd@UAnyValue@Grammar@BT@@@3@@Z
	??$?RU?$bp@U_pr8@lexy@@@?$_prd@UBooleanLiteral@Grammar@BT@@@lexyd@@@<lambda_1>@?1???$parse@U?$_pc@V?$_ph@U_pr8@lexy@@@lexy@@XUExpression@Grammar@BT@@Unested_expr@45@@lexy@@U_pr8@2@$$V@?$p@Ufinal_parser@_detail@lexy@@@?$_chc@U?$_br@U?$_lit@D$0CI@@lexyd@@U?$_prd@Unested_expr@Grammar@BT@@@2@U?$_lit@D$0CJ@@2@@lexyd@@U?$_prd@UBooleanLiteral@Grammar@BT@@@2@U?$_prd@UName@Grammar@BT@@@2@U?$_prd@UAnyValue@Grammar@BT@@@2@U?$_err@Uexpected_operand@Expression@Grammar@BT@@X@2@@lexyd@@SA_NAEAU?$_pc@V?$_ph@U_pr8@lexy@@@lexy@@XUExpression@Grammar@BT@@Unested_expr@45@@lexy@@AEAU_pr8@5@@Z@QEBA?A_P$$QEAU?$bp@U_pr8@lexy@@@?$_prd@UBooleanLiteral@Grammar@BT@@@3@@Z
	??$?RU?$bp@U_pr8@lexy@@@?$_prd@UBooleanLiteral@Grammar@BT@@@lexyd@@@<lambda_1>@?1???$parse@U?$_pc@V?$_ph@U_pr8@lexy@@@lexy@@XUExpression@Grammar@BT@@Ustmt@45@@lexy@@U_pr8@2@$$V@?$p@Ufinal_parser@_detail@lexy@@@?$_chc@U?$_br@U?$_lit@D$0CI@@lexyd@@U?$_prd@Unested_expr@Grammar@BT@@@2@U?$_lit@D$0CJ@@2@@lexyd@@U?$_prd@UBooleanLiteral@Grammar@BT@@@2@U?$_prd@UName@Grammar@BT@@@2@U?$_prd@UAnyValue@Grammar@BT@@@2@U?$_err@Uexpected_operand@Expression@Grammar@BT@@X@2@@lexyd@@SA_NAEAU?$_pc@V?$_ph@U_pr8@lexy@@@lexy@@XUExpression@Grammar@BT@@Ustmt@45@@lexy@@AEAU_pr8@5@@Z@QEBA?A_P$$QEAU?$bp@U_pr8@lexy@@@?$_prd@UBooleanLiteral@Grammar@BT@@@3@@Z
	??$?RU?$bp@U_pr8@lexy@@@?$_prd@UBooleanLiteral@Grammar@BT@@@lexyd@@@<lambda_1>@?1???$try_parse@U?$parse_context_control_block@V?$_ph@U_pr8@lexy@@@lexy@@X@_detail@lexy@@@?$bp@U_pr8@lexy@@U?$integer_sequence@_K$0A@$00$01$02@_detail@2@@?$_chc@U?$_prd@UBooleanLiteral@Grammar@BT@@@lexyd@@U?$_prd@UStringLiteral@Grammar@BT@@@2@U?$_prd@UReal@Grammar@BT@@@2@U?$_prd@UInteger@Grammar@BT@@@2@@lexyd@@QEAA_NPEBU?$parse_context_control_block@V?$_ph@U_pr8@lexy@@@lexy@@X@_detail@lexy@@AEBU_pr8@6@@Z@QEBA?A_P_KAEAU?$bp@U_pr8@lexy@@@?$_prd@UBooleanLiteral@Grammar@BT@@@3@@Z
	??$?RU?$bp@U_pr8@lexy@@@?$_prd@UFalse@BooleanLiteral@Grammar@BT@@@lexyd@@@<lambda_1>@?1???$try_parse@U?$parse_context_control_block@V?$_ph@U_pr8@lexy@@@lexy@@X@_detail@lexy@@@?$bp@U_pr8@lexy@@U?$integer_sequence@_K$0A@$00@_detail@2@@?$_chc@U?$_prd@UTrue@BooleanLiteral@Grammar@BT@@@lexyd@@U?$_prd@UFalse@BooleanLiteral@Grammar@BT@@@2@@lexyd@@QEAA_NPEBU?$parse_context_control_block@V?$_ph@U_pr8@lexy@@@lexy@@X@_detail@lexy@@AEBU_pr8@6@@Z@QEBA?A_P_KAEAU?$bp@U_pr8@lexy@@@?$_prd@UFalse@BooleanLiteral@Grammar@BT@@@3@@Z
	??$?RU?$bp@U_pr8@lexy@@@?$_prd@UInteger@Grammar@BT@@@lexyd@@@<lambda_1>@?1???$try_parse@U?$parse_context_control_block@V?$_ph@U_pr8@lexy@@@lexy@@X@_detail@lexy@@@?$bp@U_pr8@lexy@@U?$integer_sequence@_K$0A@$00$01$02@_detail@2@@?$_chc@U?$_prd@UBooleanLiteral@Grammar@BT@@@lexyd@@U?$_prd@UStringLiteral@Grammar@BT@@@2@U?$_prd@UReal@Grammar@BT@@@2@U?$_prd@UInteger@Grammar@BT@@@2@@lexyd@@QEAA_NPEBU?$parse_context_control_block@V?$_ph@U_pr8@lexy@@@lexy@@X@_detail@lexy@@AEBU_pr8@6@@Z@QEBA?A_P_KAEAU?$bp@U_pr8@lexy@@@?$_prd@UInteger@Grammar@BT@@@3@@Z
	??$?RU?$bp@U_pr8@lexy@@@?$_prd@UName@Grammar@BT@@@lexyd@@@<lambda_1>@?1???$parse@U?$_pc@V?$_ph@U_pr8@lexy@@@lexy@@XUExpression@Grammar@BT@@Unested_expr@45@@lexy@@U_pr8@2@$$V@?$p@Ufinal_parser@_detail@lexy@@@?$_chc@U?$_br@U?$_lit@D$0CI@@lexyd@@U?$_prd@Unested_expr@Grammar@BT@@@2@U?$_lit@D$0CJ@@2@@lexyd@@U?$_prd@UBooleanLiteral@Grammar@BT@@@2@U?$_prd@UName@Grammar@BT@@@2@U?$_prd@UAnyValue@Grammar@BT@@@2@U?$_err@Uexpected_operand@Expression@Grammar@BT@@X@2@@lexyd@@SA_NAEAU?$_pc@V?$_ph@U_pr8@lexy@@@lexy@@XUExpression@Grammar@BT@@Unested_expr@45@@lexy@@AEAU_pr8@5@@Z@QEBA?A_P$$QEAU?$bp@U_pr8@lexy@@@?$_prd@UName@Grammar@BT@@@3@@Z
	??$?RU?$bp@U_pr8@lexy@@@?$_prd@UName@Grammar@BT@@@lexyd@@@<lambda_1>@?1???$parse@U?$_pc@V?$_ph@U_pr8@lexy@@@lexy@@XUExpression@Grammar@BT@@Ustmt@45@@lexy@@U_pr8@2@$$V@?$p@Ufinal_parser@_detail@lexy@@@?$_chc@U?$_br@U?$_lit@D$0CI@@lexyd@@U?$_prd@Unested_expr@Grammar@BT@@@2@U?$_lit@D$0CJ@@2@@lexyd@@U?$_prd@UBooleanLiteral@Grammar@BT@@@2@U?$_prd@UName@Grammar@BT@@@2@U?$_prd@UAnyValue@Grammar@BT@@@2@U?$_err@Uexpected_operand@Expression@Grammar@BT@@X@2@@lexyd@@SA_NAEAU?$_pc@V?$_ph@U_pr8@lexy@@@lexy@@XUExpression@Grammar@BT@@Ustmt@45@@lexy@@AEAU_pr8@5@@Z@QEBA?A_P$$QEAU?$bp@U_pr8@lexy@@@?$_prd@UName@Grammar@BT@@@3@@Z
	??$?RU?$bp@U_pr8@lexy@@@?$_prd@UReal@Grammar@BT@@@lexyd@@@<lambda_1>@?1???$try_parse@U?$parse_context_control_block@V?$_ph@U_pr8@lexy@@@lexy@@X@_detail@lexy@@@?$bp@U_pr8@lexy@@U?$integer_sequence@_K$0A@$00$01$02@_detail@2@@?$_chc@U?$_prd@UBooleanLiteral@Grammar@BT@@@lexyd@@U?$_prd@UStringLiteral@Grammar@BT@@@2@U?$_prd@UReal@Grammar@BT@@@2@U?$_prd@UInteger@Grammar@BT@@@2@@lexyd@@QEAA_NPEBU?$parse_context_control_block@V?$_ph@U_pr8@lexy@@@lexy@@X@_detail@lexy@@AEBU_pr8@6@@Z@QEBA?A_P_KAEAU?$bp@U_pr8@lexy@@@?$_prd@UReal@Grammar@BT@@@3@@Z
	??$?RU?$bp@U_pr8@lexy@@@?$_prd@UStringLiteral@Grammar@BT@@@lexyd@@@<lambda_1>@?1???$try_parse@U?$parse_context_control_block@V?$_ph@U_pr8@lexy@@@lexy@@X@_detail@lexy@@@?$bp@U_pr8@lexy@@U?$integer_sequence@_K$0A@$00$01$02@_detail@2@@?$_chc@U?$_prd@UBooleanLiteral@Grammar@BT@@@lexyd@@U?$_prd@UStringLiteral@Grammar@BT@@@2@U?$_prd@UReal@Grammar@BT@@@2@U?$_prd@UInteger@Grammar@BT@@@2@@lexyd@@QEAA_NPEBU?$parse_context_control_block@V?$_ph@U_pr8@lexy@@@lexy@@X@_detail@lexy@@AEBU_pr8@6@@Z@QEBA?A_P_KAEAU?$bp@U_pr8@lexy@@@?$_prd@UStringLiteral@Grammar@BT@@@3@@Z
	??$?RU?$bp@U_pr8@lexy@@@?$_prd@UTrue@BooleanLiteral@Grammar@BT@@@lexyd@@@<lambda_1>@?1???$try_parse@U?$parse_context_control_block@V?$_ph@U_pr8@lexy@@@lexy@@X@_detail@lexy@@@?$bp@U_pr8@lexy@@U?$integer_sequence@_K$0A@$00@_detail@2@@?$_chc@U?$_prd@UTrue@BooleanLiteral@Grammar@BT@@@lexyd@@U?$_prd@UFalse@BooleanLiteral@Grammar@BT@@@2@@lexyd@@QEAA_NPEBU?$parse_context_control_block@V?$_ph@U_pr8@lexy@@@lexy@@X@_detail@lexy@@AEBU_pr8@6@@Z@QEBA?A_P_KAEAU?$bp@U_pr8@lexy@@@?$_prd@UTrue@BooleanLiteral@Grammar@BT@@@3@@Z
	??$?RU?$bp@U_pr8@lexy@@@?$_wsn@U?$_br@U?$_lit@D$0CC@@lexyd@@U?$_del@U?$_lit@D$0CC@@lexyd@@U_char@ascii@2@X$$V@2@@lexyd@@@lexyd@@@<lambda_1>@?1???$try_parse@U?$parse_context_control_block@V?$_ph@U_pr8@lexy@@@lexy@@X@_detail@lexy@@@?$bp@U_pr8@lexy@@U?$integer_sequence@_K$0A@$00@_detail@2@@?$_chc@U?$_wsn@U?$_br@U?$_lit@D$0CH@@lexyd@@U?$_del@U?$_lit@D$0CH@@lexyd@@U_char@ascii@2@X$$V@2@@lexyd@@@lexyd@@U?$_wsn@U?$_br@U?$_lit@D$0CC@@lexyd@@U?$_del@U?$_lit@D$0CC@@lexyd@@U_char@ascii@2@X$$V@2@@lexyd@@@2@@lexyd@@QEAA_NPEBU?$parse_context_control_block@V?$_ph@U_pr8@lexy@@@lexy@@X@_detail@lexy@@AEBU_pr8@6@@Z@QEBA?A_P_KAEAU?$bp@U_pr8@lexy@@@?$_wsn@U?$_br@U?$_lit@D$0CC@@lexyd@@U?$_del@U?$_lit@D$0CC@@lexyd@@U_char@ascii@2@X$$V@2@@lexyd@@@3@@Z
	??$?RU?$bp@U_pr8@lexy@@@?$_wsn@U?$_br@U?$_lit@D$0CH@@lexyd@@U?$_del@U?$_lit@D$0CH@@lexyd@@U_char@ascii@2@X$$V@2@@lexyd@@@lexyd@@@<lambda_1>@?1???$try_parse@U?$parse_context_control_block@V?$_ph@U_pr8@lexy@@@lexy@@X@_detail@lexy@@@?$bp@U_pr8@lexy@@U?$integer_sequence@_K$0A@$00@_detail@2@@?$_chc@U?$_wsn@U?$_br@U?$_lit@D$0CH@@lexyd@@U?$_del@U?$_lit@D$0CH@@lexyd@@U_char@ascii@2@X$$V@2@@lexyd@@@lexyd@@U?$_wsn@U?$_br@U?$_lit@D$0CC@@lexyd@@U?$_del@U?$_lit@D$0CC@@lexyd@@U_char@ascii@2@X$$V@2@@lexyd@@@2@@lexyd@@QEAA_NPEBU?$parse_context_control_block@V?$_ph@U_pr8@lexy@@@lexy@@X@_detail@lexy@@AEBU_pr8@6@@Z@QEBA?A_P_KAEAU?$bp@U_pr8@lexy@@@?$_wsn@U?$_br@U?$_lit@D$0CH@@lexyd@@U?$_del@U?$_lit@D$0CH@@lexyd@@U_char@ascii@2@X$$V@2@@lexyd@@@3@@Z
	??$?RU?$bp@U_pr8@lexy@@@?$token_base@U?$_lit@D$0DA@$0FI@@lexyd@@Ubranch_base@2@@lexyd@@@<lambda_1>@?1???$try_parse@U?$parse_context_control_block@V?$_ph@U_pr8@lexy@@@lexy@@X@_detail@lexy@@@?$bp@U_pr8@lexy@@U?$integer_sequence@_K$0A@$00@_detail@2@@?$_chc@U?$_lit@D$0DA@$0HI@@lexyd@@U?$_lit@D$0DA@$0FI@@2@@lexyd@@QEAA_NPEBU?$parse_context_control_block@V?$_ph@U_pr8@lexy@@@lexy@@X@_detail@lexy@@AEBU_pr8@6@@Z@QEBA?A_P_KAEAU?$bp@U_pr8@lexy@@@?$token_base@U?$_lit@D$0DA@$0FI@@lexyd@@Ubranch_base@2@@3@@Z
	??$?RU?$bp@U_pr8@lexy@@@?$token_base@U?$_lit@D$0DA@$0HI@@lexyd@@Ubranch_base@2@@lexyd@@@<lambda_1>@?1???$try_parse@U?$parse_context_control_block@V?$_ph@U_pr8@lexy@@@lexy@@X@_detail@lexy@@@?$bp@U_pr8@lexy@@U?$integer_sequence@_K$0A@$00@_detail@2@@?$_chc@U?$_lit@D$0DA@$0HI@@lexyd@@U?$_lit@D$0DA@$0FI@@2@@lexyd@@QEAA_NPEBU?$parse_context_control_block@V?$_ph@U_pr8@lexy@@@lexy@@X@_detail@lexy@@AEBU_pr8@6@@Z@QEBA?A_P_KAEAU?$bp@U_pr8@lexy@@@?$token_base@U?$_lit@D$0DA@$0HI@@lexyd@@Ubranch_base@2@@3@@Z
	??$?RU?$bp@U_pr8@lexy@@@?$token_base@U_blank@ascii@lexyd@@Ubranch_base@3@@lexyd@@@<lambda_1>@?1???$parse@U?$_pc@V?$ws_handler@V?$_ph@U_pr8@lexy@@@lexy@@@_detail@lexy@@XU?$ws_production@U?$_chc@U_blank@ascii@lexyd@@U?$_br@U_backslash@lexyd@@U_nl@2@@3@@lexyd@@@23@X@lexy@@U_pr8@2@AEAUloop_control_t@?1???$parse@U?$_pc@V?$ws_handler@V?$_ph@U_pr8@lexy@@@lexy@@@_detail@lexy@@XU?$ws_production@U?$_chc@U_blank@ascii@lexyd@@U?$_br@U_backslash@lexyd@@U_nl@2@@3@@lexyd@@@23@X@lexy@@U_pr8@2@$$V@?$p@Ufinal_parser@_detail@lexy@@@?$_loop@U?$_chc@U_blank@ascii@lexyd@@U?$_br@U_backslash@lexyd@@U_nl@2@@3@U_break@3@@lexyd@@@lexyd@@SA_NAEAU12@AEAU32@@Z@@?$p@U?$pattern_parser@Uloop_control_t@?1???$parse@U?$_pc@V?$ws_handler@V?$_ph@U_pr8@lexy@@@lexy@@@_detail@lexy@@XU?$ws_production@U?$_chc@U_blank@ascii@lexyd@@U?$_br@U_backslash@lexyd@@U_nl@2@@3@@lexyd@@@23@X@lexy@@U_pr8@2@$$V@?$p@Ufinal_parser@_detail@lexy@@@?$_loop@U?$_chc@U_blank@ascii@lexyd@@U?$_br@U_backslash@lexyd@@U_nl@2@@3@U_break@3@@lexyd@@@lexyd@@SA_NAEAU?$_pc@V?$ws_handler@V?$_ph@U_pr8@lexy@@@lexy@@@_detail@lexy@@XU?$ws_production@U?$_chc@U_blank@ascii@lexyd@@U?$_br@U_backslash@lexyd@@U_nl@2@@3@@lexyd@@@23@X@lexy@@AEAU_pr8@6@@Z@@lexy@@@?$_chc@U_blank@ascii@lexyd@@U?$_br@U_backslash@lexyd@@U_nl@2@@3@U_break@3@@lexyd@@SA_NAEAU?$_pc@V?$ws_handler@V?$_ph@U_pr8@lexy@@@lexy@@@_detail@lexy@@XU?$ws_production@U?$_chc@U_blank@ascii@lexyd@@U?$_br@U_backslash@lexyd@@U_nl@2@@3@@lexyd@@@23@X@lexy@@AEAU_pr8@5@AEAUloop_control_t@?1???$parse@U?$_pc@V?$ws_handler@V?$_ph@U_pr8@lexy@@@lexy@@@_detail@lexy@@XU?$ws_production@U?$_chc@U_blank@ascii@lexyd@@U?$_br@U_backslash@lexyd@@U_nl@2@@3@@lexyd@@@23@X@lexy@@U_pr8@2@$$V@?$p@Ufinal_parser@_detail@lexy@@@?$_loop@U?$_chc@U_blank@ascii@lexyd@@U?$_br@U_backslash@lexyd@@U_nl@2@@3@U_break@3@@lexyd@@@3@SA_N01@Z@@Z@QEBA?A_P$$QEAU?$bp@U_pr8@lexy@@@?$token_base@U_blank@ascii@lexyd@@Ubranch_base@3@@3@@Z
	??$?RU?$bp@U_pr8@lexy@@@?$token_base@U_space@ascii@lexyd@@Ubranch_base@3@@lexyd@@@<lambda_1>@?1???$parse@U?$_pc@V?$ws_handler@V?$_ph@U_pr8@lexy@@@lexy@@@_detail@lexy@@XU?$ws_production@U?$_chc@U_space@ascii@lexyd@@U?$_br@U_backslash@lexyd@@U_nl@2@@3@@lexyd@@@23@X@lexy@@U_pr8@2@AEAUloop_control_t@?1???$parse@U?$_pc@V?$ws_handler@V?$_ph@U_pr8@lexy@@@lexy@@@_detail@lexy@@XU?$ws_production@U?$_chc@U_space@ascii@lexyd@@U?$_br@U_backslash@lexyd@@U_nl@2@@3@@lexyd@@@23@X@lexy@@U_pr8@2@$$V@?$p@Ufinal_parser@_detail@lexy@@@?$_loop@U?$_chc@U_space@ascii@lexyd@@U?$_br@U_backslash@lexyd@@U_nl@2@@3@U_break@3@@lexyd@@@lexyd@@SA_NAEAU12@AEAU32@@Z@@?$p@U?$pattern_parser@Uloop_control_t@?1???$parse@U?$_pc@V?$ws_handler@V?$_ph@U_pr8@lexy@@@lexy@@@_detail@lexy@@XU?$ws_production@U?$_chc@U_space@ascii@lexyd@@U?$_br@U_backslash@lexyd@@U_nl@2@@3@@lexyd@@@23@X@lexy@@U_pr8@2@$$V@?$p@Ufinal_parser@_detail@lexy@@@?$_loop@U?$_chc@U_space@ascii@lexyd@@U?$_br@U_backslash@lexyd@@U_nl@2@@3@U_break@3@@lexyd@@@lexyd@@SA_NAEAU?$_pc@V?$ws_handler@V?$_ph@U_pr8@lexy@@@lexy@@@_detail@lexy@@XU?$ws_production@U?$_chc@U_space@ascii@lexyd@@U?$_br@U_backslash@lexyd@@U_nl@2@@3@@lexyd@@@23@X@lexy@@AEAU_pr8@6@@Z@@lexy@@@?$_chc@U_space@ascii@lexyd@@U?$_br@U_backslash@lexyd@@U_nl@2@@3@U_break@3@@lexyd@@SA_NAEAU?$_pc@V?$ws_handler@V?$_ph@U_pr8@lexy@@@lexy@@@_detail@lexy@@XU?$ws_production@U?$_chc@U_space@ascii@lexyd@@U?$_br@U_backslash@lexyd@@U_nl@2@@3@@lexyd@@@23@X@lexy@@AEAU_pr8@5@AEAUloop_control_t@?1???$parse@U?$_pc@V?$ws_handler@V?$_ph@U_pr8@lexy@@@lexy@@@_detail@lexy@@XU?$ws_production@U?$_chc@U_space@ascii@lexyd@@U?$_br@U_backslash@lexyd@@U_nl@2@@3@@lexyd@@@23@X@lexy@@U_pr8@2@$$V@?$p@Ufinal_parser@_detail@lexy@@@?$_loop@U?$_chc@U_space@ascii@lexyd@@U?$_br@U_backslash@lexyd@@U_nl@2@@3@U_break@3@@lexyd@@@3@SA_N01@Z@@Z@QEBA?A_P$$QEAU?$bp@U_pr8@lexy@@@?$token_base@U_space@ascii@lexyd@@Ubranch_base@3@@3@@Z
	??$?RU?$continuation_branch_parser@U?$_calt@U?$_ccp@$0GF@@lexyd@@U?$_ccp@$0EF@@2@@lexyd@@U_pr8@lexy@@$$Y_pc@?$_br@U?$_calt@U?$_ccp@$0GF@@lexyd@@U?$_ccp@$0EF@@2@@lexyd@@U?$_if@U?$_chc@U_plus@lexyd@@U_minus@2@@lexyd@@@2@U?$_digits@U?$_d@$09@lexyd@@@2@@2@@lexy@@@<lambda_1>@?1???$parse@U?$_pc@V_mh@lexy@@XU_production@?$_token@U?$_seq@U?$_if@U?$_chc@U_plus@lexyd@@U_minus@2@@lexyd@@@lexyd@@U?$_digits@U?$_d@$09@lexyd@@@2@U?$_chc@U?$_br@U_period@lexyd@@U?$_digits@U?$_d@$09@lexyd@@@2@U?$_if@U?$_br@U?$_calt@U?$_ccp@$0GF@@lexyd@@U?$_ccp@$0EF@@2@@lexyd@@U?$_if@U?$_chc@U_plus@lexyd@@U_minus@2@@lexyd@@@2@U?$_digits@U?$_d@$09@lexyd@@@2@@lexyd@@@2@@lexyd@@U?$_br@U?$_calt@U?$_ccp@$0GF@@lexyd@@U?$_ccp@$0EF@@2@@lexyd@@U?$_if@U?$_chc@U_plus@lexyd@@U_minus@2@@lexyd@@@2@U?$_digits@U?$_d@$09@lexyd@@@2@@2@@2@U?$_peekn@U?$_calt@U?$_ccp@$0CO@@lexyd@@U_alpha@ascii@2@U_alphau@42@@lexyd@@Uinvalid_suffix@Real@Grammar@BT@@@2@@lexyd@@@lexyd@@X@lexy@@U_pr8@2@$$V@?$p@U?$p@Ufinal_parser@_detail@lexy@@@?$_peekn@U?$_calt@U?$_ccp@$0CO@@lexyd@@U_alpha@ascii@2@U_alphau@42@@lexyd@@Uinvalid_suffix@Real@Grammar@BT@@@lexyd@@@?$_chc@U?$_br@U_period@lexyd@@U?$_digits@U?$_d@$09@lexyd@@@2@U?$_if@U?$_br@U?$_calt@U?$_ccp@$0GF@@lexyd@@U?$_ccp@$0EF@@2@@lexyd@@U?$_if@U?$_chc@U_plus@lexyd@@U_minus@2@@lexyd@@@2@U?$_digits@U?$_d@$09@lexyd@@@2@@lexyd@@@2@@lexyd@@U?$_br@U?$_calt@U?$_ccp@$0GF@@lexyd@@U?$_ccp@$0EF@@2@@lexyd@@U?$_if@U?$_chc@U_plus@lexyd@@U_minus@2@@lexyd@@@2@U?$_digits@U?$_d@$09@lexyd@@@2@@2@@lexyd@@SA_NAEAU?$_pc@V_mh@lexy@@XU_production@?$_token@U?$_seq@U?$_if@U?$_chc@U_plus@lexyd@@U_minus@2@@lexyd@@@lexyd@@U?$_digits@U?$_d@$09@lexyd@@@2@U?$_chc@U?$_br@U_period@lexyd@@U?$_digits@U?$_d@$09@lexyd@@@2@U?$_if@U?$_br@U?$_calt@U?$_ccp@$0GF@@lexyd@@U?$_ccp@$0EF@@2@@lexyd@@U?$_if@U?$_chc@U_plus@lexyd@@U_minus@2@@lexyd@@@2@U?$_digits@U?$_d@$09@lexyd@@@2@@lexyd@@@2@@lexyd@@U?$_br@U?$_calt@U?$_ccp@$0GF@@lexyd@@U?$_ccp@$0EF@@2@@lexyd@@U?$_if@U?$_chc@U_plus@lexyd@@U_minus@2@@lexyd@@@2@U?$_digits@U?$_d@$09@lexyd@@@2@@2@@2@U?$_peekn@U?$_calt@U?$_ccp@$0CO@@lexyd@@U_alpha@ascii@2@U_alphau@42@@lexyd@@Uinvalid_suffix@Real@Grammar@BT@@@2@@lexyd@@@lexyd@@X@lexy@@AEAU_pr8@5@@Z@QEBA?A_P$$QEAU?$continuation_branch_parser@U?$_calt@U?$_ccp@$0GF@@lexyd@@U?$_ccp@$0EF@@2@@lexyd@@U_pr8@lexy@@$$Y_pc@?$_br@U?$_calt@U?$_ccp@$0GF@@lexyd@@U?$_ccp@$0EF@@2@@lexyd@@U?$_if@U?$_chc@U_plus@lexyd@@U_minus@2@@lexyd@@@2@U?$_digits@U?$_d@$09@lexyd@@@2@@2@@5@@Z
	??$?RU?$continuation_branch_parser@U?$_calt@U?$_ccp@$0GF@@lexyd@@U?$_ccp@$0EF@@2@@lexyd@@U_pr8@lexy@@$$Y_pc@?$_br@U?$_calt@U?$_ccp@$0GF@@lexyd@@U?$_ccp@$0EF@@2@@lexyd@@U?$_if@U?$_chc@U_plus@lexyd@@U_minus@2@@lexyd@@@2@U?$_digits@U?$_d@$09@lexyd@@@2@@2@@lexy@@@<lambda_1>@?1???$parse@U?$_pc@V_mh@lexy@@XU_production@?$_token@U?$_seq@U?$_if@U?$_chc@U_plus@lexyd@@U_minus@2@@lexyd@@@lexyd@@U?$_digits@U?$_d@$09@lexyd@@@2@U?$_chc@U?$_br@U_period@lexyd@@U?$_digits@U?$_d@$09@lexyd@@@2@U?$_if@U?$_br@U?$_calt@U?$_ccp@$0GF@@lexyd@@U?$_ccp@$0EF@@2@@lexyd@@U?$_if@U?$_chc@U_plus@lexyd@@U_minus@2@@lexyd@@@2@U?$_digits@U?$_d@$09@lexyd@@@2@@lexyd@@@2@@lexyd@@U?$_br@U?$_calt@U?$_ccp@$0GF@@lexyd@@U?$_ccp@$0EF@@2@@lexyd@@U?$_if@U?$_chc@U_plus@lexyd@@U_minus@2@@lexyd@@@2@U?$_digits@U?$_d@$09@lexyd@@@2@@2@@2@U?$_peekn@U?$_calt@U?$_ccp@$0CO@@lexyd@@U_alpha@ascii@2@U_alphau@42@@lexyd@@Uinvalid_suffix@Real@Grammar@BT@@@2@@lexyd@@@lexyd@@X@lexy@@U_pr8@2@Uminus_sign@2@@?$p@U?$p@Ufinal_parser@_detail@lexy@@@?$_peekn@U?$_calt@U?$_ccp@$0CO@@lexyd@@U_alpha@ascii@2@U_alphau@42@@lexyd@@Uinvalid_suffix@Real@Grammar@BT@@@lexyd@@@?$_chc@U?$_br@U_period@lexyd@@U?$_digits@U?$_d@$09@lexyd@@@2@U?$_if@U?$_br@U?$_calt@U?$_ccp@$0GF@@lexyd@@U?$_ccp@$0EF@@2@@lexyd@@U?$_if@U?$_chc@U_plus@lexyd@@U_minus@2@@lexyd@@@2@U?$_digits@U?$_d@$09@lexyd@@@2@@lexyd@@@2@@lexyd@@U?$_br@U?$_calt@U?$_ccp@$0GF@@lexyd@@U?$_ccp@$0EF@@2@@lexyd@@U?$_if@U?$_chc@U_plus@lexyd@@U_minus@2@@lexyd@@@2@U?$_digits@U?$_d@$09@lexyd@@@2@@2@@lexyd@@SA_NAEAU?$_pc@V_mh@lexy@@XU_production@?$_token@U?$_seq@U?$_if@U?$_chc@U_plus@lexyd@@U_minus@2@@lexyd@@@lexyd@@U?$_digits@U?$_d@$09@lexyd@@@2@U?$_chc@U?$_br@U_period@lexyd@@U?$_digits@U?$_d@$09@lexyd@@@2@U?$_if@U?$_br@U?$_calt@U?$_ccp@$0GF@@lexyd@@U?$_ccp@$0EF@@2@@lexyd@@U?$_if@U?$_chc@U_plus@lexyd@@U_minus@2@@lexyd@@@2@U?$_digits@U?$_d@$09@lexyd@@@2@@lexyd@@@2@@lexyd@@U?$_br@U?$_calt@U?$_ccp@$0GF@@lexyd@@U?$_ccp@$0EF@@2@@lexyd@@U?$_if@U?$_chc@U_plus@lexyd@@U_minus@2@@lexyd@@@2@U?$_digits@U?$_d@$09@lexyd@@@2@@2@@2@U?$_peekn@U?$_calt@U?$_ccp@$0CO@@lexyd@@U_alpha@ascii@2@U_alphau@42@@lexyd@@Uinvalid_suffix@Real@Grammar@BT@@@2@@lexyd@@@lexyd@@X@lexy@@AEAU_pr8@5@$$QEAUminus_sign@5@@Z@QEBA?A_P$$QEAU?$continuation_branch_parser@U?$_calt@U?$_ccp@$0GF@@lexyd@@U?$_ccp@$0EF@@2@@lexyd@@U_pr8@lexy@@$$Y_pc@?$_br@U?$_calt@U?$_ccp@$0GF@@lexyd@@U?$_ccp@$0EF@@2@@lexyd@@U?$_if@U?$_chc@U_plus@lexyd@@U_minus@2@@lexyd@@@2@U?$_digits@U?$_d@$09@lexyd@@@2@@2@@5@@Z
	??$?RU?$continuation_branch_parser@U?$_calt@U?$_ccp@$0GF@@lexyd@@U?$_ccp@$0EF@@2@@lexyd@@U_pr8@lexy@@$$Y_pc@?$_br@U?$_calt@U?$_ccp@$0GF@@lexyd@@U?$_ccp@$0EF@@2@@lexyd@@U?$_if@U?$_chc@U_plus@lexyd@@U_minus@2@@lexyd@@@2@U?$_digits@U?$_d@$09@lexyd@@@2@@2@@lexy@@@<lambda_1>@?1???$parse@U?$_pc@V_mh@lexy@@XU_production@?$_token@U?$_seq@U?$_if@U?$_chc@U_plus@lexyd@@U_minus@2@@lexyd@@@lexyd@@U?$_digits@U?$_d@$09@lexyd@@@2@U?$_chc@U?$_br@U_period@lexyd@@U?$_digits@U?$_d@$09@lexyd@@@2@U?$_if@U?$_br@U?$_calt@U?$_ccp@$0GF@@lexyd@@U?$_ccp@$0EF@@2@@lexyd@@U?$_if@U?$_chc@U_plus@lexyd@@U_minus@2@@lexyd@@@2@U?$_digits@U?$_d@$09@lexyd@@@2@@lexyd@@@2@@lexyd@@U?$_br@U?$_calt@U?$_ccp@$0GF@@lexyd@@U?$_ccp@$0EF@@2@@lexyd@@U?$_if@U?$_chc@U_plus@lexyd@@U_minus@2@@lexyd@@@2@U?$_digits@U?$_d@$09@lexyd@@@2@@2@@2@U?$_peekn@U?$_calt@U?$_ccp@$0CO@@lexyd@@U_alpha@ascii@2@U_alphau@42@@lexyd@@Uinvalid_suffix@Real@Grammar@BT@@@2@@lexyd@@@lexyd@@X@lexy@@U_pr8@2@Uplus_sign@2@@?$p@U?$p@Ufinal_parser@_detail@lexy@@@?$_peekn@U?$_calt@U?$_ccp@$0CO@@lexyd@@U_alpha@ascii@2@U_alphau@42@@lexyd@@Uinvalid_suffix@Real@Grammar@BT@@@lexyd@@@?$_chc@U?$_br@U_period@lexyd@@U?$_digits@U?$_d@$09@lexyd@@@2@U?$_if@U?$_br@U?$_calt@U?$_ccp@$0GF@@lexyd@@U?$_ccp@$0EF@@2@@lexyd@@U?$_if@U?$_chc@U_plus@lexyd@@U_minus@2@@lexyd@@@2@U?$_digits@U?$_d@$09@lexyd@@@2@@lexyd@@@2@@lexyd@@U?$_br@U?$_calt@U?$_ccp@$0GF@@lexyd@@U?$_ccp@$0EF@@2@@lexyd@@U?$_if@U?$_chc@U_plus@lexyd@@U_minus@2@@lexyd@@@2@U?$_digits@U?$_d@$09@lexyd@@@2@@2@@lexyd@@SA_NAEAU?$_pc@V_mh@lexy@@XU_production@?$_token@U?$_seq@U?$_if@U?$_chc@U_plus@lexyd@@U_minus@2@@lexyd@@@lexyd@@U?$_digits@U?$_d@$09@lexyd@@@2@U?$_chc@U?$_br@U_period@lexyd@@U?$_digits@U?$_d@$09@lexyd@@@2@U?$_if@U?$_br@U?$_calt@U?$_ccp@$0GF@@lexyd@@U?$_ccp@$0EF@@2@@lexyd@@U?$_if@U?$_chc@U_plus@lexyd@@U_minus@2@@lexyd@@@2@U?$_digits@U?$_d@$09@lexyd@@@2@@lexyd@@@2@@lexyd@@U?$_br@U?$_calt@U?$_ccp@$0GF@@lexyd@@U?$_ccp@$0EF@@2@@lexyd@@U?$_if@U?$_chc@U_plus@lexyd@@U_minus@2@@lexyd@@@2@U?$_digits@U?$_d@$09@lexyd@@@2@@2@@2@U?$_peekn@U?$_calt@U?$_ccp@$0CO@@lexyd@@U_alpha@ascii@2@U_alphau@42@@lexyd@@Uinvalid_suffix@Real@Grammar@BT@@@2@@lexyd@@@lexyd@@X@lexy@@AEAU_pr8@5@$$QEAUplus_sign@5@@Z@QEBA?A_P$$QEAU?$continuation_branch_parser@U?$_calt@U?$_ccp@$0GF@@lexyd@@U?$_ccp@$0EF@@2@@lexyd@@U_pr8@lexy@@$$Y_pc@?$_br@U?$_calt@U?$_ccp@$0GF@@lexyd@@U?$_ccp@$0EF@@2@@lexyd@@U?$_if@U?$_chc@U_plus@lexyd@@U_minus@2@@lexyd@@@2@U?$_digits@U?$_d@$09@lexyd@@@2@@2@@5@@Z
	??$?RU?$continuation_branch_parser@U?$_chc@U?$_lit@D$0DA@$0HI@@lexyd@@U?$_lit@D$0DA@$0FI@@2@@lexyd@@U_pr8@lexy@@$$Y_pc@?$_br@U?$_chc@U?$_lit@D$0DA@$0HI@@lexyd@@U?$_lit@D$0DA@$0FI@@2@@lexyd@@U?$_int_dsl@_JU?$_d@$0BA@@lexyd@@@2@@2@@lexy@@@<lambda_1>@?1???$try_parse@U?$parse_context_control_block@V?$_ph@U_pr8@lexy@@@lexy@@X@_detail@lexy@@@?$bp@U_pr8@lexy@@U?$integer_sequence@_K$0A@$00@_detail@2@@?$_chc@U?$_br@U?$_chc@U?$_lit@D$0DA@$0HI@@lexyd@@U?$_lit@D$0DA@$0FI@@2@@lexyd@@U?$_int_dsl@_JU?$_d@$0BA@@lexyd@@@2@@lexyd@@U?$_br@U?$_peek@U?$_calt@U?$_ccp@$0CN@@lexyd@@U?$_ccp@$0CL@@2@U?$_d@$09@2@@lexyd@@X@lexyd@@U?$_prd@Uinteger@Integer@Grammar@BT@@@2@@2@@lexyd@@QEAA_NPEBU?$parse_context_control_block@V?$_ph@U_pr8@lexy@@@lexy@@X@_detail@lexy@@AEBU_pr8@6@@Z@QEBA?A_P_KAEAU?$continuation_branch_parser@U?$_chc@U?$_lit@D$0DA@$0HI@@lexyd@@U?$_lit@D$0DA@$0FI@@2@@lexyd@@U_pr8@lexy@@$$Y_pc@?$_br@U?$_chc@U?$_lit@D$0DA@$0HI@@lexyd@@U?$_lit@D$0DA@$0FI@@2@@lexyd@@U?$_int_dsl@_JU?$_d@$0BA@@lexyd@@@2@@2@@6@@Z
	??$?RU?$continuation_branch_parser@U?$_lit@D$0CI@@lexyd@@U_pr8@lexy@@$$Y_pc@?$_br@U?$_lit@D$0CI@@lexyd@@U?$_prd@Unested_expr@Grammar@BT@@@2@U?$_lit@D$0CJ@@2@@2@@lexy@@@<lambda_1>@?1???$parse@U?$_pc@V?$_ph@U_pr8@lexy@@@lexy@@XUExpression@Grammar@BT@@Unested_expr@45@@lexy@@U_pr8@2@$$V@?$p@Ufinal_parser@_detail@lexy@@@?$_chc@U?$_br@U?$_lit@D$0CI@@lexyd@@U?$_prd@Unested_expr@Grammar@BT@@@2@U?$_lit@D$0CJ@@2@@lexyd@@U?$_prd@UBooleanLiteral@Grammar@BT@@@2@U?$_prd@UName@Grammar@BT@@@2@U?$_prd@UAnyValue@Grammar@BT@@@2@U?$_err@Uexpected_operand@Expression@Grammar@BT@@X@2@@lexyd@@SA_NAEAU?$_pc@V?$_ph@U_pr8@lexy@@@lexy@@XUExpression@Grammar@BT@@Unested_expr@45@@lexy@@AEAU_pr8@5@@Z@QEBA?A_P$$QEAU?$continuation_branch_parser@U?$_lit@D$0CI@@lexyd@@U_pr8@lexy@@$$Y_pc@?$_br@U?$_lit@D$0CI@@lexyd@@U?$_prd@Unested_expr@Grammar@BT@@@2@U?$_lit@D$0CJ@@2@@2@@5@@Z
	??$?RU?$continuation_branch_parser@U?$_lit@D$0CI@@lexyd@@U_pr8@lexy@@$$Y_pc@?$_br@U?$_lit@D$0CI@@lexyd@@U?$_prd@Unested_expr@Grammar@BT@@@2@U?$_lit@D$0CJ@@2@@2@@lexy@@@<lambda_1>@?1???$parse@U?$_pc@V?$_ph@U_pr8@lexy@@@lexy@@XUExpression@Grammar@BT@@Ustmt@45@@lexy@@U_pr8@2@$$V@?$p@Ufinal_parser@_detail@lexy@@@?$_chc@U?$_br@U?$_lit@D$0CI@@lexyd@@U?$_prd@Unested_expr@Grammar@BT@@@2@U?$_lit@D$0CJ@@2@@lexyd@@U?$_prd@UBooleanLiteral@Grammar@BT@@@2@U?$_prd@UName@Grammar@BT@@@2@U?$_prd@UAnyValue@Grammar@BT@@@2@U?$_err@Uexpected_operand@Expression@Grammar@BT@@X@2@@lexyd@@SA_NAEAU?$_pc@V?$_ph@U_pr8@lexy@@@lexy@@XUExpression@Grammar@BT@@Ustmt@45@@lexy@@AEAU_pr8@5@@Z@QEBA?A_P$$QEAU?$continuation_branch_parser@U?$_lit@D$0CI@@lexyd@@U_pr8@lexy@@$$Y_pc@?$_br@U?$_lit@D$0CI@@lexyd@@U?$_prd@Unested_expr@Grammar@BT@@@2@U?$_lit@D$0CJ@@2@@2@@5@@Z
	??$?RU?$continuation_branch_parser@U?$_peek@U?$_calt@U?$_ccp@$0CN@@lexyd@@U?$_ccp@$0CL@@2@U?$_d@$09@2@@lexyd@@X@lexyd@@U_pr8@lexy@@$$Y_pc@?$_br@U?$_peek@U?$_calt@U?$_ccp@$0CN@@lexyd@@U?$_ccp@$0CL@@2@U?$_d@$09@2@@lexyd@@X@lexyd@@U?$_prd@Uinteger@Integer@Grammar@BT@@@2@@2@@lexy@@@<lambda_1>@?1???$try_parse@U?$parse_context_control_block@V?$_ph@U_pr8@lexy@@@lexy@@X@_detail@lexy@@@?$bp@U_pr8@lexy@@U?$integer_sequence@_K$0A@$00@_detail@2@@?$_chc@U?$_br@U?$_chc@U?$_lit@D$0DA@$0HI@@lexyd@@U?$_lit@D$0DA@$0FI@@2@@lexyd@@U?$_int_dsl@_JU?$_d@$0BA@@lexyd@@@2@@lexyd@@U?$_br@U?$_peek@U?$_calt@U?$_ccp@$0CN@@lexyd@@U?$_ccp@$0CL@@2@U?$_d@$09@2@@lexyd@@X@lexyd@@U?$_prd@Uinteger@Integer@Grammar@BT@@@2@@2@@lexyd@@QEAA_NPEBU?$parse_context_control_block@V?$_ph@U_pr8@lexy@@@lexy@@X@_detail@lexy@@AEBU_pr8@6@@Z@QEBA?A_P_KAEAU?$continuation_branch_parser@U?$_peek@U?$_calt@U?$_ccp@$0CN@@lexyd@@U?$_ccp@$0CL@@2@U?$_d@$09@2@@lexyd@@X@lexyd@@U_pr8@lexy@@$$Y_pc@?$_br@U?$_peek@U?$_calt@U?$_ccp@$0CN@@lexyd@@U?$_ccp@$0CL@@2@U?$_d@$09@2@@lexyd@@X@lexyd@@U?$_prd@Uinteger@Integer@Grammar@BT@@@2@@2@@6@@Z
	??$?RU?$continuation_branch_parser@U_backslash@lexyd@@U_pr8@lexy@@$$Y_pc@?$_br@U_backslash@lexyd@@U_nl@2@@2@@lexy@@@<lambda_1>@?1???$parse@U?$_pc@V?$ws_handler@V?$_ph@U_pr8@lexy@@@lexy@@@_detail@lexy@@XU?$ws_production@U?$_chc@U_blank@ascii@lexyd@@U?$_br@U_backslash@lexyd@@U_nl@2@@3@@lexyd@@@23@X@lexy@@U_pr8@2@AEAUloop_control_t@?1???$parse@U?$_pc@V?$ws_handler@V?$_ph@U_pr8@lexy@@@lexy@@@_detail@lexy@@XU?$ws_production@U?$_chc@U_blank@ascii@lexyd@@U?$_br@U_backslash@lexyd@@U_nl@2@@3@@lexyd@@@23@X@lexy@@U_pr8@2@$$V@?$p@Ufinal_parser@_detail@lexy@@@?$_loop@U?$_chc@U_blank@ascii@lexyd@@U?$_br@U_backslash@lexyd@@U_nl@2@@3@U_break@3@@lexyd@@@lexyd@@SA_NAEAU12@AEAU32@@Z@@?$p@U?$pattern_parser@Uloop_control_t@?1???$parse@U?$_pc@V?$ws_handler@V?$_ph@U_pr8@lexy@@@lexy@@@_detail@lexy@@XU?$ws_production@U?$_chc@U_blank@ascii@lexyd@@U?$_br@U_backslash@lexyd@@U_nl@2@@3@@lexyd@@@23@X@lexy@@U_pr8@2@$$V@?$p@Ufinal_parser@_detail@lexy@@@?$_loop@U?$_chc@U_blank@ascii@lexyd@@U?$_br@U_backslash@lexyd@@U_nl@2@@3@U_break@3@@lexyd@@@lexyd@@SA_NAEAU?$_pc@V?$ws_handler@V?$_ph@U_pr8@lexy@@@lexy@@@_detail@lexy@@XU?$ws_production@U?$_chc@U_blank@ascii@lexyd@@U?$_br@U_backslash@lexyd@@U_nl@2@@3@@lexyd@@@23@X@lexy@@AEAU_pr8@6@@Z@@lexy@@@?$_chc@U_blank@ascii@lexyd@@U?$_br@U_backslash@lexyd@@U_nl@2@@3@U_break@3@@lexyd@@SA_NAEAU?$_pc@V?$ws_handler@V?$_ph@U_pr8@lexy@@@lexy@@@_detail@lexy@@XU?$ws_production@U?$_chc@U_blank@ascii@lexyd@@U?$_br@U_backslash@lexyd@@U_nl@2@@3@@lexyd@@@23@X@lexy@@AEAU_pr8@5@AEAUloop_control_t@?1???$parse@U?$_pc@V?$ws_handler@V?$_ph@U_pr8@lexy@@@lexy@@@_detail@lexy@@XU?$ws_production@U?$_chc@U_blank@ascii@lexyd@@U?$_br@U_backslash@lexyd@@U_nl@2@@3@@lexyd@@@23@X@lexy@@U_pr8@2@$$V@?$p@Ufinal_parser@_detail@lexy@@@?$_loop@U?$_chc@U_blank@ascii@lexyd@@U?$_br@U_backslash@lexyd@@U_nl@2@@3@U_break@3@@lexyd@@@3@SA_N01@Z@@Z@QEBA?A_P$$QEAU?$continuation_branch_parser@U_backslash@lexyd@@U_pr8@lexy@@$$Y_pc@?$_br@U_backslash@lexyd@@U_nl@2@@2@@5@@Z
	??$?RU?$continuation_branch_parser@U_backslash@lexyd@@U_pr8@lexy@@$$Y_pc@?$_br@U_backslash@lexyd@@U_nl@2@@2@@lexy@@@<lambda_1>@?1???$parse@U?$_pc@V?$ws_handler@V?$_ph@U_pr8@lexy@@@lexy@@@_detail@lexy@@XU?$ws_production@U?$_chc@U_space@ascii@lexyd@@U?$_br@U_backslash@lexyd@@U_nl@2@@3@@lexyd@@@23@X@lexy@@U_pr8@2@AEAUloop_control_t@?1???$parse@U?$_pc@V?$ws_handler@V?$_ph@U_pr8@lexy@@@lexy@@@_detail@lexy@@XU?$ws_production@U?$_chc@U_space@ascii@lexyd@@U?$_br@U_backslash@lexyd@@U_nl@2@@3@@lexyd@@@23@X@lexy@@U_pr8@2@$$V@?$p@Ufinal_parser@_detail@lexy@@@?$_loop@U?$_chc@U_space@ascii@lexyd@@U?$_br@U_backslash@lexyd@@U_nl@2@@3@U_break@3@@lexyd@@@lexyd@@SA_NAEAU12@AEAU32@@Z@@?$p@U?$pattern_parser@Uloop_control_t@?1???$parse@U?$_pc@V?$ws_handler@V?$_ph@U_pr8@lexy@@@lexy@@@_detail@lexy@@XU?$ws_production@U?$_chc@U_space@ascii@lexyd@@U?$_br@U_backslash@lexyd@@U_nl@2@@3@@lexyd@@@23@X@lexy@@U_pr8@2@$$V@?$p@Ufinal_parser@_detail@lexy@@@?$_loop@U?$_chc@U_space@ascii@lexyd@@U?$_br@U_backslash@lexyd@@U_nl@2@@3@U_break@3@@lexyd@@@lexyd@@SA_NAEAU?$_pc@V?$ws_handler@V?$_ph@U_pr8@lexy@@@lexy@@@_detail@lexy@@XU?$ws_production@U?$_chc@U_space@ascii@lexyd@@U?$_br@U_backslash@lexyd@@U_nl@2@@3@@lexyd@@@23@X@lexy@@AEAU_pr8@6@@Z@@lexy@@@?$_chc@U_space@ascii@lexyd@@U?$_br@U_backslash@lexyd@@U_nl@2@@3@U_break@3@@lexyd@@SA_NAEAU?$_pc@V?$ws_handler@V?$_ph@U_pr8@lexy@@@lexy@@@_detail@lexy@@XU?$ws_production@U?$_chc@U_space@ascii@lexyd@@U?$_br@U_backslash@lexyd@@U_nl@2@@3@@lexyd@@@23@X@lexy@@AEAU_pr8@5@AEAUloop_control_t@?1???$parse@U?$_pc@V?$ws_handler@V?$_ph@U_pr8@lexy@@@lexy@@@_detail@lexy@@XU?$ws_production@U?$_chc@U_space@ascii@lexyd@@U?$_br@U_backslash@lexyd@@U_nl@2@@3@@lexyd@@@23@X@lexy@@U_pr8@2@$$V@?$p@Ufinal_parser@_detail@lexy@@@?$_loop@U?$_chc@U_space@ascii@lexyd@@U?$_br@U_backslash@lexyd@@U_nl@2@@3@U_break@3@@lexyd@@@3@SA_N01@Z@@Z@QEBA?A_P$$QEAU?$continuation_branch_parser@U_backslash@lexyd@@U_pr8@lexy@@$$Y_pc@?$_br@U_backslash@lexyd@@U_nl@2@@2@@5@@Z
	??$?RU?$continuation_branch_parser@U_period@lexyd@@U_pr8@lexy@@$$Y_pc@?$_br@U_period@lexyd@@U?$_digits@U?$_d@$09@lexyd@@@2@U?$_if@U?$_br@U?$_calt@U?$_ccp@$0GF@@lexyd@@U?$_ccp@$0EF@@2@@lexyd@@U?$_if@U?$_chc@U_plus@lexyd@@U_minus@2@@lexyd@@@2@U?$_digits@U?$_d@$09@lexyd@@@2@@lexyd@@@2@@2@@lexy@@@<lambda_1>@?1???$parse@U?$_pc@V_mh@lexy@@XU_production@?$_token@U?$_seq@U?$_if@U?$_chc@U_plus@lexyd@@U_minus@2@@lexyd@@@lexyd@@U?$_digits@U?$_d@$09@lexyd@@@2@U?$_chc@U?$_br@U_period@lexyd@@U?$_digits@U?$_d@$09@lexyd@@@2@U?$_if@U?$_br@U?$_calt@U?$_ccp@$0GF@@lexyd@@U?$_ccp@$0EF@@2@@lexyd@@U?$_if@U?$_chc@U_plus@lexyd@@U_minus@2@@lexyd@@@2@U?$_digits@U?$_d@$09@lexyd@@@2@@lexyd@@@2@@lexyd@@U?$_br@U?$_calt@U?$_ccp@$0GF@@lexyd@@U?$_ccp@$0EF@@2@@lexyd@@U?$_if@U?$_chc@U_plus@lexyd@@U_minus@2@@lexyd@@@2@U?$_digits@U?$_d@$09@lexyd@@@2@@2@@2@U?$_peekn@U?$_calt@U?$_ccp@$0CO@@lexyd@@U_alpha@ascii@2@U_alphau@42@@lexyd@@Uinvalid_suffix@Real@Grammar@BT@@@2@@lexyd@@@lexyd@@X@lexy@@U_pr8@2@$$V@?$p@U?$p@Ufinal_parser@_detail@lexy@@@?$_peekn@U?$_calt@U?$_ccp@$0CO@@lexyd@@U_alpha@ascii@2@U_alphau@42@@lexyd@@Uinvalid_suffix@Real@Grammar@BT@@@lexyd@@@?$_chc@U?$_br@U_period@lexyd@@U?$_digits@U?$_d@$09@lexyd@@@2@U?$_if@U?$_br@U?$_calt@U?$_ccp@$0GF@@lexyd@@U?$_ccp@$0EF@@2@@lexyd@@U?$_if@U?$_chc@U_plus@lexyd@@U_minus@2@@lexyd@@@2@U?$_digits@U?$_d@$09@lexyd@@@2@@lexyd@@@2@@lexyd@@U?$_br@U?$_calt@U?$_ccp@$0GF@@lexyd@@U?$_ccp@$0EF@@2@@lexyd@@U?$_if@U?$_chc@U_plus@lexyd@@U_minus@2@@lexyd@@@2@U?$_digits@U?$_d@$09@lexyd@@@2@@2@@lexyd@@SA_NAEAU?$_pc@V_mh@lexy@@XU_production@?$_token@U?$_seq@U?$_if@U?$_chc@U_plus@lexyd@@U_minus@2@@lexyd@@@lexyd@@U?$_digits@U?$_d@$09@lexyd@@@2@U?$_chc@U?$_br@U_period@lexyd@@U?$_digits@U?$_d@$09@lexyd@@@2@U?$_if@U?$_br@U?$_calt@U?$_ccp@$0GF@@lexyd@@U?$_ccp@$0EF@@2@@lexyd@@U?$_if@U?$_chc@U_plus@lexyd@@U_minus@2@@lexyd@@@2@U?$_digits@U?$_d@$09@lexyd@@@2@@lexyd@@@2@@lexyd@@U?$_br@U?$_calt@U?$_ccp@$0GF@@lexyd@@U?$_ccp@$0EF@@2@@lexyd@@U?$_if@U?$_chc@U_plus@lexyd@@U_minus@2@@lexyd@@@2@U?$_digits@U?$_d@$09@lexyd@@@2@@2@@2@U?$_peekn@U?$_calt@U?$_ccp@$0CO@@lexyd@@U_alpha@ascii@2@U_alphau@42@@lexyd@@Uinvalid_suffix@Real@Grammar@BT@@@2@@lexyd@@@lexyd@@X@lexy@@AEAU_pr8@5@@Z@QEBA?A_P$$QEAU?$continuation_branch_parser@U_period@lexyd@@U_pr8@lexy@@$$Y_pc@?$_br@U_period@lexyd@@U?$_digits@U?$_d@$09@lexyd@@@2@U?$_if@U?$_br@U?$_calt@U?$_ccp@$0GF@@lexyd@@U?$_ccp@$0EF@@2@@lexyd@@U?$_if@U?$_chc@U_plus@lexyd@@U_minus@2@@lexyd@@@2@U?$_digits@U?$_d@$09@lexyd@@@2@@lexyd@@@2@@2@@5@@Z
	??$?RU?$continuation_branch_parser@U_period@lexyd@@U_pr8@lexy@@$$Y_pc@?$_br@U_period@lexyd@@U?$_digits@U?$_d@$09@lexyd@@@2@U?$_if@U?$_br@U?$_calt@U?$_ccp@$0GF@@lexyd@@U?$_ccp@$0EF@@2@@lexyd@@U?$_if@U?$_chc@U_plus@lexyd@@U_minus@2@@lexyd@@@2@U?$_digits@U?$_d@$09@lexyd@@@2@@lexyd@@@2@@2@@lexy@@@<lambda_1>@?1???$parse@U?$_pc@V_mh@lexy@@XU_production@?$_token@U?$_seq@U?$_if@U?$_chc@U_plus@lexyd@@U_minus@2@@lexyd@@@lexyd@@U?$_digits@U?$_d@$09@lexyd@@@2@U?$_chc@U?$_br@U_period@lexyd@@U?$_digits@U?$_d@$09@lexyd@@@2@U?$_if@U?$_br@U?$_calt@U?$_ccp@$0GF@@lexyd@@U?$_ccp@$0EF@@2@@lexyd@@U?$_if@U?$_chc@U_plus@lexyd@@U_minus@2@@lexyd@@@2@U?$_digits@U?$_d@$09@lexyd@@@2@@lexyd@@@2@@lexyd@@U?$_br@U?$_calt@U?$_ccp@$0GF@@lexyd@@U?$_ccp@$0EF@@2@@lexyd@@U?$_if@U?$_chc@U_plus@lexyd@@U_minus@2@@lexyd@@@2@U?$_digits@U?$_d@$09@lexyd@@@2@@2@@2@U?$_peekn@U?$_calt@U?$_ccp@$0CO@@lexyd@@U_alpha@ascii@2@U_alphau@42@@lexyd@@Uinvalid_suffix@Real@Grammar@BT@@@2@@lexyd@@@lexyd@@X@lexy@@U_pr8@2@Uminus_sign@2@@?$p@U?$p@Ufinal_parser@_detail@lexy@@@?$_peekn@U?$_calt@U?$_ccp@$0CO@@lexyd@@U_alpha@ascii@2@U_alphau@42@@lexyd@@Uinvalid_suffix@Real@Grammar@BT@@@lexyd@@@?$_chc@U?$_br@U_period@lexyd@@U?$_digits@U?$_d@$09@lexyd@@@2@U?$_if@U?$_br@U?$_calt@U?$_ccp@$0GF@@lexyd@@U?$_ccp@$0EF@@2@@lexyd@@U?$_if@U?$_chc@U_plus@lexyd@@U_minus@2@@lexyd@@@2@U?$_digits@U?$_d@$09@lexyd@@@2@@lexyd@@@2@@lexyd@@U?$_br@U?$_calt@U?$_ccp@$0GF@@lexyd@@U?$_ccp@$0EF@@2@@lexyd@@U?$_if@U?$_chc@U_plus@lexyd@@U_minus@2@@lexyd@@@2@U?$_digits@U?$_d@$09@lexyd@@@2@@2@@lexyd@@SA_NAEAU?$_pc@V_mh@lexy@@XU_production@?$_token@U?$_seq@U?$_if@U?$_chc@U_plus@lexyd@@U_minus@2@@lexyd@@@lexyd@@U?$_digits@U?$_d@$09@lexyd@@@2@U?$_chc@U?$_br@U_period@lexyd@@U?$_digits@U?$_d@$09@lexyd@@@2@U?$_if@U?$_br@U?$_calt@U?$_ccp@$0GF@@lexyd@@U?$_ccp@$0EF@@2@@lexyd@@U?$_if@U?$_chc@U_plus@lexyd@@U_minus@2@@lexyd@@@2@U?$_digits@U?$_d@$09@lexyd@@@2@@lexyd@@@2@@lexyd@@U?$_br@U?$_calt@U?$_ccp@$0GF@@lexyd@@U?$_ccp@$0EF@@2@@lexyd@@U?$_if@U?$_chc@U_plus@lexyd@@U_minus@2@@lexyd@@@2@U?$_digits@U?$_d@$09@lexyd@@@2@@2@@2@U?$_peekn@U?$_calt@U?$_ccp@$0CO@@lexyd@@U_alpha@ascii@2@U_alphau@42@@lexyd@@Uinvalid_suffix@Real@Grammar@BT@@@2@@lexyd@@@lexyd@@X@lexy@@AEAU_pr8@5@$$QEAUminus_sign@5@@Z@QEBA?A_P$$QEAU?$continuation_branch_parser@U_period@lexyd@@U_pr8@lexy@@$$Y_pc@?$_br@U_period@lexyd@@U?$_digits@U?$_d@$09@lexyd@@@2@U?$_if@U?$_br@U?$_calt@U?$_ccp@$0GF@@lexyd@@U?$_ccp@$0EF@@2@@lexyd@@U?$_if@U?$_chc@U_plus@lexyd@@U_minus@2@@lexyd@@@2@U?$_digits@U?$_d@$09@lexyd@@@2@@lexyd@@@2@@2@@5@@Z
	??$?RU?$continuation_branch_parser@U_period@lexyd@@U_pr8@lexy@@$$Y_pc@?$_br@U_period@lexyd@@U?$_digits@U?$_d@$09@lexyd@@@2@U?$_if@U?$_br@U?$_calt@U?$_ccp@$0GF@@lexyd@@U?$_ccp@$0EF@@2@@lexyd@@U?$_if@U?$_chc@U_plus@lexyd@@U_minus@2@@lexyd@@@2@U?$_digits@U?$_d@$09@lexyd@@@2@@lexyd@@@2@@2@@lexy@@@<lambda_1>@?1???$parse@U?$_pc@V_mh@lexy@@XU_production@?$_token@U?$_seq@U?$_if@U?$_chc@U_plus@lexyd@@U_minus@2@@lexyd@@@lexyd@@U?$_digits@U?$_d@$09@lexyd@@@2@U?$_chc@U?$_br@U_period@lexyd@@U?$_digits@U?$_d@$09@lexyd@@@2@U?$_if@U?$_br@U?$_calt@U?$_ccp@$0GF@@lexyd@@U?$_ccp@$0EF@@2@@lexyd@@U?$_if@U?$_chc@U_plus@lexyd@@U_minus@2@@lexyd@@@2@U?$_digits@U?$_d@$09@lexyd@@@2@@lexyd@@@2@@lexyd@@U?$_br@U?$_calt@U?$_ccp@$0GF@@lexyd@@U?$_ccp@$0EF@@2@@lexyd@@U?$_if@U?$_chc@U_plus@lexyd@@U_minus@2@@lexyd@@@2@U?$_digits@U?$_d@$09@lexyd@@@2@@2@@2@U?$_peekn@U?$_calt@U?$_ccp@$0CO@@lexyd@@U_alpha@ascii@2@U_alphau@42@@lexyd@@Uinvalid_suffix@Real@Grammar@BT@@@2@@lexyd@@@lexyd@@X@lexy@@U_pr8@2@Uplus_sign@2@@?$p@U?$p@Ufinal_parser@_detail@lexy@@@?$_peekn@U?$_calt@U?$_ccp@$0CO@@lexyd@@U_alpha@ascii@2@U_alphau@42@@lexyd@@Uinvalid_suffix@Real@Grammar@BT@@@lexyd@@@?$_chc@U?$_br@U_period@lexyd@@U?$_digits@U?$_d@$09@lexyd@@@2@U?$_if@U?$_br@U?$_calt@U?$_ccp@$0GF@@lexyd@@U?$_ccp@$0EF@@2@@lexyd@@U?$_if@U?$_chc@U_plus@lexyd@@U_minus@2@@lexyd@@@2@U?$_digits@U?$_d@$09@lexyd@@@2@@lexyd@@@2@@lexyd@@U?$_br@U?$_calt@U?$_ccp@$0GF@@lexyd@@U?$_ccp@$0EF@@2@@lexyd@@U?$_if@U?$_chc@U_plus@lexyd@@U_minus@2@@lexyd@@@2@U?$_digits@U?$_d@$09@lexyd@@@2@@2@@lexyd@@SA_NAEAU?$_pc@V_mh@lexy@@XU_production@?$_token@U?$_seq@U?$_if@U?$_chc@U_plus@lexyd@@U_minus@2@@lexyd@@@lexyd@@U?$_digits@U?$_d@$09@lexyd@@@2@U?$_chc@U?$_br@U_period@lexyd@@U?$_digits@U?$_d@$09@lexyd@@@2@U?$_if@U?$_br@U?$_calt@U?$_ccp@$0GF@@lexyd@@U?$_ccp@$0EF@@2@@lexyd@@U?$_if@U?$_chc@U_plus@lexyd@@U_minus@2@@lexyd@@@2@U?$_digits@U?$_d@$09@lexyd@@@2@@lexyd@@@2@@lexyd@@U?$_br@U?$_calt@U?$_ccp@$0GF@@lexyd@@U?$_ccp@$0EF@@2@@lexyd@@U?$_if@U?$_chc@U_plus@lexyd@@U_minus@2@@lexyd@@@2@U?$_digits@U?$_d@$09@lexyd@@@2@@2@@2@U?$_peekn@U?$_calt@U?$_ccp@$0CO@@lexyd@@U_alpha@ascii@2@U_alphau@42@@lexyd@@Uinvalid_suffix@Real@Grammar@BT@@@2@@lexyd@@@lexyd@@X@lexy@@AEAU_pr8@5@$$QEAUplus_sign@5@@Z@QEBA?A_P$$QEAU?$continuation_branch_parser@U_period@lexyd@@U_pr8@lexy@@$$Y_pc@?$_br@U_period@lexyd@@U?$_digits@U?$_d@$09@lexyd@@@2@U?$_if@U?$_br@U?$_calt@U?$_ccp@$0GF@@lexyd@@U?$_ccp@$0EF@@2@@lexyd@@U?$_if@U?$_chc@U_plus@lexyd@@U_minus@2@@lexyd@@@2@U?$_digits@U?$_d@$09@lexyd@@@2@@lexyd@@@2@@2@@5@@Z
	??$?RU?$unconditional_branch_parser@U?$_err@Uexpected_operand@Expression@Grammar@BT@@X@lexyd@@U_pr8@lexy@@@lexy@@@<lambda_1>@?1???$parse@U?$_pc@V?$_ph@U_pr8@lexy@@@lexy@@XUExpression@Grammar@BT@@Unested_expr@45@@lexy@@U_pr8@2@$$V@?$p@Ufinal_parser@_detail@lexy@@@?$_chc@U?$_br@U?$_lit@D$0CI@@lexyd@@U?$_prd@Unested_expr@Grammar@BT@@@2@U?$_lit@D$0CJ@@2@@lexyd@@U?$_prd@UBooleanLiteral@Grammar@BT@@@2@U?$_prd@UName@Grammar@BT@@@2@U?$_prd@UAnyValue@Grammar@BT@@@2@U?$_err@Uexpected_operand@Expression@Grammar@BT@@X@2@@lexyd@@SA_NAEAU?$_pc@V?$_ph@U_pr8@lexy@@@lexy@@XUExpression@Grammar@BT@@Unested_expr@45@@lexy@@AEAU_pr8@5@@Z@QEBA?A_P$$QEAU?$unconditional_branch_parser@U?$_err@Uexpected_operand@Expression@Grammar@BT@@X@lexyd@@U_pr8@lexy@@@5@@Z
	??$?RU?$unconditional_branch_parser@U?$_err@Uexpected_operand@Expression@Grammar@BT@@X@lexyd@@U_pr8@lexy@@@lexy@@@<lambda_1>@?1???$parse@U?$_pc@V?$_ph@U_pr8@lexy@@@lexy@@XUExpression@Grammar@BT@@Ustmt@45@@lexy@@U_pr8@2@$$V@?$p@Ufinal_parser@_detail@lexy@@@?$_chc@U?$_br@U?$_lit@D$0CI@@lexyd@@U?$_prd@Unested_expr@Grammar@BT@@@2@U?$_lit@D$0CJ@@2@@lexyd@@U?$_prd@UBooleanLiteral@Grammar@BT@@@2@U?$_prd@UName@Grammar@BT@@@2@U?$_prd@UAnyValue@Grammar@BT@@@2@U?$_err@Uexpected_operand@Expression@Grammar@BT@@X@2@@lexyd@@SA_NAEAU?$_pc@V?$_ph@U_pr8@lexy@@@lexy@@XUExpression@Grammar@BT@@Ustmt@45@@lexy@@AEAU_pr8@5@@Z@QEBA?A_P$$QEAU?$unconditional_branch_parser@U?$_err@Uexpected_operand@Expression@Grammar@BT@@X@lexyd@@U_pr8@lexy@@@5@@Z
	??$?RU?$unconditional_branch_parser@U_break@lexyd@@U_pr8@lexy@@@lexy@@@<lambda_1>@?1???$parse@U?$_pc@V?$ws_handler@V?$_ph@U_pr8@lexy@@@lexy@@@_detail@lexy@@XU?$ws_production@U?$_chc@U_blank@ascii@lexyd@@U?$_br@U_backslash@lexyd@@U_nl@2@@3@@lexyd@@@23@X@lexy@@U_pr8@2@AEAUloop_control_t@?1???$parse@U?$_pc@V?$ws_handler@V?$_ph@U_pr8@lexy@@@lexy@@@_detail@lexy@@XU?$ws_production@U?$_chc@U_blank@ascii@lexyd@@U?$_br@U_backslash@lexyd@@U_nl@2@@3@@lexyd@@@23@X@lexy@@U_pr8@2@$$V@?$p@Ufinal_parser@_detail@lexy@@@?$_loop@U?$_chc@U_blank@ascii@lexyd@@U?$_br@U_backslash@lexyd@@U_nl@2@@3@U_break@3@@lexyd@@@lexyd@@SA_NAEAU12@AEAU32@@Z@@?$p@U?$pattern_parser@Uloop_control_t@?1???$parse@U?$_pc@V?$ws_handler@V?$_ph@U_pr8@lexy@@@lexy@@@_detail@lexy@@XU?$ws_production@U?$_chc@U_blank@ascii@lexyd@@U?$_br@U_backslash@lexyd@@U_nl@2@@3@@lexyd@@@23@X@lexy@@U_pr8@2@$$V@?$p@Ufinal_parser@_detail@lexy@@@?$_loop@U?$_chc@U_blank@ascii@lexyd@@U?$_br@U_backslash@lexyd@@U_nl@2@@3@U_break@3@@lexyd@@@lexyd@@SA_NAEAU?$_pc@V?$ws_handler@V?$_ph@U_pr8@lexy@@@lexy@@@_detail@lexy@@XU?$ws_production@U?$_chc@U_blank@ascii@lexyd@@U?$_br@U_backslash@lexyd@@U_nl@2@@3@@lexyd@@@23@X@lexy@@AEAU_pr8@6@@Z@@lexy@@@?$_chc@U_blank@ascii@lexyd@@U?$_br@U_backslash@lexyd@@U_nl@2@@3@U_break@3@@lexyd@@SA_NAEAU?$_pc@V?$ws_handler@V?$_ph@U_pr8@lexy@@@lexy@@@_detail@lexy@@XU?$ws_production@U?$_chc@U_blank@ascii@lexyd@@U?$_br@U_backslash@lexyd@@U_nl@2@@3@@lexyd@@@23@X@lexy@@AEAU_pr8@5@AEAUloop_control_t@?1???$parse@U?$_pc@V?$ws_handler@V?$_ph@U_pr8@lexy@@@lexy@@@_detail@lexy@@XU?$ws_production@U?$_chc@U_blank@ascii@lexyd@@U?$_br@U_backslash@lexyd@@U_nl@2@@3@@lexyd@@@23@X@lexy@@U_pr8@2@$$V@?$p@Ufinal_parser@_detail@lexy@@@?$_loop@U?$_chc@U_blank@ascii@lexyd@@U?$_br@U_backslash@lexyd@@U_nl@2@@3@U_break@3@@lexyd@@@3@SA_N01@Z@@Z@QEBA?A_P$$QEAU?$unconditional_branch_parser@U_break@lexyd@@U_pr8@lexy@@@5@@Z
	??$?RU?$unconditional_branch_parser@U_break@lexyd@@U_pr8@lexy@@@lexy@@@<lambda_1>@?1???$parse@U?$_pc@V?$ws_handler@V?$_ph@U_pr8@lexy@@@lexy@@@_detail@lexy@@XU?$ws_production@U?$_chc@U_space@ascii@lexyd@@U?$_br@U_backslash@lexyd@@U_nl@2@@3@@lexyd@@@23@X@lexy@@U_pr8@2@AEAUloop_control_t@?1???$parse@U?$_pc@V?$ws_handler@V?$_ph@U_pr8@lexy@@@lexy@@@_detail@lexy@@XU?$ws_production@U?$_chc@U_space@ascii@lexyd@@U?$_br@U_backslash@lexyd@@U_nl@2@@3@@lexyd@@@23@X@lexy@@U_pr8@2@$$V@?$p@Ufinal_parser@_detail@lexy@@@?$_loop@U?$_chc@U_space@ascii@lexyd@@U?$_br@U_backslash@lexyd@@U_nl@2@@3@U_break@3@@lexyd@@@lexyd@@SA_NAEAU12@AEAU32@@Z@@?$p@U?$pattern_parser@Uloop_control_t@?1???$parse@U?$_pc@V?$ws_handler@V?$_ph@U_pr8@lexy@@@lexy@@@_detail@lexy@@XU?$ws_production@U?$_chc@U_space@ascii@lexyd@@U?$_br@U_backslash@lexyd@@U_nl@2@@3@@lexyd@@@23@X@lexy@@U_pr8@2@$$V@?$p@Ufinal_parser@_detail@lexy@@@?$_loop@U?$_chc@U_space@ascii@lexyd@@U?$_br@U_backslash@lexyd@@U_nl@2@@3@U_break@3@@lexyd@@@lexyd@@SA_NAEAU?$_pc@V?$ws_handler@V?$_ph@U_pr8@lexy@@@lexy@@@_detail@lexy@@XU?$ws_production@U?$_chc@U_space@ascii@lexyd@@U?$_br@U_backslash@lexyd@@U_nl@2@@3@@lexyd@@@23@X@lexy@@AEAU_pr8@6@@Z@@lexy@@@?$_chc@U_space@ascii@lexyd@@U?$_br@U_backslash@lexyd@@U_nl@2@@3@U_break@3@@lexyd@@SA_NAEAU?$_pc@V?$ws_handler@V?$_ph@U_pr8@lexy@@@lexy@@@_detail@lexy@@XU?$ws_production@U?$_chc@U_space@ascii@lexyd@@U?$_br@U_backslash@lexyd@@U_nl@2@@3@@lexyd@@@23@X@lexy@@AEAU_pr8@5@AEAUloop_control_t@?1???$parse@U?$_pc@V?$ws_handler@V?$_ph@U_pr8@lexy@@@lexy@@@_detail@lexy@@XU?$ws_production@U?$_chc@U_space@ascii@lexyd@@U?$_br@U_backslash@lexyd@@U_nl@2@@3@@lexyd@@@23@X@lexy@@U_pr8@2@$$V@?$p@Ufinal_parser@_detail@lexy@@@?$_loop@U?$_chc@U_space@ascii@lexyd@@U?$_br@U_backslash@lexyd@@U_nl@2@@3@U_break@3@@lexyd@@@3@SA_N01@Z@@Z@QEBA?A_P$$QEAU?$unconditional_branch_parser@U_break@lexyd@@U_pr8@lexy@@@5@@Z
	??$?RU_pr8@lexy@@@?$_as_string@V?$basic_string@DU?$char_traits@D@std@@V?$allocator@D@2@@std@@Udefault_encoding@lexy@@X@lexy@@QEBA?AV?$basic_string@DU?$char_traits@D@std@@V?$allocator@D@2@@std@@V?$lexeme@U_pr8@lexy@@@1@@Z
	??$?RU_pr8@lexy@@@_sink@?$_as_string@V?$basic_string@DU?$char_traits@D@std@@V?$allocator@D@2@@std@@Udefault_encoding@lexy@@X@lexy@@QEAAXV?$lexeme@U_pr8@lexy@@@2@@Z
	??$?RUminus_sign@lexy@@@void_value_callback@_detail@lexy@@QEBAX$$QEAUminus_sign@2@@Z
	??$?RUminus_sign@lexy@@AEA_J@?$production_value_callback@Uinteger@Integer@Grammar@BT@@X@lexy@@QEBA_J$$QEAUminus_sign@1@AEA_J@Z
	??$?RUminus_sign@lexy@@U01@@void_value_callback@_detail@lexy@@QEBAX$$QEAUminus_sign@2@0@Z
	??$?RUminus_sign@lexy@@Uplus_sign@1@@void_value_callback@_detail@lexy@@QEBAX$$QEAUminus_sign@2@$$QEAUplus_sign@2@@Z
	??$?RUnullopt@lexy@@@?$production_value_callback@Ustmt@Grammar@BT@@X@lexy@@QEBA?AV?$vector@V?$shared_ptr@UExprBase@Ast@BT@@@std@@V?$allocator@V?$shared_ptr@UExprBase@Ast@BT@@@std@@@2@@std@@$$QEAUnullopt@1@@Z
	??$?RUplus_sign@lexy@@@void_value_callback@_detail@lexy@@QEBAX$$QEAUplus_sign@2@@Z
	??$?RUplus_sign@lexy@@AEA_J@?$production_value_callback@Uinteger@Integer@Grammar@BT@@X@lexy@@QEBA_J$$QEAUplus_sign@1@AEA_J@Z
	??$?RUplus_sign@lexy@@U01@@void_value_callback@_detail@lexy@@QEBAX$$QEAUplus_sign@2@0@Z
	??$?RUplus_sign@lexy@@Uminus_sign@1@@void_value_callback@_detail@lexy@@QEBAX$$QEAUplus_sign@2@$$QEAUminus_sign@2@@Z
	??$?RUstmt@Grammar@BT@@@?$parse_action@XV?$string_input@Uutf8_encoding@lexy@@@lexy@@U?$_report_error@PEAD@lexy_ext@@@lexy@@QEBA?A_PUstmt@Grammar@BT@@AEBV?$string_input@Uutf8_encoding@lexy@@@1@@Z
	??$?RV?$basic_string@DU?$char_traits@D@std@@V?$allocator@D@2@@std@@@?$_Uhash_compare@V?$basic_string@DU?$char_traits@D@std@@V?$allocator@D@2@@std@@U?$hash@V?$basic_string@DU?$char_traits@D@std@@V?$allocator@D@2@@std@@@2@U?$equal_to@V?$basic_string@DU?$char_traits@D@std@@V?$allocator@D@2@@std@@@2@@std@@QEBA_KAEBV?$basic_string@DU?$char_traits@D@std@@V?$allocator@D@2@@1@@Z
	??$?RV?$basic_string@DU?$char_traits@D@std@@V?$allocator@D@2@@std@@@?$_construct@VAny@BT@@@lexy@@QEBA?AVAny@BT@@$$QEAV?$basic_string@DU?$char_traits@D@std@@V?$allocator@D@2@@std@@@Z
	??$?RV?$basic_string@DU?$char_traits@D@std@@V?$allocator@D@2@@std@@@?$_new@UExprName@Ast@BT@@V?$shared_ptr@UExprBase@Ast@BT@@@std@@@lexy@@QEBA?AV?$shared_ptr@UExprBase@Ast@BT@@@std@@$$QEAV?$basic_string@DU?$char_traits@D@std@@V?$allocator@D@2@@3@@Z
	??$?RV?$basic_string@DU?$char_traits@D@std@@V?$allocator@D@2@@std@@@?$production_value_callback@UAnyValue@Grammar@BT@@X@lexy@@QEBA?AVAny@BT@@$$QEAV?$basic_string@DU?$char_traits@D@std@@V?$allocator@D@2@@std@@@Z
	??$?RV?$basic_string@DU?$char_traits@D@std@@V?$allocator@D@2@@std@@@?$production_value_callback@UExpression@Grammar@BT@@X@lexy@@QEBA?AV?$shared_ptr@UExprBase@Ast@BT@@@std@@$$QEAV?$basic_string@DU?$char_traits@D@std@@V?$allocator@D@2@@3@@Z
	??$?RV?$basic_string@DU?$char_traits@D@std@@V?$allocator@D@2@@std@@@?$production_value_callback@UStringLiteral@Grammar@BT@@X@lexy@@QEBA?AV?$basic_string@DU?$char_traits@D@std@@V?$allocator@D@2@@std@@$$QEAV23@@Z
	??$?RV?$basic_string@DU?$char_traits@D@std@@V?$allocator@D@2@@std@@V01@@?$_Uhash_compare@V?$basic_string@DU?$char_traits@D@std@@V?$allocator@D@2@@std@@U?$hash@V?$basic_string@DU?$char_traits@D@std@@V?$allocator@D@2@@std@@@2@U?$equal_to@V?$basic_string@DU?$char_traits@D@std@@V?$allocator@D@2@@std@@@2@@std@@QEBA_NAEBV?$basic_string@DU?$char_traits@D@std@@V?$allocator@D@2@@1@0@Z
	??$?RV?$lexeme@U_pr8@lexy@@@lexy@@@?$_sfinae_sink@UStringLiteral@Grammar@BT@@U_sink@?$_as_string@V?$basic_string@DU?$char_traits@D@std@@V?$allocator@D@2@@std@@Udefault_encoding@lexy@@X@lexy@@@lexy@@QEAAX$$QEAV?$lexeme@U_pr8@lexy@@@1@@Z
	??$?RV?$lexeme@U_pr8@lexy@@@lexy@@@?$production_value_callback@UName@Grammar@BT@@X@lexy@@QEBA?AV?$basic_string@DU?$char_traits@D@std@@V?$allocator@D@2@@std@@$$QEAV?$lexeme@U_pr8@lexy@@@1@@Z
	??$?RV?$lexeme@U_pr8@lexy@@@lexy@@@?$production_value_callback@UReal@Grammar@BT@@X@lexy@@QEBA?AVAny@BT@@$$QEAV?$lexeme@U_pr8@lexy@@@1@@Z
	??$?RV?$shared_ptr@UExprBase@Ast@BT@@@std@@@?$_sfinae_sink@Ustmt@Grammar@BT@@U?$_list_sink@V?$vector@V?$shared_ptr@UExprBase@Ast@BT@@@std@@V?$allocator@V?$shared_ptr@UExprBase@Ast@BT@@@std@@@2@@std@@@lexy@@@lexy@@QEAAX$$QEAV?$shared_ptr@UExprBase@Ast@BT@@@std@@@Z
	??$?RV?$shared_ptr@UExprBase@Ast@BT@@@std@@@?$production_value_callback@UExpression@Grammar@BT@@X@lexy@@QEBA?AV?$shared_ptr@UExprBase@Ast@BT@@@std@@$$QEAV23@@Z
	??$?RV?$shared_ptr@UExprBase@Ast@BT@@@std@@@?$production_value_callback@Unested_expr@Grammar@BT@@X@lexy@@QEBA?AV?$shared_ptr@UExprBase@Ast@BT@@@std@@$$QEAV23@@Z
	??$?RV?$shared_ptr@UExprBase@Ast@BT@@@std@@U?$_opv@W4op_t@ExprAssignment@Ast@BT@@$00@lexy@@V01@@?$_new@UExprAssignment@Ast@BT@@V?$shared_ptr@UExprBase@Ast@BT@@@std@@@lexy@@QEBA?AV?$shared_ptr@UExprBase@Ast@BT@@@std@@$$QEAV23@$$QEAU?$_opv@W4op_t@ExprAssignment@Ast@BT@@$00@1@0@Z
	??$?RV?$shared_ptr@UExprBase@Ast@BT@@@std@@U?$_opv@W4op_t@ExprAssignment@Ast@BT@@$00@lexy@@V01@@?$production_value_callback@UExpression@Grammar@BT@@X@lexy@@QEBA?AV?$shared_ptr@UExprBase@Ast@BT@@@std@@$$QEAV23@$$QEAU?$_opv@W4op_t@ExprAssignment@Ast@BT@@$00@1@0@Z
	??$?RV?$shared_ptr@UExprBase@Ast@BT@@@std@@U?$_opv@W4op_t@ExprAssignment@Ast@BT@@$01@lexy@@V01@@?$_new@UExprAssignment@Ast@BT@@V?$shared_ptr@UExprBase@Ast@BT@@@std@@@lexy@@QEBA?AV?$shared_ptr@UExprBase@Ast@BT@@@std@@$$QEAV23@$$QEAU?$_opv@W4op_t@ExprAssignment@Ast@BT@@$01@1@0@Z
	??$?RV?$shared_ptr@UExprBase@Ast@BT@@@std@@U?$_opv@W4op_t@ExprAssignment@Ast@BT@@$01@lexy@@V01@@?$production_value_callback@UExpression@Grammar@BT@@X@lexy@@QEBA?AV?$shared_ptr@UExprBase@Ast@BT@@@std@@$$QEAV23@$$QEAU?$_opv@W4op_t@ExprAssignment@Ast@BT@@$01@1@0@Z
	??$?RV?$shared_ptr@UExprBase@Ast@BT@@@std@@U?$_opv@W4op_t@ExprAssignment@Ast@BT@@$02@lexy@@V01@@?$_new@UExprAssignment@Ast@BT@@V?$shared_ptr@UExprBase@Ast@BT@@@std@@@lexy@@QEBA?AV?$shared_ptr@UExprBase@Ast@BT@@@std@@$$QEAV23@$$QEAU?$_opv@W4op_t@ExprAssignment@Ast@BT@@$02@1@0@Z
	??$?RV?$shared_ptr@UExprBase@Ast@BT@@@std@@U?$_opv@W4op_t@ExprAssignment@Ast@BT@@$02@lexy@@V01@@?$production_value_callback@UExpression@Grammar@BT@@X@lexy@@QEBA?AV?$shared_ptr@UExprBase@Ast@BT@@@std@@$$QEAV23@$$QEAU?$_opv@W4op_t@ExprAssignment@Ast@BT@@$02@1@0@Z
	??$?RV?$shared_ptr@UExprBase@Ast@BT@@@std@@U?$_opv@W4op_t@ExprAssignment@Ast@BT@@$03@lexy@@V01@@?$_new@UExprAssignment@Ast@BT@@V?$shared_ptr@UExprBase@Ast@BT@@@std@@@lexy@@QEBA?AV?$shared_ptr@UExprBase@Ast@BT@@@std@@$$QEAV23@$$QEAU?$_opv@W4op_t@ExprAssignment@Ast@BT@@$03@1@0@Z
	??$?RV?$shared_ptr@UExprBase@Ast@BT@@@std@@U?$_opv@W4op_t@ExprAssignment@Ast@BT@@$03@lexy@@V01@@?$production_value_callback@UExpression@Grammar@BT@@X@lexy@@QEBA?AV?$shared_ptr@UExprBase@Ast@BT@@@std@@$$QEAV23@$$QEAU?$_opv@W4op_t@ExprAssignment@Ast@BT@@$03@1@0@Z
	??$?RV?$shared_ptr@UExprBase@Ast@BT@@@std@@U?$_opv@W4op_t@ExprAssignment@Ast@BT@@$04@lexy@@V01@@?$_new@UExprAssignment@Ast@BT@@V?$shared_ptr@UExprBase@Ast@BT@@@std@@@lexy@@QEBA?AV?$shared_ptr@UExprBase@Ast@BT@@@std@@$$QEAV23@$$QEAU?$_opv@W4op_t@ExprAssignment@Ast@BT@@$04@1@0@Z
	??$?RV?$shared_ptr@UExprBase@Ast@BT@@@std@@U?$_opv@W4op_t@ExprAssignment@Ast@BT@@$04@lexy@@V01@@?$production_value_callback@UExpression@Grammar@BT@@X@lexy@@QEBA?AV?$shared_ptr@UExprBase@Ast@BT@@@std@@$$QEAV23@$$QEAU?$_opv@W4op_t@ExprAssignment@Ast@BT@@$04@1@0@Z
	??$?RV?$shared_ptr@UExprBase@Ast@BT@@@std@@U?$_opv@W4op_t@ExprAssignment@Ast@BT@@$0A@@lexy@@V01@@?$_new@UExprAssignment@Ast@BT@@V?$shared_ptr@UExprBase@Ast@BT@@@std@@@lexy@@QEBA?AV?$shared_ptr@UExprBase@Ast@BT@@@std@@$$QEAV23@$$QEAU?$_opv@W4op_t@ExprAssignment@Ast@BT@@$0A@@1@0@Z
	??$?RV?$shared_ptr@UExprBase@Ast@BT@@@std@@U?$_opv@W4op_t@ExprAssignment@Ast@BT@@$0A@@lexy@@V01@@?$production_value_callback@UExpression@Grammar@BT@@X@lexy@@QEBA?AV?$shared_ptr@UExprBase@Ast@BT@@@std@@$$QEAV23@$$QEAU?$_opv@W4op_t@ExprAssignment@Ast@BT@@$0A@@1@0@Z
	??$?RV?$shared_ptr@UExprBase@Ast@BT@@@std@@U?$_opv@W4op_t@ExprBinaryArithmetic@Ast@BT@@$00@lexy@@V01@@?$_new@UExprBinaryArithmetic@Ast@BT@@V?$shared_ptr@UExprBase@Ast@BT@@@std@@@lexy@@QEBA?AV?$shared_ptr@UExprBase@Ast@BT@@@std@@$$QEAV23@$$QEAU?$_opv@W4op_t@ExprBinaryArithmetic@Ast@BT@@$00@1@0@Z
	??$?RV?$shared_ptr@UExprBase@Ast@BT@@@std@@U?$_opv@W4op_t@ExprBinaryArithmetic@Ast@BT@@$00@lexy@@V01@@?$production_value_callback@UExpression@Grammar@BT@@X@lexy@@QEBA?AV?$shared_ptr@UExprBase@Ast@BT@@@std@@$$QEAV23@$$QEAU?$_opv@W4op_t@ExprBinaryArithmetic@Ast@BT@@$00@1@0@Z
	??$?RV?$shared_ptr@UExprBase@Ast@BT@@@std@@U?$_opv@W4op_t@ExprBinaryArithmetic@Ast@BT@@$01@lexy@@V01@@?$_new@UExprBinaryArithmetic@Ast@BT@@V?$shared_ptr@UExprBase@Ast@BT@@@std@@@lexy@@QEBA?AV?$shared_ptr@UExprBase@Ast@BT@@@std@@$$QEAV23@$$QEAU?$_opv@W4op_t@ExprBinaryArithmetic@Ast@BT@@$01@1@0@Z
	??$?RV?$shared_ptr@UExprBase@Ast@BT@@@std@@U?$_opv@W4op_t@ExprBinaryArithmetic@Ast@BT@@$01@lexy@@V01@@?$production_value_callback@UExpression@Grammar@BT@@X@lexy@@QEBA?AV?$shared_ptr@UExprBase@Ast@BT@@@std@@$$QEAV23@$$QEAU?$_opv@W4op_t@ExprBinaryArithmetic@Ast@BT@@$01@1@0@Z
	??$?RV?$shared_ptr@UExprBase@Ast@BT@@@std@@U?$_opv@W4op_t@ExprBinaryArithmetic@Ast@BT@@$02@lexy@@V01@@?$_new@UExprBinaryArithmetic@Ast@BT@@V?$shared_ptr@UExprBase@Ast@BT@@@std@@@lexy@@QEBA?AV?$shared_ptr@UExprBase@Ast@BT@@@std@@$$QEAV23@$$QEAU?$_opv@W4op_t@ExprBinaryArithmetic@Ast@BT@@$02@1@0@Z
	??$?RV?$shared_ptr@UExprBase@Ast@BT@@@std@@U?$_opv@W4op_t@ExprBinaryArithmetic@Ast@BT@@$02@lexy@@V01@@?$production_value_callback@UExpression@Grammar@BT@@X@lexy@@QEBA?AV?$shared_ptr@UExprBase@Ast@BT@@@std@@$$QEAV23@$$QEAU?$_opv@W4op_t@ExprBinaryArithmetic@Ast@BT@@$02@1@0@Z
	??$?RV?$shared_ptr@UExprBase@Ast@BT@@@std@@U?$_opv@W4op_t@ExprBinaryArithmetic@Ast@BT@@$03@lexy@@V01@@?$_new@UExprBinaryArithmetic@Ast@BT@@V?$shared_ptr@UExprBase@Ast@BT@@@std@@@lexy@@QEBA?AV?$shared_ptr@UExprBase@Ast@BT@@@std@@$$QEAV23@$$QEAU?$_opv@W4op_t@ExprBinaryArithmetic@Ast@BT@@$03@1@0@Z
	??$?RV?$shared_ptr@UExprBase@Ast@BT@@@std@@U?$_opv@W4op_t@ExprBinaryArithmetic@Ast@BT@@$03@lexy@@V01@@?$production_value_callback@UExpression@Grammar@BT@@X@lexy@@QEBA?AV?$shared_ptr@UExprBase@Ast@BT@@@std@@$$QEAV23@$$QEAU?$_opv@W4op_t@ExprBinaryArithmetic@Ast@BT@@$03@1@0@Z
	??$?RV?$shared_ptr@UExprBase@Ast@BT@@@std@@U?$_opv@W4op_t@ExprBinaryArithmetic@Ast@BT@@$04@lexy@@V01@@?$_new@UExprBinaryArithmetic@Ast@BT@@V?$shared_ptr@UExprBase@Ast@BT@@@std@@@lexy@@QEBA?AV?$shared_ptr@UExprBase@Ast@BT@@@std@@$$QEAV23@$$QEAU?$_opv@W4op_t@ExprBinaryArithmetic@Ast@BT@@$04@1@0@Z
	??$?RV?$shared_ptr@UExprBase@Ast@BT@@@std@@U?$_opv@W4op_t@ExprBinaryArithmetic@Ast@BT@@$04@lexy@@V01@@?$production_value_callback@UExpression@Grammar@BT@@X@lexy@@QEBA?AV?$shared_ptr@UExprBase@Ast@BT@@@std@@$$QEAV23@$$QEAU?$_opv@W4op_t@ExprBinaryArithmetic@Ast@BT@@$04@1@0@Z
	??$?RV?$shared_ptr@UExprBase@Ast@BT@@@std@@U?$_opv@W4op_t@ExprBinaryArithmetic@Ast@BT@@$05@lexy@@V01@@?$_new@UExprBinaryArithmetic@Ast@BT@@V?$shared_ptr@UExprBase@Ast@BT@@@std@@@lexy@@QEBA?AV?$shared_ptr@UExprBase@Ast@BT@@@std@@$$QEAV23@$$QEAU?$_opv@W4op_t@ExprBinaryArithmetic@Ast@BT@@$05@1@0@Z
	??$?RV?$shared_ptr@UExprBase@Ast@BT@@@std@@U?$_opv@W4op_t@ExprBinaryArithmetic@Ast@BT@@$05@lexy@@V01@@?$production_value_callback@UExpression@Grammar@BT@@X@lexy@@QEBA?AV?$shared_ptr@UExprBase@Ast@BT@@@std@@$$QEAV23@$$QEAU?$_opv@W4op_t@ExprBinaryArithmetic@Ast@BT@@$05@1@0@Z
	??$?RV?$shared_ptr@UExprBase@Ast@BT@@@std@@U?$_opv@W4op_t@ExprBinaryArithmetic@Ast@BT@@$06@lexy@@V01@@?$_new@UExprBinaryArithmetic@Ast@BT@@V?$shared_ptr@UExprBase@Ast@BT@@@std@@@lexy@@QEBA?AV?$shared_ptr@UExprBase@Ast@BT@@@std@@$$QEAV23@$$QEAU?$_opv@W4op_t@ExprBinaryArithmetic@Ast@BT@@$06@1@0@Z
	??$?RV?$shared_ptr@UExprBase@Ast@BT@@@std@@U?$_opv@W4op_t@ExprBinaryArithmetic@Ast@BT@@$06@lexy@@V01@@?$production_value_callback@UExpression@Grammar@BT@@X@lexy@@QEBA?AV?$shared_ptr@UExprBase@Ast@BT@@@std@@$$QEAV23@$$QEAU?$_opv@W4op_t@ExprBinaryArithmetic@Ast@BT@@$06@1@0@Z
	??$?RV?$shared_ptr@UExprBase@Ast@BT@@@std@@U?$_opv@W4op_t@ExprBinaryArithmetic@Ast@BT@@$07@lexy@@V01@@?$_new@UExprBinaryArithmetic@Ast@BT@@V?$shared_ptr@UExprBase@Ast@BT@@@std@@@lexy@@QEBA?AV?$shared_ptr@UExprBase@Ast@BT@@@std@@$$QEAV23@$$QEAU?$_opv@W4op_t@ExprBinaryArithmetic@Ast@BT@@$07@1@0@Z
	??$?RV?$shared_ptr@UExprBase@Ast@BT@@@std@@U?$_opv@W4op_t@ExprBinaryArithmetic@Ast@BT@@$07@lexy@@V01@@?$production_value_callback@UExpression@Grammar@BT@@X@lexy@@QEBA?AV?$shared_ptr@UExprBase@Ast@BT@@@std@@$$QEAV23@$$QEAU?$_opv@W4op_t@ExprBinaryArithmetic@Ast@BT@@$07@1@0@Z
	??$?RV?$shared_ptr@UExprBase@Ast@BT@@@std@@U?$_opv@W4op_t@ExprBinaryArithmetic@Ast@BT@@$0A@@lexy@@V01@@?$_new@UExprBinaryArithmetic@Ast@BT@@V?$shared_ptr@UExprBase@Ast@BT@@@std@@@lexy@@QEBA?AV?$shared_ptr@UExprBase@Ast@BT@@@std@@$$QEAV23@$$QEAU?$_opv@W4op_t@ExprBinaryArithmetic@Ast@BT@@$0A@@1@0@Z
	??$?RV?$shared_ptr@UExprBase@Ast@BT@@@std@@U?$_opv@W4op_t@ExprBinaryArithmetic@Ast@BT@@$0A@@lexy@@V01@@?$production_value_callback@UExpression@Grammar@BT@@X@lexy@@QEBA?AV?$shared_ptr@UExprBase@Ast@BT@@@std@@$$QEAV23@$$QEAU?$_opv@W4op_t@ExprBinaryArithmetic@Ast@BT@@$0A@@1@0@Z
	??$?RV?$shared_ptr@UExprBase@Ast@BT@@@std@@V01@V01@@?$_new@UExprIf@Ast@BT@@V?$shared_ptr@UExprBase@Ast@BT@@@std@@@lexy@@QEBA?AV?$shared_ptr@UExprBase@Ast@BT@@@std@@$$QEAV23@00@Z
	??$?RV?$shared_ptr@UExprBase@Ast@BT@@@std@@V01@V01@@?$production_value_callback@UExpression@Grammar@BT@@X@lexy@@QEBA?AV?$shared_ptr@UExprBase@Ast@BT@@@std@@$$QEAV23@00@Z
	??$?RV?$string_input@Uutf8_encoding@lexy@@@lexy@@U_pr8@1@Uexpected_char_class@1@@_sink@?$_report_error@PEAD@lexy_ext@@QEAAXAEBV?$error_context@V?$string_input@Uutf8_encoding@lexy@@@lexy@@@lexy@@AEBV?$error@U_pr8@lexy@@Uexpected_char_class@2@@4@@Z
	??$?RV?$string_input@Uutf8_encoding@lexy@@@lexy@@U_pr8@1@Uexpected_keyword@1@@_sink@?$_report_error@PEAD@lexy_ext@@QEAAXAEBV?$error_context@V?$string_input@Uutf8_encoding@lexy@@@lexy@@@lexy@@AEBV?$error@U_pr8@lexy@@Uexpected_keyword@2@@4@@Z
	??$?RV?$string_input@Uutf8_encoding@lexy@@@lexy@@U_pr8@1@Uexpected_literal@1@@_sink@?$_report_error@PEAD@lexy_ext@@QEAAXAEBV?$error_context@V?$string_input@Uutf8_encoding@lexy@@@lexy@@@lexy@@AEBV?$error@U_pr8@lexy@@Uexpected_literal@2@@4@@Z
	??$?RV?$string_input@Uutf8_encoding@lexy@@@lexy@@U_pr8@1@X@_sink@?$_report_error@PEAD@lexy_ext@@QEAAXAEBV?$error_context@V?$string_input@Uutf8_encoding@lexy@@@lexy@@@lexy@@AEBV?$error@U_pr8@lexy@@X@4@@Z
	??$?RV?$vector@V?$shared_ptr@UExprBase@Ast@BT@@@std@@V?$allocator@V?$shared_ptr@UExprBase@Ast@BT@@@std@@@2@@std@@@?$production_value_callback@Ustmt@Grammar@BT@@X@lexy@@QEBA?AV?$vector@V?$shared_ptr@UExprBase@Ast@BT@@@std@@V?$allocator@V?$shared_ptr@UExprBase@Ast@BT@@@std@@@2@@std@@$$QEAV23@@Z
	??$?RV?$vector@V?$shared_ptr@UExprBase@Ast@BT@@@std@@V?$allocator@V?$shared_ptr@UExprBase@Ast@BT@@@std@@@2@@std@@V?$shared_ptr@UExprBase@Ast@BT@@@1@@?$_list_sink@V?$vector@V?$shared_ptr@UExprBase@Ast@BT@@@std@@V?$allocator@V?$shared_ptr@UExprBase@Ast@BT@@@std@@@2@@std@@@lexy@@QEAAX$$QEAV?$shared_ptr@UExprBase@Ast@BT@@@std@@@Z
	??$?RVAny@BT@@@?$_new@UExprLiteral@Ast@BT@@V?$shared_ptr@UExprBase@Ast@BT@@@std@@@lexy@@QEBA?AV?$shared_ptr@UExprBase@Ast@BT@@@std@@$$QEAVAny@BT@@@Z
	??$?RVAny@BT@@@?$production_value_callback@UAnyValue@Grammar@BT@@X@lexy@@QEBA?AVAny@BT@@$$QEAV23@@Z
	??$?RVAny@BT@@@?$production_value_callback@UExpression@Grammar@BT@@X@lexy@@QEBA?AV?$shared_ptr@UExprBase@Ast@BT@@@std@@$$QEAVAny@BT@@@Z
	??$?RVSimpleString@SafeAny@@V01@@<lambda_1>@?1??evaluate@ExprComparison@Ast@BT@@UEBA?AVAny@4@AEAUEnvironment@34@@Z@QEBA?A_PAEBVSimpleString@SafeAny@@1W4op_t@234@@Z
	??$?R_J@?$_construct@VAny@BT@@@lexy@@QEBA?AVAny@BT@@$$QEA_J@Z
	??$?R_J@?$_int@_J@lexy@@QEBA_JAEB_J@Z
	??$?R_J@?$_int@_J@lexy@@QEBA_JUminus_sign@1@AEB_J@Z
	??$?R_J@?$_int@_J@lexy@@QEBA_JUplus_sign@1@AEB_J@Z
	??$?R_J@?$production_value_callback@UAnyValue@Grammar@BT@@X@lexy@@QEBA?AVAny@BT@@$$QEA_J@Z
	??$?R_J@?$production_value_callback@UInteger@Grammar@BT@@X@lexy@@QEBA_J$$QEA_J@Z
	??$?R_Q@<lambda_1>@?1???$find_cp_boundary@Uutf8_encoding@lexy@@PEB_Q@_detail@lexy@@YAPEB_QPEB_Q0@Z@QEBA?A_P_Q@Z
	??$?YV?$basic_string_view@DU?$char_traits@D@std@@@std@@$0A@@?$basic_string@DU?$char_traits@D@std@@V?$allocator@D@2@@std@@QEAAAEAV01@AEBV?$basic_string_view@DU?$char_traits@D@std@@@1@@Z
	??$?__MDU?$char_traits@D@std@@@std@@YA?AUstrong_ordering@0@V?$basic_string_view@DU?$char_traits@D@std@@@0@0@Z
	??$?__MDU?$char_traits@D@std@@V?$allocator@D@1@@std@@YA?AUstrong_ordering@0@AEBV?$basic_string@DU?$char_traits@D@std@@V?$allocator@D@2@@0@0@Z
	??$?__MNU?$ratio@$00$00@std@@_JU?$ratio@$00$0DLJKMKAA@@1@@chrono@std@@YA?A_PAEBV?$duration@NU?$ratio@$00$00@std@@@01@AEBV?$duration@_JU?$ratio@$00$0DLJKMKAA@@std@@@01@@Z
	??$?__MUsteady_clock@chrono@std@@V?$duration@_JU?$ratio@$00$0DLJKMKAA@@std@@@12@V312@@chrono@std@@YA?A_PAEBV?$time_point@Usteady_clock@chrono@std@@V?$duration@_JU?$ratio@$00$0DLJKMKAA@@std@@@23@@01@0@Z
	??$?__M_JU?$ratio@$00$0DLJKMKAA@@std@@_JU01@@chrono@std@@YA?A_PAEBV?$duration@_JU?$ratio@$00$0DLJKMKAA@@std@@@01@0@Z
	??$?__M_JU?$ratio@$00$0JIJGIA@@std@@_JU01@@chrono@std@@YA?A_PAEBV?$duration@_JU?$ratio@$00$0JIJGIA@@std@@@01@0@Z
	??$?__M_JU?$ratio@$00$0PECEA@@std@@_JU01@@chrono@std@@YA?A_PAEBV?$duration@_JU?$ratio@$00$0PECEA@@std@@@01@0@Z
	??$AddElement@C@FlatBufferBuilder@flatbuffers@@QEAAXGCC@Z
	??$AddElement@G@FlatBufferBuilder@flatbuffers@@QEAAXGGG@Z
	??$AddElement@I@FlatBufferBuilder@flatbuffers@@QEAAXGII@Z
	??$AddOffset@UString@flatbuffers@@@FlatBufferBuilder@flatbuffers@@QEAAXGU?$Offset@UString@flatbuffers@@@1@@Z
	??$AddOffset@V?$Vector@G@flatbuffers@@@FlatBufferBuilder@flatbuffers@@QEAAXGU?$Offset@V?$Vector@G@flatbuffers@@@1@@Z
	??$AddOffset@V?$Vector@U?$Offset@UNodeModel@Serialization@@@flatbuffers@@@flatbuffers@@@FlatBufferBuilder@flatbuffers@@QEAAXGU?$Offset@V?$Vector@U?$Offset@UNodeModel@Serialization@@@flatbuffers@@@flatbuffers@@@1@@Z
	??$AddOffset@V?$Vector@U?$Offset@UPortConfig@Serialization@@@flatbuffers@@@flatbuffers@@@FlatBufferBuilder@flatbuffers@@QEAAXGU?$Offset@V?$Vector@U?$Offset@UPortConfig@Serialization@@@flatbuffers@@@flatbuffers@@@1@@Z
	??$AddOffset@V?$Vector@U?$Offset@UPortModel@Serialization@@@flatbuffers@@@flatbuffers@@@FlatBufferBuilder@flatbuffers@@QEAAXGU?$Offset@V?$Vector@U?$Offset@UPortModel@Serialization@@@flatbuffers@@@flatbuffers@@@1@@Z
	??$AddOffset@V?$Vector@U?$Offset@UTreeNode@Serialization@@@flatbuffers@@@flatbuffers@@@FlatBufferBuilder@flatbuffers@@QEAAXGU?$Offset@V?$Vector@U?$Offset@UTreeNode@Serialization@@@flatbuffers@@@flatbuffers@@@1@@Z
	??$AlignOf@_K@flatbuffers@@YA_KXZ
	??$AssertScalarT@C@FlatBufferBuilder@flatbuffers@@QEAAXXZ
	??$AssertScalarT@G@FlatBufferBuilder@flatbuffers@@QEAAXXZ
	??$AssertScalarT@H@FlatBufferBuilder@flatbuffers@@QEAAXXZ
	??$AssertScalarT@I@FlatBufferBuilder@flatbuffers@@QEAAXXZ
	??$BidirectionalPort@X@BT@@YA?AU?$pair@V?$basic_string@DU?$char_traits@D@std@@V?$allocator@D@2@@std@@VPortInfo@BT@@@std@@V?$basic_string_view@DU?$char_traits@D@std@@@2@0@Z
	??$CreateBuilder@V?$SwitchNode@$01@BT@@$$V@BT@@YA?AV?$function@$$A6A?AV?$unique_ptr@VTreeNode@BT@@U?$default_delete@VTreeNode@BT@@@std@@@std@@AEBV?$basic_string@DU?$char_traits@D@std@@V?$allocator@D@2@@2@AEBUNodeConfig@BT@@@Z@std@@XZ
	??$CreateBuilder@V?$SwitchNode@$02@BT@@$$V@BT@@YA?AV?$function@$$A6A?AV?$unique_ptr@VTreeNode@BT@@U?$default_delete@VTreeNode@BT@@@std@@@std@@AEBV?$basic_string@DU?$char_traits@D@std@@V?$allocator@D@2@@2@AEBUNodeConfig@BT@@@Z@std@@XZ
	??$CreateBuilder@V?$SwitchNode@$03@BT@@$$V@BT@@YA?AV?$function@$$A6A?AV?$unique_ptr@VTreeNode@BT@@U?$default_delete@VTreeNode@BT@@@std@@@std@@AEBV?$basic_string@DU?$char_traits@D@std@@V?$allocator@D@2@@2@AEBUNodeConfig@BT@@@Z@std@@XZ
	??$CreateBuilder@V?$SwitchNode@$04@BT@@$$V@BT@@YA?AV?$function@$$A6A?AV?$unique_ptr@VTreeNode@BT@@U?$default_delete@VTreeNode@BT@@@std@@@std@@AEBV?$basic_string@DU?$char_traits@D@std@@V?$allocator@D@2@@2@AEBUNodeConfig@BT@@@Z@std@@XZ
	??$CreateBuilder@V?$SwitchNode@$05@BT@@$$V@BT@@YA?AV?$function@$$A6A?AV?$unique_ptr@VTreeNode@BT@@U?$default_delete@VTreeNode@BT@@@std@@@std@@AEBV?$basic_string@DU?$char_traits@D@std@@V?$allocator@D@2@@2@AEBUNodeConfig@BT@@@Z@std@@XZ
	??$CreateBuilder@V?$TimeoutNode@Usteady_clock@chrono@std@@V?$duration@_JU?$ratio@$00$0DLJKMKAA@@std@@@23@@BT@@$$V@BT@@YA?AV?$function@$$A6A?AV?$unique_ptr@VTreeNode@BT@@U?$default_delete@VTreeNode@BT@@@std@@@std@@AEBV?$basic_string@DU?$char_traits@D@std@@V?$allocator@D@2@@2@AEBUNodeConfig@BT@@@Z@std@@XZ
	??$CreateBuilder@VAlwaysFailureNode@BT@@$$V@BT@@YA?AV?$function@$$A6A?AV?$unique_ptr@VTreeNode@BT@@U?$default_delete@VTreeNode@BT@@@std@@@std@@AEBV?$basic_string@DU?$char_traits@D@std@@V?$allocator@D@2@@2@AEBUNodeConfig@BT@@@Z@std@@XZ
	??$CreateBuilder@VAlwaysSuccessNode@BT@@$$V@BT@@YA?AV?$function@$$A6A?AV?$unique_ptr@VTreeNode@BT@@U?$default_delete@VTreeNode@BT@@@std@@@std@@AEBV?$basic_string@DU?$char_traits@D@std@@V?$allocator@D@2@@2@AEBUNodeConfig@BT@@@Z@std@@XZ
	??$CreateBuilder@VDelayNode@BT@@$$V@BT@@YA?AV?$function@$$A6A?AV?$unique_ptr@VTreeNode@BT@@U?$default_delete@VTreeNode@BT@@@std@@@std@@AEBV?$basic_string@DU?$char_traits@D@std@@V?$allocator@D@2@@2@AEBUNodeConfig@BT@@@Z@std@@XZ
	??$CreateBuilder@VFallbackNode@BT@@$$V@BT@@YA?AV?$function@$$A6A?AV?$unique_ptr@VTreeNode@BT@@U?$default_delete@VTreeNode@BT@@@std@@@std@@AEBV?$basic_string@DU?$char_traits@D@std@@V?$allocator@D@2@@2@AEBUNodeConfig@BT@@@Z@std@@XZ
	??$CreateBuilder@VForceFailureNode@BT@@$$V@BT@@YA?AV?$function@$$A6A?AV?$unique_ptr@VTreeNode@BT@@U?$default_delete@VTreeNode@BT@@@std@@@std@@AEBV?$basic_string@DU?$char_traits@D@std@@V?$allocator@D@2@@2@AEBUNodeConfig@BT@@@Z@std@@XZ
	??$CreateBuilder@VForceSuccessNode@BT@@$$V@BT@@YA?AV?$function@$$A6A?AV?$unique_ptr@VTreeNode@BT@@U?$default_delete@VTreeNode@BT@@@std@@@std@@AEBV?$basic_string@DU?$char_traits@D@std@@V?$allocator@D@2@@2@AEBUNodeConfig@BT@@@Z@std@@XZ
	??$CreateBuilder@VIfThenElseNode@BT@@$$V@BT@@YA?AV?$function@$$A6A?AV?$unique_ptr@VTreeNode@BT@@U?$default_delete@VTreeNode@BT@@@std@@@std@@AEBV?$basic_string@DU?$char_traits@D@std@@V?$allocator@D@2@@2@AEBUNodeConfig@BT@@@Z@std@@XZ
	??$CreateBuilder@VInverterNode@BT@@$$V@BT@@YA?AV?$function@$$A6A?AV?$unique_ptr@VTreeNode@BT@@U?$default_delete@VTreeNode@BT@@@std@@@std@@AEBV?$basic_string@DU?$char_traits@D@std@@V?$allocator@D@2@@2@AEBUNodeConfig@BT@@@Z@std@@XZ
	??$CreateBuilder@VKeepRunningUntilFailureNode@BT@@$$V@BT@@YA?AV?$function@$$A6A?AV?$unique_ptr@VTreeNode@BT@@U?$default_delete@VTreeNode@BT@@@std@@@std@@AEBV?$basic_string@DU?$char_traits@D@std@@V?$allocator@D@2@@2@AEBUNodeConfig@BT@@@Z@std@@XZ
	??$CreateBuilder@VParallelNode@BT@@$$V@BT@@YA?AV?$function@$$A6A?AV?$unique_ptr@VTreeNode@BT@@U?$default_delete@VTreeNode@BT@@@std@@@std@@AEBV?$basic_string@DU?$char_traits@D@std@@V?$allocator@D@2@@2@AEBUNodeConfig@BT@@@Z@std@@XZ
	??$CreateBuilder@VPreconditionNode@BT@@$$V@BT@@YA?AV?$function@$$A6A?AV?$unique_ptr@VTreeNode@BT@@U?$default_delete@VTreeNode@BT@@@std@@@std@@AEBV?$basic_string@DU?$char_traits@D@std@@V?$allocator@D@2@@2@AEBUNodeConfig@BT@@@Z@std@@XZ
	??$CreateBuilder@VReactiveFallback@BT@@$$V@BT@@YA?AV?$function@$$A6A?AV?$unique_ptr@VTreeNode@BT@@U?$default_delete@VTreeNode@BT@@@std@@@std@@AEBV?$basic_string@DU?$char_traits@D@std@@V?$allocator@D@2@@2@AEBUNodeConfig@BT@@@Z@std@@XZ
	??$CreateBuilder@VReactiveSequence@BT@@$$V@BT@@YA?AV?$function@$$A6A?AV?$unique_ptr@VTreeNode@BT@@U?$default_delete@VTreeNode@BT@@@std@@@std@@AEBV?$basic_string@DU?$char_traits@D@std@@V?$allocator@D@2@@2@AEBUNodeConfig@BT@@@Z@std@@XZ
	??$CreateBuilder@VRepeatNode@BT@@$$V@BT@@YA?AV?$function@$$A6A?AV?$unique_ptr@VTreeNode@BT@@U?$default_delete@VTreeNode@BT@@@std@@@std@@AEBV?$basic_string@DU?$char_traits@D@std@@V?$allocator@D@2@@2@AEBUNodeConfig@BT@@@Z@std@@XZ
	??$CreateBuilder@VRetryNode@BT@@$$V@BT@@YA?AV?$function@$$A6A?AV?$unique_ptr@VTreeNode@BT@@U?$default_delete@VTreeNode@BT@@@std@@@std@@AEBV?$basic_string@DU?$char_traits@D@std@@V?$allocator@D@2@@2@AEBUNodeConfig@BT@@@Z@std@@XZ
	??$CreateBuilder@VScriptNode@BT@@$$V@BT@@YA?AV?$function@$$A6A?AV?$unique_ptr@VTreeNode@BT@@U?$default_delete@VTreeNode@BT@@@std@@@std@@AEBV?$basic_string@DU?$char_traits@D@std@@V?$allocator@D@2@@2@AEBUNodeConfig@BT@@@Z@std@@XZ
	??$CreateBuilder@VSequenceNode@BT@@$$V@BT@@YA?AV?$function@$$A6A?AV?$unique_ptr@VTreeNode@BT@@U?$default_delete@VTreeNode@BT@@@std@@@std@@AEBV?$basic_string@DU?$char_traits@D@std@@V?$allocator@D@2@@2@AEBUNodeConfig@BT@@@Z@std@@XZ
	??$CreateBuilder@VSequenceWithMemory@BT@@$$V@BT@@YA?AV?$function@$$A6A?AV?$unique_ptr@VTreeNode@BT@@U?$default_delete@VTreeNode@BT@@@std@@@std@@AEBV?$basic_string@DU?$char_traits@D@std@@V?$allocator@D@2@@2@AEBUNodeConfig@BT@@@Z@std@@XZ
	??$CreateBuilder@VSetBlackboard@BT@@$$V@BT@@YA?AV?$function@$$A6A?AV?$unique_ptr@VTreeNode@BT@@U?$default_delete@VTreeNode@BT@@@std@@@std@@AEBV?$basic_string@DU?$char_traits@D@std@@V?$allocator@D@2@@2@AEBUNodeConfig@BT@@@Z@std@@XZ
	??$CreateBuilder@VSubTreeNode@BT@@$$V@BT@@YA?AV?$function@$$A6A?AV?$unique_ptr@VTreeNode@BT@@U?$default_delete@VTreeNode@BT@@@std@@@std@@AEBV?$basic_string@DU?$char_traits@D@std@@V?$allocator@D@2@@2@AEBUNodeConfig@BT@@@Z@std@@XZ
	??$CreateBuilder@VWhileDoElseNode@BT@@$$V@BT@@YA?AV?$function@$$A6A?AV?$unique_ptr@VTreeNode@BT@@U?$default_delete@VTreeNode@BT@@@std@@@std@@AEBV?$basic_string@DU?$char_traits@D@std@@V?$allocator@D@2@@2@AEBUNodeConfig@BT@@@Z@std@@XZ
	??$CreateManifest@V?$SwitchNode@$01@BT@@@BT@@YA?AUTreeNodeManifest@0@AEBV?$basic_string@DU?$char_traits@D@std@@V?$allocator@D@2@@std@@V?$unordered_map@V?$basic_string@DU?$char_traits@D@std@@V?$allocator@D@2@@std@@VPortInfo@BT@@U?$hash@V?$basic_string@DU?$char_traits@D@std@@V?$allocator@D@2@@std@@@2@U?$equal_to@V?$basic_string@DU?$char_traits@D@std@@V?$allocator@D@2@@std@@@2@V?$allocator@U?$pair@$$CBV?$basic_string@DU?$char_traits@D@std@@V?$allocator@D@2@@std@@VPortInfo@BT@@@std@@@2@@3@@Z
	??$CreateManifest@V?$SwitchNode@$02@BT@@@BT@@YA?AUTreeNodeManifest@0@AEBV?$basic_string@DU?$char_traits@D@std@@V?$allocator@D@2@@std@@V?$unordered_map@V?$basic_string@DU?$char_traits@D@std@@V?$allocator@D@2@@std@@VPortInfo@BT@@U?$hash@V?$basic_string@DU?$char_traits@D@std@@V?$allocator@D@2@@std@@@2@U?$equal_to@V?$basic_string@DU?$char_traits@D@std@@V?$allocator@D@2@@std@@@2@V?$allocator@U?$pair@$$CBV?$basic_string@DU?$char_traits@D@std@@V?$allocator@D@2@@std@@VPortInfo@BT@@@std@@@2@@3@@Z
	??$CreateManifest@V?$SwitchNode@$03@BT@@@BT@@YA?AUTreeNodeManifest@0@AEBV?$basic_string@DU?$char_traits@D@std@@V?$allocator@D@2@@std@@V?$unordered_map@V?$basic_string@DU?$char_traits@D@std@@V?$allocator@D@2@@std@@VPortInfo@BT@@U?$hash@V?$basic_string@DU?$char_traits@D@std@@V?$allocator@D@2@@std@@@2@U?$equal_to@V?$basic_string@DU?$char_traits@D@std@@V?$allocator@D@2@@std@@@2@V?$allocator@U?$pair@$$CBV?$basic_string@DU?$char_traits@D@std@@V?$allocator@D@2@@std@@VPortInfo@BT@@@std@@@2@@3@@Z
	??$CreateManifest@V?$SwitchNode@$04@BT@@@BT@@YA?AUTreeNodeManifest@0@AEBV?$basic_string@DU?$char_traits@D@std@@V?$allocator@D@2@@std@@V?$unordered_map@V?$basic_string@DU?$char_traits@D@std@@V?$allocator@D@2@@std@@VPortInfo@BT@@U?$hash@V?$basic_string@DU?$char_traits@D@std@@V?$allocator@D@2@@std@@@2@U?$equal_to@V?$basic_string@DU?$char_traits@D@std@@V?$allocator@D@2@@std@@@2@V?$allocator@U?$pair@$$CBV?$basic_string@DU?$char_traits@D@std@@V?$allocator@D@2@@std@@VPortInfo@BT@@@std@@@2@@3@@Z
	??$CreateManifest@V?$SwitchNode@$05@BT@@@BT@@YA?AUTreeNodeManifest@0@AEBV?$basic_string@DU?$char_traits@D@std@@V?$allocator@D@2@@std@@V?$unordered_map@V?$basic_string@DU?$char_traits@D@std@@V?$allocator@D@2@@std@@VPortInfo@BT@@U?$hash@V?$basic_string@DU?$char_traits@D@std@@V?$allocator@D@2@@std@@@2@U?$equal_to@V?$basic_string@DU?$char_traits@D@std@@V?$allocator@D@2@@std@@@2@V?$allocator@U?$pair@$$CBV?$basic_string@DU?$char_traits@D@std@@V?$allocator@D@2@@std@@VPortInfo@BT@@@std@@@2@@3@@Z
	??$CreateManifest@V?$TimeoutNode@Usteady_clock@chrono@std@@V?$duration@_JU?$ratio@$00$0DLJKMKAA@@std@@@23@@BT@@@BT@@YA?AUTreeNodeManifest@0@AEBV?$basic_string@DU?$char_traits@D@std@@V?$allocator@D@2@@std@@V?$unordered_map@V?$basic_string@DU?$char_traits@D@std@@V?$allocator@D@2@@std@@VPortInfo@BT@@U?$hash@V?$basic_string@DU?$char_traits@D@std@@V?$allocator@D@2@@std@@@2@U?$equal_to@V?$basic_string@DU?$char_traits@D@std@@V?$allocator@D@2@@std@@@2@V?$allocator@U?$pair@$$CBV?$basic_string@DU?$char_traits@D@std@@V?$allocator@D@2@@std@@VPortInfo@BT@@@std@@@2@@3@@Z
	??$CreateManifest@VAlwaysFailureNode@BT@@@BT@@YA?AUTreeNodeManifest@0@AEBV?$basic_string@DU?$char_traits@D@std@@V?$allocator@D@2@@std@@V?$unordered_map@V?$basic_string@DU?$char_traits@D@std@@V?$allocator@D@2@@std@@VPortInfo@BT@@U?$hash@V?$basic_string@DU?$char_traits@D@std@@V?$allocator@D@2@@std@@@2@U?$equal_to@V?$basic_string@DU?$char_traits@D@std@@V?$allocator@D@2@@std@@@2@V?$allocator@U?$pair@$$CBV?$basic_string@DU?$char_traits@D@std@@V?$allocator@D@2@@std@@VPortInfo@BT@@@std@@@2@@3@@Z
	??$CreateManifest@VAlwaysSuccessNode@BT@@@BT@@YA?AUTreeNodeManifest@0@AEBV?$basic_string@DU?$char_traits@D@std@@V?$allocator@D@2@@std@@V?$unordered_map@V?$basic_string@DU?$char_traits@D@std@@V?$allocator@D@2@@std@@VPortInfo@BT@@U?$hash@V?$basic_string@DU?$char_traits@D@std@@V?$allocator@D@2@@std@@@2@U?$equal_to@V?$basic_string@DU?$char_traits@D@std@@V?$allocator@D@2@@std@@@2@V?$allocator@U?$pair@$$CBV?$basic_string@DU?$char_traits@D@std@@V?$allocator@D@2@@std@@VPortInfo@BT@@@std@@@2@@3@@Z
	??$CreateManifest@VDelayNode@BT@@@BT@@YA?AUTreeNodeManifest@0@AEBV?$basic_string@DU?$char_traits@D@std@@V?$allocator@D@2@@std@@V?$unordered_map@V?$basic_string@DU?$char_traits@D@std@@V?$allocator@D@2@@std@@VPortInfo@BT@@U?$hash@V?$basic_string@DU?$char_traits@D@std@@V?$allocator@D@2@@std@@@2@U?$equal_to@V?$basic_string@DU?$char_traits@D@std@@V?$allocator@D@2@@std@@@2@V?$allocator@U?$pair@$$CBV?$basic_string@DU?$char_traits@D@std@@V?$allocator@D@2@@std@@VPortInfo@BT@@@std@@@2@@3@@Z
	??$CreateManifest@VFallbackNode@BT@@@BT@@YA?AUTreeNodeManifest@0@AEBV?$basic_string@DU?$char_traits@D@std@@V?$allocator@D@2@@std@@V?$unordered_map@V?$basic_string@DU?$char_traits@D@std@@V?$allocator@D@2@@std@@VPortInfo@BT@@U?$hash@V?$basic_string@DU?$char_traits@D@std@@V?$allocator@D@2@@std@@@2@U?$equal_to@V?$basic_string@DU?$char_traits@D@std@@V?$allocator@D@2@@std@@@2@V?$allocator@U?$pair@$$CBV?$basic_string@DU?$char_traits@D@std@@V?$allocator@D@2@@std@@VPortInfo@BT@@@std@@@2@@3@@Z
	??$CreateManifest@VForceFailureNode@BT@@@BT@@YA?AUTreeNodeManifest@0@AEBV?$basic_string@DU?$char_traits@D@std@@V?$allocator@D@2@@std@@V?$unordered_map@V?$basic_string@DU?$char_traits@D@std@@V?$allocator@D@2@@std@@VPortInfo@BT@@U?$hash@V?$basic_string@DU?$char_traits@D@std@@V?$allocator@D@2@@std@@@2@U?$equal_to@V?$basic_string@DU?$char_traits@D@std@@V?$allocator@D@2@@std@@@2@V?$allocator@U?$pair@$$CBV?$basic_string@DU?$char_traits@D@std@@V?$allocator@D@2@@std@@VPortInfo@BT@@@std@@@2@@3@@Z
	??$CreateManifest@VForceSuccessNode@BT@@@BT@@YA?AUTreeNodeManifest@0@AEBV?$basic_string@DU?$char_traits@D@std@@V?$allocator@D@2@@std@@V?$unordered_map@V?$basic_string@DU?$char_traits@D@std@@V?$allocator@D@2@@std@@VPortInfo@BT@@U?$hash@V?$basic_string@DU?$char_traits@D@std@@V?$allocator@D@2@@std@@@2@U?$equal_to@V?$basic_string@DU?$char_traits@D@std@@V?$allocator@D@2@@std@@@2@V?$allocator@U?$pair@$$CBV?$basic_string@DU?$char_traits@D@std@@V?$allocator@D@2@@std@@VPortInfo@BT@@@std@@@2@@3@@Z
	??$CreateManifest@VIfThenElseNode@BT@@@BT@@YA?AUTreeNodeManifest@0@AEBV?$basic_string@DU?$char_traits@D@std@@V?$allocator@D@2@@std@@V?$unordered_map@V?$basic_string@DU?$char_traits@D@std@@V?$allocator@D@2@@std@@VPortInfo@BT@@U?$hash@V?$basic_string@DU?$char_traits@D@std@@V?$allocator@D@2@@std@@@2@U?$equal_to@V?$basic_string@DU?$char_traits@D@std@@V?$allocator@D@2@@std@@@2@V?$allocator@U?$pair@$$CBV?$basic_string@DU?$char_traits@D@std@@V?$allocator@D@2@@std@@VPortInfo@BT@@@std@@@2@@3@@Z
	??$CreateManifest@VInverterNode@BT@@@BT@@YA?AUTreeNodeManifest@0@AEBV?$basic_string@DU?$char_traits@D@std@@V?$allocator@D@2@@std@@V?$unordered_map@V?$basic_string@DU?$char_traits@D@std@@V?$allocator@D@2@@std@@VPortInfo@BT@@U?$hash@V?$basic_string@DU?$char_traits@D@std@@V?$allocator@D@2@@std@@@2@U?$equal_to@V?$basic_string@DU?$char_traits@D@std@@V?$allocator@D@2@@std@@@2@V?$allocator@U?$pair@$$CBV?$basic_string@DU?$char_traits@D@std@@V?$allocator@D@2@@std@@VPortInfo@BT@@@std@@@2@@3@@Z
	??$CreateManifest@VKeepRunningUntilFailureNode@BT@@@BT@@YA?AUTreeNodeManifest@0@AEBV?$basic_string@DU?$char_traits@D@std@@V?$allocator@D@2@@std@@V?$unordered_map@V?$basic_string@DU?$char_traits@D@std@@V?$allocator@D@2@@std@@VPortInfo@BT@@U?$hash@V?$basic_string@DU?$char_traits@D@std@@V?$allocator@D@2@@std@@@2@U?$equal_to@V?$basic_string@DU?$char_traits@D@std@@V?$allocator@D@2@@std@@@2@V?$allocator@U?$pair@$$CBV?$basic_string@DU?$char_traits@D@std@@V?$allocator@D@2@@std@@VPortInfo@BT@@@std@@@2@@3@@Z
	??$CreateManifest@VParallelNode@BT@@@BT@@YA?AUTreeNodeManifest@0@AEBV?$basic_string@DU?$char_traits@D@std@@V?$allocator@D@2@@std@@V?$unordered_map@V?$basic_string@DU?$char_traits@D@std@@V?$allocator@D@2@@std@@VPortInfo@BT@@U?$hash@V?$basic_string@DU?$char_traits@D@std@@V?$allocator@D@2@@std@@@2@U?$equal_to@V?$basic_string@DU?$char_traits@D@std@@V?$allocator@D@2@@std@@@2@V?$allocator@U?$pair@$$CBV?$basic_string@DU?$char_traits@D@std@@V?$allocator@D@2@@std@@VPortInfo@BT@@@std@@@2@@3@@Z
	??$CreateManifest@VPreconditionNode@BT@@@BT@@YA?AUTreeNodeManifest@0@AEBV?$basic_string@DU?$char_traits@D@std@@V?$allocator@D@2@@std@@V?$unordered_map@V?$basic_string@DU?$char_traits@D@std@@V?$allocator@D@2@@std@@VPortInfo@BT@@U?$hash@V?$basic_string@DU?$char_traits@D@std@@V?$allocator@D@2@@std@@@2@U?$equal_to@V?$basic_string@DU?$char_traits@D@std@@V?$allocator@D@2@@std@@@2@V?$allocator@U?$pair@$$CBV?$basic_string@DU?$char_traits@D@std@@V?$allocator@D@2@@std@@VPortInfo@BT@@@std@@@2@@3@@Z
	??$CreateManifest@VReactiveFallback@BT@@@BT@@YA?AUTreeNodeManifest@0@AEBV?$basic_string@DU?$char_traits@D@std@@V?$allocator@D@2@@std@@V?$unordered_map@V?$basic_string@DU?$char_traits@D@std@@V?$allocator@D@2@@std@@VPortInfo@BT@@U?$hash@V?$basic_string@DU?$char_traits@D@std@@V?$allocator@D@2@@std@@@2@U?$equal_to@V?$basic_string@DU?$char_traits@D@std@@V?$allocator@D@2@@std@@@2@V?$allocator@U?$pair@$$CBV?$basic_string@DU?$char_traits@D@std@@V?$allocator@D@2@@std@@VPortInfo@BT@@@std@@@2@@3@@Z
	??$CreateManifest@VReactiveSequence@BT@@@BT@@YA?AUTreeNodeManifest@0@AEBV?$basic_string@DU?$char_traits@D@std@@V?$allocator@D@2@@std@@V?$unordered_map@V?$basic_string@DU?$char_traits@D@std@@V?$allocator@D@2@@std@@VPortInfo@BT@@U?$hash@V?$basic_string@DU?$char_traits@D@std@@V?$allocator@D@2@@std@@@2@U?$equal_to@V?$basic_string@DU?$char_traits@D@std@@V?$allocator@D@2@@std@@@2@V?$allocator@U?$pair@$$CBV?$basic_string@DU?$char_traits@D@std@@V?$allocator@D@2@@std@@VPortInfo@BT@@@std@@@2@@3@@Z
	??$CreateManifest@VRepeatNode@BT@@@BT@@YA?AUTreeNodeManifest@0@AEBV?$basic_string@DU?$char_traits@D@std@@V?$allocator@D@2@@std@@V?$unordered_map@V?$basic_string@DU?$char_traits@D@std@@V?$allocator@D@2@@std@@VPortInfo@BT@@U?$hash@V?$basic_string@DU?$char_traits@D@std@@V?$allocator@D@2@@std@@@2@U?$equal_to@V?$basic_string@DU?$char_traits@D@std@@V?$allocator@D@2@@std@@@2@V?$allocator@U?$pair@$$CBV?$basic_string@DU?$char_traits@D@std@@V?$allocator@D@2@@std@@VPortInfo@BT@@@std@@@2@@3@@Z
	??$CreateManifest@VRetryNode@BT@@@BT@@YA?AUTreeNodeManifest@0@AEBV?$basic_string@DU?$char_traits@D@std@@V?$allocator@D@2@@std@@V?$unordered_map@V?$basic_string@DU?$char_traits@D@std@@V?$allocator@D@2@@std@@VPortInfo@BT@@U?$hash@V?$basic_string@DU?$char_traits@D@std@@V?$allocator@D@2@@std@@@2@U?$equal_to@V?$basic_string@DU?$char_traits@D@std@@V?$allocator@D@2@@std@@@2@V?$allocator@U?$pair@$$CBV?$basic_string@DU?$char_traits@D@std@@V?$allocator@D@2@@std@@VPortInfo@BT@@@std@@@2@@3@@Z
	??$CreateManifest@VScriptNode@BT@@@BT@@YA?AUTreeNodeManifest@0@AEBV?$basic_string@DU?$char_traits@D@std@@V?$allocator@D@2@@std@@V?$unordered_map@V?$basic_string@DU?$char_traits@D@std@@V?$allocator@D@2@@std@@VPortInfo@BT@@U?$hash@V?$basic_string@DU?$char_traits@D@std@@V?$allocator@D@2@@std@@@2@U?$equal_to@V?$basic_string@DU?$char_traits@D@std@@V?$allocator@D@2@@std@@@2@V?$allocator@U?$pair@$$CBV?$basic_string@DU?$char_traits@D@std@@V?$allocator@D@2@@std@@VPortInfo@BT@@@std@@@2@@3@@Z
	??$CreateManifest@VSequenceNode@BT@@@BT@@YA?AUTreeNodeManifest@0@AEBV?$basic_string@DU?$char_traits@D@std@@V?$allocator@D@2@@std@@V?$unordered_map@V?$basic_string@DU?$char_traits@D@std@@V?$allocator@D@2@@std@@VPortInfo@BT@@U?$hash@V?$basic_string@DU?$char_traits@D@std@@V?$allocator@D@2@@std@@@2@U?$equal_to@V?$basic_string@DU?$char_traits@D@std@@V?$allocator@D@2@@std@@@2@V?$allocator@U?$pair@$$CBV?$basic_string@DU?$char_traits@D@std@@V?$allocator@D@2@@std@@VPortInfo@BT@@@std@@@2@@3@@Z
	??$CreateManifest@VSequenceWithMemory@BT@@@BT@@YA?AUTreeNodeManifest@0@AEBV?$basic_string@DU?$char_traits@D@std@@V?$allocator@D@2@@std@@V?$unordered_map@V?$basic_string@DU?$char_traits@D@std@@V?$allocator@D@2@@std@@VPortInfo@BT@@U?$hash@V?$basic_string@DU?$char_traits@D@std@@V?$allocator@D@2@@std@@@2@U?$equal_to@V?$basic_string@DU?$char_traits@D@std@@V?$allocator@D@2@@std@@@2@V?$allocator@U?$pair@$$CBV?$basic_string@DU?$char_traits@D@std@@V?$allocator@D@2@@std@@VPortInfo@BT@@@std@@@2@@3@@Z
	??$CreateManifest@VSetBlackboard@BT@@@BT@@YA?AUTreeNodeManifest@0@AEBV?$basic_string@DU?$char_traits@D@std@@V?$allocator@D@2@@std@@V?$unordered_map@V?$basic_string@DU?$char_traits@D@std@@V?$allocator@D@2@@std@@VPortInfo@BT@@U?$hash@V?$basic_string@DU?$char_traits@D@std@@V?$allocator@D@2@@std@@@2@U?$equal_to@V?$basic_string@DU?$char_traits@D@std@@V?$allocator@D@2@@std@@@2@V?$allocator@U?$pair@$$CBV?$basic_string@DU?$char_traits@D@std@@V?$allocator@D@2@@std@@VPortInfo@BT@@@std@@@2@@3@@Z
	??$CreateManifest@VSubTreeNode@BT@@@BT@@YA?AUTreeNodeManifest@0@AEBV?$basic_string@DU?$char_traits@D@std@@V?$allocator@D@2@@std@@V?$unordered_map@V?$basic_string@DU?$char_traits@D@std@@V?$allocator@D@2@@std@@VPortInfo@BT@@U?$hash@V?$basic_string@DU?$char_traits@D@std@@V?$allocator@D@2@@std@@@2@U?$equal_to@V?$basic_string@DU?$char_traits@D@std@@V?$allocator@D@2@@std@@@2@V?$allocator@U?$pair@$$CBV?$basic_string@DU?$char_traits@D@std@@V?$allocator@D@2@@std@@VPortInfo@BT@@@std@@@2@@3@@Z
	??$CreateManifest@VWhileDoElseNode@BT@@@BT@@YA?AUTreeNodeManifest@0@AEBV?$basic_string@DU?$char_traits@D@std@@V?$allocator@D@2@@std@@V?$unordered_map@V?$basic_string@DU?$char_traits@D@std@@V?$allocator@D@2@@std@@VPortInfo@BT@@U?$hash@V?$basic_string@DU?$char_traits@D@std@@V?$allocator@D@2@@std@@@2@U?$equal_to@V?$basic_string@DU?$char_traits@D@std@@V?$allocator@D@2@@std@@@2@V?$allocator@U?$pair@$$CBV?$basic_string@DU?$char_traits@D@std@@V?$allocator@D@2@@std@@VPortInfo@BT@@@std@@@2@@3@@Z
	??$CreatePort@H@BT@@YA?AU?$pair@V?$basic_string@DU?$char_traits@D@std@@V?$allocator@D@2@@std@@VPortInfo@BT@@@std@@W4PortDirection@0@V?$basic_string_view@DU?$char_traits@D@std@@@2@1@Z
	??$CreatePort@I@BT@@YA?AU?$pair@V?$basic_string@DU?$char_traits@D@std@@V?$allocator@D@2@@std@@VPortInfo@BT@@@std@@W4PortDirection@0@V?$basic_string_view@DU?$char_traits@D@std@@@2@1@Z
	??$CreatePort@V?$basic_string@DU?$char_traits@D@std@@V?$allocator@D@2@@std@@@BT@@YA?AU?$pair@V?$basic_string@DU?$char_traits@D@std@@V?$allocator@D@2@@std@@VPortInfo@BT@@@std@@W4PortDirection@0@V?$basic_string_view@DU?$char_traits@D@std@@@2@1@Z
	??$CreatePort@W4NodeStatus@BT@@@BT@@YA?AU?$pair@V?$basic_string@DU?$char_traits@D@std@@V?$allocator@D@2@@std@@VPortInfo@BT@@@std@@W4PortDirection@0@V?$basic_string_view@DU?$char_traits@D@std@@@2@1@Z
	??$CreatePort@X@BT@@YA?AU?$pair@V?$basic_string@DU?$char_traits@D@std@@V?$allocator@D@2@@std@@VPortInfo@BT@@@std@@W4PortDirection@0@V?$basic_string_view@DU?$char_traits@D@std@@@2@1@Z
	??$CreateUnlinkedNode@VXMLComment@tinyxml2@@$0GI@@XMLDocument@tinyxml2@@AEAAPEAVXMLComment@1@AEAV?$MemPoolT@$0GI@@1@@Z
	??$CreateUnlinkedNode@VXMLDeclaration@tinyxml2@@$0GI@@XMLDocument@tinyxml2@@AEAAPEAVXMLDeclaration@1@AEAV?$MemPoolT@$0GI@@1@@Z
	??$CreateUnlinkedNode@VXMLElement@tinyxml2@@$0HI@@XMLDocument@tinyxml2@@AEAAPEAVXMLElement@1@AEAV?$MemPoolT@$0HI@@1@@Z
	??$CreateUnlinkedNode@VXMLText@tinyxml2@@$0HA@@XMLDocument@tinyxml2@@AEAAPEAVXMLText@1@AEAV?$MemPoolT@$0HA@@1@@Z
	??$CreateUnlinkedNode@VXMLUnknown@tinyxml2@@$0GI@@XMLDocument@tinyxml2@@AEAAPEAVXMLUnknown@1@AEAV?$MemPoolT@$0GI@@1@@Z
	??$CreateVector@G@FlatBufferBuilder@flatbuffers@@QEAA?AU?$Offset@V?$Vector@G@flatbuffers@@@1@AEBV?$vector@GV?$allocator@G@std@@@std@@@Z
	??$CreateVector@G@FlatBufferBuilder@flatbuffers@@QEAA?AU?$Offset@V?$Vector@G@flatbuffers@@@1@PEBG_K@Z
	??$CreateVector@U?$Offset@UNodeModel@Serialization@@@flatbuffers@@@FlatBufferBuilder@flatbuffers@@QEAA?AU?$Offset@V?$Vector@U?$Offset@UNodeModel@Serialization@@@flatbuffers@@@flatbuffers@@@1@AEBV?$vector@U?$Offset@UNodeModel@Serialization@@@flatbuffers@@V?$allocator@U?$Offset@UNodeModel@Serialization@@@flatbuffers@@@std@@@std@@@Z
	??$CreateVector@U?$Offset@UPortConfig@Serialization@@@flatbuffers@@@FlatBufferBuilder@flatbuffers@@QEAA?AU?$Offset@V?$Vector@U?$Offset@UPortConfig@Serialization@@@flatbuffers@@@flatbuffers@@@1@AEBV?$vector@U?$Offset@UPortConfig@Serialization@@@flatbuffers@@V?$allocator@U?$Offset@UPortConfig@Serialization@@@flatbuffers@@@std@@@std@@@Z
	??$CreateVector@U?$Offset@UPortModel@Serialization@@@flatbuffers@@@FlatBufferBuilder@flatbuffers@@QEAA?AU?$Offset@V?$Vector@U?$Offset@UPortModel@Serialization@@@flatbuffers@@@flatbuffers@@@1@AEBV?$vector@U?$Offset@UPortModel@Serialization@@@flatbuffers@@V?$allocator@U?$Offset@UPortModel@Serialization@@@flatbuffers@@@std@@@std@@@Z
	??$CreateVector@U?$Offset@UTreeNode@Serialization@@@flatbuffers@@@FlatBufferBuilder@flatbuffers@@QEAA?AU?$Offset@V?$Vector@U?$Offset@UTreeNode@Serialization@@@flatbuffers@@@flatbuffers@@@1@AEBV?$vector@U?$Offset@UTreeNode@Serialization@@@flatbuffers@@V?$allocator@U?$Offset@UTreeNode@Serialization@@@flatbuffers@@@std@@@std@@@Z
	??$CreateVector@UNodeModel@Serialization@@@FlatBufferBuilder@flatbuffers@@QEAA?AU?$Offset@V?$Vector@U?$Offset@UNodeModel@Serialization@@@flatbuffers@@@flatbuffers@@@1@PEBU?$Offset@UNodeModel@Serialization@@@1@_K@Z
	??$CreateVector@UPortConfig@Serialization@@@FlatBufferBuilder@flatbuffers@@QEAA?AU?$Offset@V?$Vector@U?$Offset@UPortConfig@Serialization@@@flatbuffers@@@flatbuffers@@@1@PEBU?$Offset@UPortConfig@Serialization@@@1@_K@Z
	??$CreateVector@UPortModel@Serialization@@@FlatBufferBuilder@flatbuffers@@QEAA?AU?$Offset@V?$Vector@U?$Offset@UPortModel@Serialization@@@flatbuffers@@@flatbuffers@@@1@PEBU?$Offset@UPortModel@Serialization@@@1@_K@Z
	??$CreateVector@UTreeNode@Serialization@@@FlatBufferBuilder@flatbuffers@@QEAA?AU?$Offset@V?$Vector@U?$Offset@UTreeNode@Serialization@@@flatbuffers@@@flatbuffers@@@1@PEBU?$Offset@UTreeNode@Serialization@@@1@_K@Z
	??$EndianScalar@C@flatbuffers@@YACC@Z
	??$EndianScalar@G@flatbuffers@@YAGG@Z
	??$EndianScalar@H@flatbuffers@@YAHH@Z
	??$EndianScalar@I@flatbuffers@@YAII@Z
	??$EndianScalar@_J@flatbuffers@@YA_J_J@Z
	??$Finish@UBehaviorTree@Serialization@@@FlatBufferBuilder@flatbuffers@@QEAAXU?$Offset@UBehaviorTree@Serialization@@@1@PEBD@Z
	??$GetAnyFromStringFunctor@H@BT@@YA?AV?$function@$$A6A?AVAny@BT@@V?$basic_string_view@DU?$char_traits@D@std@@@std@@@Z@std@@XZ
	??$GetAnyFromStringFunctor@I@BT@@YA?AV?$function@$$A6A?AVAny@BT@@V?$basic_string_view@DU?$char_traits@D@std@@@std@@@Z@std@@XZ
	??$GetAnyFromStringFunctor@V?$basic_string@DU?$char_traits@D@std@@V?$allocator@D@2@@std@@@BT@@YA?AV?$function@$$A6A?AVAny@BT@@V?$basic_string_view@DU?$char_traits@D@std@@@std@@@Z@std@@XZ
	??$GetAnyFromStringFunctor@W4NodeStatus@BT@@@BT@@YA?AV?$function@$$A6A?AVAny@BT@@V?$basic_string_view@DU?$char_traits@D@std@@@std@@@Z@std@@XZ
	??$GetAnyFromStringFunctor@X@BT@@YA?AV?$function@$$A6A?AVAny@BT@@V?$basic_string_view@DU?$char_traits@D@std@@@std@@@Z@std@@XZ
	??$GetAnyFromStringFunctor@_N@BT@@YA?AV?$function@$$A6A?AVAny@BT@@V?$basic_string_view@DU?$char_traits@D@std@@@std@@@Z@std@@XZ
	??$InputPort@H@BT@@YA?AU?$pair@V?$basic_string@DU?$char_traits@D@std@@V?$allocator@D@2@@std@@VPortInfo@BT@@@std@@V?$basic_string_view@DU?$char_traits@D@std@@@2@0@Z
	??$InputPort@H@BT@@YA?AU?$pair@V?$basic_string@DU?$char_traits@D@std@@V?$allocator@D@2@@std@@VPortInfo@BT@@@std@@V?$basic_string_view@DU?$char_traits@D@std@@@2@AEBH0@Z
	??$InputPort@I@BT@@YA?AU?$pair@V?$basic_string@DU?$char_traits@D@std@@V?$allocator@D@2@@std@@VPortInfo@BT@@@std@@V?$basic_string_view@DU?$char_traits@D@std@@@2@0@Z
	??$InputPort@V?$basic_string@DU?$char_traits@D@std@@V?$allocator@D@2@@std@@@BT@@YA?AU?$pair@V?$basic_string@DU?$char_traits@D@std@@V?$allocator@D@2@@std@@VPortInfo@BT@@@std@@V?$basic_string_view@DU?$char_traits@D@std@@@2@0@Z
	??$InputPort@W4NodeStatus@BT@@@BT@@YA?AU?$pair@V?$basic_string@DU?$char_traits@D@std@@V?$allocator@D@2@@std@@VPortInfo@BT@@@std@@V?$basic_string_view@DU?$char_traits@D@std@@@2@AEBW4NodeStatus@0@0@Z
	??$InputPort@X@BT@@YA?AU?$pair@V?$basic_string@DU?$char_traits@D@std@@V?$allocator@D@2@@std@@VPortInfo@BT@@@std@@V?$basic_string_view@DU?$char_traits@D@std@@@2@0@Z
	??$Instantiate@V?$SwitchNode@$01@BT@@$$V@TreeNode@BT@@SA?AV?$unique_ptr@VTreeNode@BT@@U?$default_delete@VTreeNode@BT@@@std@@@std@@AEBV?$basic_string@DU?$char_traits@D@std@@V?$allocator@D@2@@3@AEBUNodeConfig@1@@Z
	??$Instantiate@V?$SwitchNode@$02@BT@@$$V@TreeNode@BT@@SA?AV?$unique_ptr@VTreeNode@BT@@U?$default_delete@VTreeNode@BT@@@std@@@std@@AEBV?$basic_string@DU?$char_traits@D@std@@V?$allocator@D@2@@3@AEBUNodeConfig@1@@Z
	??$Instantiate@V?$SwitchNode@$03@BT@@$$V@TreeNode@BT@@SA?AV?$unique_ptr@VTreeNode@BT@@U?$default_delete@VTreeNode@BT@@@std@@@std@@AEBV?$basic_string@DU?$char_traits@D@std@@V?$allocator@D@2@@3@AEBUNodeConfig@1@@Z
	??$Instantiate@V?$SwitchNode@$04@BT@@$$V@TreeNode@BT@@SA?AV?$unique_ptr@VTreeNode@BT@@U?$default_delete@VTreeNode@BT@@@std@@@std@@AEBV?$basic_string@DU?$char_traits@D@std@@V?$allocator@D@2@@3@AEBUNodeConfig@1@@Z
	??$Instantiate@V?$SwitchNode@$05@BT@@$$V@TreeNode@BT@@SA?AV?$unique_ptr@VTreeNode@BT@@U?$default_delete@VTreeNode@BT@@@std@@@std@@AEBV?$basic_string@DU?$char_traits@D@std@@V?$allocator@D@2@@3@AEBUNodeConfig@1@@Z
	??$Instantiate@V?$TimeoutNode@Usteady_clock@chrono@std@@V?$duration@_JU?$ratio@$00$0DLJKMKAA@@std@@@23@@BT@@$$V@TreeNode@BT@@SA?AV?$unique_ptr@VTreeNode@BT@@U?$default_delete@VTreeNode@BT@@@std@@@std@@AEBV?$basic_string@DU?$char_traits@D@std@@V?$allocator@D@2@@3@AEBUNodeConfig@1@@Z
	??$Instantiate@VAlwaysFailureNode@BT@@$$V@TreeNode@BT@@SA?AV?$unique_ptr@VTreeNode@BT@@U?$default_delete@VTreeNode@BT@@@std@@@std@@AEBV?$basic_string@DU?$char_traits@D@std@@V?$allocator@D@2@@3@AEBUNodeConfig@1@@Z
	??$Instantiate@VAlwaysSuccessNode@BT@@$$V@TreeNode@BT@@SA?AV?$unique_ptr@VTreeNode@BT@@U?$default_delete@VTreeNode@BT@@@std@@@std@@AEBV?$basic_string@DU?$char_traits@D@std@@V?$allocator@D@2@@3@AEBUNodeConfig@1@@Z
	??$Instantiate@VDelayNode@BT@@$$V@TreeNode@BT@@SA?AV?$unique_ptr@VTreeNode@BT@@U?$default_delete@VTreeNode@BT@@@std@@@std@@AEBV?$basic_string@DU?$char_traits@D@std@@V?$allocator@D@2@@3@AEBUNodeConfig@1@@Z
	??$Instantiate@VFallbackNode@BT@@$$V@TreeNode@BT@@SA?AV?$unique_ptr@VTreeNode@BT@@U?$default_delete@VTreeNode@BT@@@std@@@std@@AEBV?$basic_string@DU?$char_traits@D@std@@V?$allocator@D@2@@3@AEBUNodeConfig@1@@Z
	??$Instantiate@VForceFailureNode@BT@@$$V@TreeNode@BT@@SA?AV?$unique_ptr@VTreeNode@BT@@U?$default_delete@VTreeNode@BT@@@std@@@std@@AEBV?$basic_string@DU?$char_traits@D@std@@V?$allocator@D@2@@3@AEBUNodeConfig@1@@Z
	??$Instantiate@VForceSuccessNode@BT@@$$V@TreeNode@BT@@SA?AV?$unique_ptr@VTreeNode@BT@@U?$default_delete@VTreeNode@BT@@@std@@@std@@AEBV?$basic_string@DU?$char_traits@D@std@@V?$allocator@D@2@@3@AEBUNodeConfig@1@@Z
	??$Instantiate@VIfThenElseNode@BT@@$$V@TreeNode@BT@@SA?AV?$unique_ptr@VTreeNode@BT@@U?$default_delete@VTreeNode@BT@@@std@@@std@@AEBV?$basic_string@DU?$char_traits@D@std@@V?$allocator@D@2@@3@AEBUNodeConfig@1@@Z
	??$Instantiate@VInverterNode@BT@@$$V@TreeNode@BT@@SA?AV?$unique_ptr@VTreeNode@BT@@U?$default_delete@VTreeNode@BT@@@std@@@std@@AEBV?$basic_string@DU?$char_traits@D@std@@V?$allocator@D@2@@3@AEBUNodeConfig@1@@Z
	??$Instantiate@VKeepRunningUntilFailureNode@BT@@$$V@TreeNode@BT@@SA?AV?$unique_ptr@VTreeNode@BT@@U?$default_delete@VTreeNode@BT@@@std@@@std@@AEBV?$basic_string@DU?$char_traits@D@std@@V?$allocator@D@2@@3@AEBUNodeConfig@1@@Z
	??$Instantiate@VParallelNode@BT@@$$V@TreeNode@BT@@SA?AV?$unique_ptr@VTreeNode@BT@@U?$default_delete@VTreeNode@BT@@@std@@@std@@AEBV?$basic_string@DU?$char_traits@D@std@@V?$allocator@D@2@@3@AEBUNodeConfig@1@@Z
	??$Instantiate@VPreconditionNode@BT@@$$V@TreeNode@BT@@SA?AV?$unique_ptr@VTreeNode@BT@@U?$default_delete@VTreeNode@BT@@@std@@@std@@AEBV?$basic_string@DU?$char_traits@D@std@@V?$allocator@D@2@@3@AEBUNodeConfig@1@@Z
	??$Instantiate@VReactiveFallback@BT@@$$V@TreeNode@BT@@SA?AV?$unique_ptr@VTreeNode@BT@@U?$default_delete@VTreeNode@BT@@@std@@@std@@AEBV?$basic_string@DU?$char_traits@D@std@@V?$allocator@D@2@@3@AEBUNodeConfig@1@@Z
	??$Instantiate@VReactiveSequence@BT@@$$V@TreeNode@BT@@SA?AV?$unique_ptr@VTreeNode@BT@@U?$default_delete@VTreeNode@BT@@@std@@@std@@AEBV?$basic_string@DU?$char_traits@D@std@@V?$allocator@D@2@@3@AEBUNodeConfig@1@@Z
	??$Instantiate@VRepeatNode@BT@@$$V@TreeNode@BT@@SA?AV?$unique_ptr@VTreeNode@BT@@U?$default_delete@VTreeNode@BT@@@std@@@std@@AEBV?$basic_string@DU?$char_traits@D@std@@V?$allocator@D@2@@3@AEBUNodeConfig@1@@Z
	??$Instantiate@VRetryNode@BT@@$$V@TreeNode@BT@@SA?AV?$unique_ptr@VTreeNode@BT@@U?$default_delete@VTreeNode@BT@@@std@@@std@@AEBV?$basic_string@DU?$char_traits@D@std@@V?$allocator@D@2@@3@AEBUNodeConfig@1@@Z
	??$Instantiate@VScriptNode@BT@@$$V@TreeNode@BT@@SA?AV?$unique_ptr@VTreeNode@BT@@U?$default_delete@VTreeNode@BT@@@std@@@std@@AEBV?$basic_string@DU?$char_traits@D@std@@V?$allocator@D@2@@3@AEBUNodeConfig@1@@Z
	??$Instantiate@VSequenceNode@BT@@$$V@TreeNode@BT@@SA?AV?$unique_ptr@VTreeNode@BT@@U?$default_delete@VTreeNode@BT@@@std@@@std@@AEBV?$basic_string@DU?$char_traits@D@std@@V?$allocator@D@2@@3@AEBUNodeConfig@1@@Z
	??$Instantiate@VSequenceWithMemory@BT@@$$V@TreeNode@BT@@SA?AV?$unique_ptr@VTreeNode@BT@@U?$default_delete@VTreeNode@BT@@@std@@@std@@AEBV?$basic_string@DU?$char_traits@D@std@@V?$allocator@D@2@@3@AEBUNodeConfig@1@@Z
	??$Instantiate@VSetBlackboard@BT@@$$V@TreeNode@BT@@SA?AV?$unique_ptr@VTreeNode@BT@@U?$default_delete@VTreeNode@BT@@@std@@@std@@AEBV?$basic_string@DU?$char_traits@D@std@@V?$allocator@D@2@@3@AEBUNodeConfig@1@@Z
	??$Instantiate@VSubTreeNode@BT@@$$V@TreeNode@BT@@SA?AV?$unique_ptr@VTreeNode@BT@@U?$default_delete@VTreeNode@BT@@@std@@@std@@AEBV?$basic_string@DU?$char_traits@D@std@@V?$allocator@D@2@@3@AEBUNodeConfig@1@@Z
	??$Instantiate@VWhileDoElseNode@BT@@$$V@TreeNode@BT@@SA?AV?$unique_ptr@VTreeNode@BT@@U?$default_delete@VTreeNode@BT@@@std@@@std@@AEBV?$basic_string@DU?$char_traits@D@std@@V?$allocator@D@2@@3@AEBUNodeConfig@1@@Z
	??$IsSame@N@Ast@BT@@YA_NAEBN0@Z
	??$IsSame@VSimpleString@SafeAny@@@Ast@BT@@YA_NAEBVSimpleString@SafeAny@@0@Z
	??$IsTheSameAs@C@flatbuffers@@YA_NCC@Z
	??$IsTheSameAs@G@flatbuffers@@YA_NGG@Z
	??$IsTheSameAs@I@flatbuffers@@YA_NII@Z
	??$PreAlign@I@FlatBufferBuilder@flatbuffers@@QEAAX_K@Z
	??$PushElement@C@FlatBufferBuilder@flatbuffers@@QEAAIC@Z
	??$PushElement@G@FlatBufferBuilder@flatbuffers@@QEAAIG@Z
	??$PushElement@H@FlatBufferBuilder@flatbuffers@@QEAAIH@Z
	??$PushElement@I@FlatBufferBuilder@flatbuffers@@QEAAII@Z
	??$PushElement@UNodeModel@Serialization@@@FlatBufferBuilder@flatbuffers@@QEAAIU?$Offset@UNodeModel@Serialization@@@1@@Z
	??$PushElement@UPortConfig@Serialization@@@FlatBufferBuilder@flatbuffers@@QEAAIU?$Offset@UPortConfig@Serialization@@@1@@Z
	??$PushElement@UPortModel@Serialization@@@FlatBufferBuilder@flatbuffers@@QEAAIU?$Offset@UPortModel@Serialization@@@1@@Z
	??$PushElement@UTreeNode@Serialization@@@FlatBufferBuilder@flatbuffers@@QEAAIU?$Offset@UTreeNode@Serialization@@@1@@Z
	??$ReadScalar@G@flatbuffers@@YAGPEBX@Z
	??$ReadScalar@H@flatbuffers@@YAHPEBX@Z
	??$Required@UNodeModel@Serialization@@@FlatBufferBuilder@flatbuffers@@QEAAXU?$Offset@UNodeModel@Serialization@@@1@G@Z
	??$Required@UTreeNode@Serialization@@@FlatBufferBuilder@flatbuffers@@QEAAXU?$Offset@UTreeNode@Serialization@@@1@G@Z
	??$StrCat@$$BY01D@BT@@YA?AV?$basic_string@DU?$char_traits@D@std@@V?$allocator@D@2@@std@@AEBV?$basic_string_view@DU?$char_traits@D@std@@@2@000AEAY01$$CBD@Z
	??$StrCat@$$BY03DV?$basic_string@DU?$char_traits@D@std@@V?$allocator@D@2@@std@@$$BY0EJ@D@BT@@YA?AV?$basic_string@DU?$char_traits@D@std@@V?$allocator@D@2@@std@@AEBV?$basic_string_view@DU?$char_traits@D@std@@@2@000AEAY03$$CBDAEBV12@AEAY0EJ@$$CBD@Z
	??$StrCat@$$BY0BE@DV?$basic_string@DU?$char_traits@D@std@@V?$allocator@D@2@@std@@$$BY0BL@D@BT@@YA?AV?$basic_string@DU?$char_traits@D@std@@V?$allocator@D@2@@std@@AEBV?$basic_string_view@DU?$char_traits@D@std@@@2@000AEAY0BE@$$CBDAEBV12@AEAY0BL@$$CBD@Z
	??$StrCat@$$V@BT@@YA?AV?$basic_string@DU?$char_traits@D@std@@V?$allocator@D@2@@std@@AEBV?$basic_string_view@DU?$char_traits@D@std@@@2@000@Z
	??$WriteScalar@C@flatbuffers@@YAXPEAXC@Z
	??$WriteScalar@G@flatbuffers@@YAXPEAXG@Z
	??$WriteScalar@H@flatbuffers@@YAXPEAXH@Z
	??$WriteScalar@I@flatbuffers@@YAXPEAXI@Z
	??$WriteScalar@_J@flatbuffers@@YAXPEAX_J@Z
	??$_Adl_verify_range@PEADPEAD@std@@YAXAEBQEAD0@Z
	??$_Adl_verify_range@PEAPEAXPEAPEAX@std@@YAXAEBQEAPEAX0@Z
	??$_Adl_verify_range@PEAV?$_List_unchecked_iterator@V?$_List_val@U?$_List_simple_types@U?$pair@$$CBV?$basic_string@DU?$char_traits@D@std@@V?$allocator@D@2@@std@@H@std@@@std@@@std@@@std@@PEAV12@@std@@YAXAEBQEAV?$_List_unchecked_iterator@V?$_List_val@U?$_List_simple_types@U?$pair@$$CBV?$basic_string@DU?$char_traits@D@std@@V?$allocator@D@2@@std@@H@std@@@std@@@std@@@0@0@Z
	??$_Adl_verify_range@PEAV?$_List_unchecked_iterator@V?$_List_val@U?$_List_simple_types@U?$pair@$$CBV?$basic_string@DU?$char_traits@D@std@@V?$allocator@D@2@@std@@UEntry@Blackboard@BT@@@std@@@std@@@std@@@std@@PEAV12@@std@@YAXAEBQEAV?$_List_unchecked_iterator@V?$_List_val@U?$_List_simple_types@U?$pair@$$CBV?$basic_string@DU?$char_traits@D@std@@V?$allocator@D@2@@std@@UEntry@Blackboard@BT@@@std@@@std@@@std@@@0@0@Z
	??$_Adl_verify_range@PEAV?$_List_unchecked_iterator@V?$_List_val@U?$_List_simple_types@U?$pair@$$CBV?$basic_string@DU?$char_traits@D@std@@V?$allocator@D@2@@std@@UTreeNodeManifest@BT@@@std@@@std@@@std@@@std@@PEAV12@@std@@YAXAEBQEAV?$_List_unchecked_iterator@V?$_List_val@U?$_List_simple_types@U?$pair@$$CBV?$basic_string@DU?$char_traits@D@std@@V?$allocator@D@2@@std@@UTreeNodeManifest@BT@@@std@@@std@@@std@@@0@0@Z
	??$_Adl_verify_range@PEAV?$_List_unchecked_iterator@V?$_List_val@U?$_List_simple_types@U?$pair@$$CBV?$basic_string@DU?$char_traits@D@std@@V?$allocator@D@2@@std@@V12@@std@@@std@@@std@@@std@@PEAV12@@std@@YAXAEBQEAV?$_List_unchecked_iterator@V?$_List_val@U?$_List_simple_types@U?$pair@$$CBV?$basic_string@DU?$char_traits@D@std@@V?$allocator@D@2@@std@@V12@@std@@@std@@@std@@@0@0@Z
	??$_Adl_verify_range@PEAV?$_List_unchecked_iterator@V?$_List_val@U?$_List_simple_types@U?$pair@$$CBV?$basic_string@DU?$char_traits@D@std@@V?$allocator@D@2@@std@@V?$function@$$A6A?AV?$unique_ptr@VTreeNode@BT@@U?$default_delete@VTreeNode@BT@@@std@@@std@@AEBV?$basic_string@DU?$char_traits@D@std@@V?$allocator@D@2@@2@AEBUNodeConfig@BT@@@Z@2@@std@@@std@@@std@@@std@@PEAV12@@std@@YAXAEBQEAV?$_List_unchecked_iterator@V?$_List_val@U?$_List_simple_types@U?$pair@$$CBV?$basic_string@DU?$char_traits@D@std@@V?$allocator@D@2@@std@@V?$function@$$A6A?AV?$unique_ptr@VTreeNode@BT@@U?$default_delete@VTreeNode@BT@@@std@@@std@@AEBV?$basic_string@DU?$char_traits@D@std@@V?$allocator@D@2@@2@AEBUNodeConfig@BT@@@Z@2@@std@@@std@@@std@@@0@0@Z
	??$_Adl_verify_range@PEAV?$_List_unchecked_iterator@V?$_List_val@U?$_List_simple_types@U?$pair@$$CBV?$basic_string@DU?$char_traits@D@std@@V?$allocator@D@2@@std@@VAny@BT@@@std@@@std@@@std@@@std@@PEAV12@@std@@YAXAEBQEAV?$_List_unchecked_iterator@V?$_List_val@U?$_List_simple_types@U?$pair@$$CBV?$basic_string@DU?$char_traits@D@std@@V?$allocator@D@2@@std@@VAny@BT@@@std@@@std@@@std@@@0@0@Z
	??$_Adl_verify_range@PEAV?$_List_unchecked_iterator@V?$_List_val@U?$_List_simple_types@U?$pair@$$CBV?$basic_string@DU?$char_traits@D@std@@V?$allocator@D@2@@std@@VPortInfo@BT@@@std@@@std@@@std@@@std@@PEAV12@@std@@YAXAEBQEAV?$_List_unchecked_iterator@V?$_List_val@U?$_List_simple_types@U?$pair@$$CBV?$basic_string@DU?$char_traits@D@std@@V?$allocator@D@2@@std@@VPortInfo@BT@@@std@@@std@@@std@@@0@0@Z
	??$_Adl_verify_range@PEAV?$_List_unchecked_iterator@V?$_List_val@U?$_List_simple_types@U?$pair@$$CBV?$basic_string@DU?$char_traits@D@std@@V?$allocator@D@2@@std@@W4NodeType@BT@@@std@@@std@@@std@@@std@@PEAV12@@std@@YAXAEBQEAV?$_List_unchecked_iterator@V?$_List_val@U?$_List_simple_types@U?$pair@$$CBV?$basic_string@DU?$char_traits@D@std@@V?$allocator@D@2@@std@@W4NodeType@BT@@@std@@@std@@@std@@@0@0@Z
	??$_Adl_verify_range@PEBDPEBD@std@@YAXAEBQEBD0@Z
	??$_Adl_verify_range@PEBU?$pair@$$CBV?$basic_string@DU?$char_traits@D@std@@V?$allocator@D@2@@std@@VPortInfo@BT@@@std@@PEBU12@@std@@YAXAEBQEBU?$pair@$$CBV?$basic_string@DU?$char_traits@D@std@@V?$allocator@D@2@@std@@VPortInfo@BT@@@0@0@Z
	??$_Adl_verify_range@PEB_QPEB_Q@std@@YAXAEBQEB_Q0@Z
	??$_Adl_verify_range@PEB_WPEB_W@std@@YAXAEBQEB_W0@Z
	??$_Adl_verify_range@V?$_List_unchecked_const_iterator@V?$_List_val@U?$_List_simple_types@U?$pair@$$CBV?$basic_string@DU?$char_traits@D@std@@V?$allocator@D@2@@std@@V12@@std@@@std@@@std@@U_Iterator_base0@2@@std@@V12@@std@@YAXAEBV?$_List_unchecked_const_iterator@V?$_List_val@U?$_List_simple_types@U?$pair@$$CBV?$basic_string@DU?$char_traits@D@std@@V?$allocator@D@2@@std@@V12@@std@@@std@@@std@@U_Iterator_base0@2@@0@0@Z
	??$_Adl_verify_range@V?$_List_unchecked_const_iterator@V?$_List_val@U?$_List_simple_types@U?$pair@$$CBV?$basic_string@DU?$char_traits@D@std@@V?$allocator@D@2@@std@@VPortInfo@BT@@@std@@@std@@@std@@U_Iterator_base0@2@@std@@V12@@std@@YAXAEBV?$_List_unchecked_const_iterator@V?$_List_val@U?$_List_simple_types@U?$pair@$$CBV?$basic_string@DU?$char_traits@D@std@@V?$allocator@D@2@@std@@VPortInfo@BT@@@std@@@std@@@std@@U_Iterator_base0@2@@0@0@Z
	??$_Adl_verify_range@V?$_Vector_iterator@V?$_Vector_val@U?$_Simple_types@UWorkItem@?$TimerQueue@Usteady_clock@chrono@std@@V?$duration@_JU?$ratio@$00$0DLJKMKAA@@std@@@23@@BT@@@std@@@std@@@std@@V12@@std@@YAXAEBV?$_Vector_iterator@V?$_Vector_val@U?$_Simple_types@UWorkItem@?$TimerQueue@Usteady_clock@chrono@std@@V?$duration@_JU?$ratio@$00$0DLJKMKAA@@std@@@23@@BT@@@std@@@std@@@0@0@Z
	??$_Allocate@$0BA@U_Default_allocate_traits@std@@$0A@@std@@YAPEAX_K@Z
	??$_Allocate_manually_vector_aligned@U_Default_allocate_traits@std@@@std@@YAPEAX_K@Z
	??$_Allocators_equal@V?$allocator@D@std@@@std@@YA_NAEBV?$allocator@D@0@0@Z
	??$_Append_range_unchecked@V?$_List_unchecked_const_iterator@V?$_List_val@U?$_List_simple_types@U?$pair@$$CBV?$basic_string@DU?$char_traits@D@std@@V?$allocator@D@2@@std@@UTreeNodeManifest@BT@@@std@@@std@@@std@@U_Iterator_base0@2@@std@@V12@@?$_List_node_insert_op2@V?$allocator@U?$_List_node@U?$pair@$$CBV?$basic_string@DU?$char_traits@D@std@@V?$allocator@D@2@@std@@UTreeNodeManifest@BT@@@std@@PEAX@std@@@std@@@std@@QEAAXV?$_List_unchecked_const_iterator@V?$_List_val@U?$_List_simple_types@U?$pair@$$CBV?$basic_string@DU?$char_traits@D@std@@V?$allocator@D@2@@std@@UTreeNodeManifest@BT@@@std@@@std@@@std@@U_Iterator_base0@2@@1@V21@@Z
	??$_Append_range_unchecked@V?$_List_unchecked_const_iterator@V?$_List_val@U?$_List_simple_types@U?$pair@$$CBV?$basic_string@DU?$char_traits@D@std@@V?$allocator@D@2@@std@@V12@@std@@@std@@@std@@U_Iterator_base0@2@@std@@V12@@?$_List_node_insert_op2@V?$allocator@U?$_List_node@U?$pair@$$CBV?$basic_string@DU?$char_traits@D@std@@V?$allocator@D@2@@std@@V12@@std@@PEAX@std@@@std@@@std@@QEAAXV?$_List_unchecked_const_iterator@V?$_List_val@U?$_List_simple_types@U?$pair@$$CBV?$basic_string@DU?$char_traits@D@std@@V?$allocator@D@2@@std@@V12@@std@@@std@@@std@@U_Iterator_base0@2@@1@V21@@Z
	??$_Append_range_unchecked@V?$_List_unchecked_const_iterator@V?$_List_val@U?$_List_simple_types@U?$pair@$$CBV?$basic_string@DU?$char_traits@D@std@@V?$allocator@D@2@@std@@VPortInfo@BT@@@std@@@std@@@std@@U_Iterator_base0@2@@std@@V12@@?$_List_node_insert_op2@V?$allocator@U?$_List_node@U?$pair@$$CBV?$basic_string@DU?$char_traits@D@std@@V?$allocator@D@2@@std@@VPortInfo@BT@@@std@@PEAX@std@@@std@@@std@@QEAAXV?$_List_unchecked_const_iterator@V?$_List_val@U?$_List_simple_types@U?$pair@$$CBV?$basic_string@DU?$char_traits@D@std@@V?$allocator@D@2@@std@@VPortInfo@BT@@@std@@@std@@@std@@U_Iterator_base0@2@@1@V21@@Z
	??$_Assign_cast@AEAU?$pair@V?$basic_string@DU?$char_traits@D@std@@V?$allocator@D@2@@std@@UTreeNodeManifest@BT@@@std@@V?$_List_unchecked_const_iterator@V?$_List_val@U?$_List_simple_types@U?$pair@$$CBV?$basic_string@DU?$char_traits@D@std@@V?$allocator@D@2@@std@@UTreeNodeManifest@BT@@@std@@@std@@@std@@U_Iterator_base0@2@@2@@?$list@U?$pair@$$CBV?$basic_string@DU?$char_traits@D@std@@V?$allocator@D@2@@std@@UTreeNodeManifest@BT@@@std@@V?$allocator@U?$pair@$$CBV?$basic_string@DU?$char_traits@D@std@@V?$allocator@D@2@@std@@UTreeNodeManifest@BT@@@std@@@2@@std@@AEAAXV?$_List_unchecked_const_iterator@V?$_List_val@U?$_List_simple_types@U?$pair@$$CBV?$basic_string@DU?$char_traits@D@std@@V?$allocator@D@2@@std@@UTreeNodeManifest@BT@@@std@@@std@@@std@@U_Iterator_base0@2@@1@V21@@Z
	??$_Assign_cast@AEAU?$pair@V?$basic_string@DU?$char_traits@D@std@@V?$allocator@D@2@@std@@V12@@std@@V?$_List_unchecked_const_iterator@V?$_List_val@U?$_List_simple_types@U?$pair@$$CBV?$basic_string@DU?$char_traits@D@std@@V?$allocator@D@2@@std@@V12@@std@@@std@@@std@@U_Iterator_base0@2@@2@@?$list@U?$pair@$$CBV?$basic_string@DU?$char_traits@D@std@@V?$allocator@D@2@@std@@V12@@std@@V?$allocator@U?$pair@$$CBV?$basic_string@DU?$char_traits@D@std@@V?$allocator@D@2@@std@@V12@@std@@@2@@std@@AEAAXV?$_List_unchecked_const_iterator@V?$_List_val@U?$_List_simple_types@U?$pair@$$CBV?$basic_string@DU?$char_traits@D@std@@V?$allocator@D@2@@std@@V12@@std@@@std@@@std@@U_Iterator_base0@2@@1@V21@@Z
	??$_Assign_cast@AEAU?$pair@V?$basic_string@DU?$char_traits@D@std@@V?$allocator@D@2@@std@@VPortInfo@BT@@@std@@V?$_List_unchecked_const_iterator@V?$_List_val@U?$_List_simple_types@U?$pair@$$CBV?$basic_string@DU?$char_traits@D@std@@V?$allocator@D@2@@std@@VPortInfo@BT@@@std@@@std@@@std@@U_Iterator_base0@2@@2@@?$list@U?$pair@$$CBV?$basic_string@DU?$char_traits@D@std@@V?$allocator@D@2@@std@@VPortInfo@BT@@@std@@V?$allocator@U?$pair@$$CBV?$basic_string@DU?$char_traits@D@std@@V?$allocator@D@2@@std@@VPortInfo@BT@@@std@@@2@@std@@AEAAXV?$_List_unchecked_const_iterator@V?$_List_val@U?$_List_simple_types@U?$pair@$$CBV?$basic_string@DU?$char_traits@D@std@@V?$allocator@D@2@@std@@VPortInfo@BT@@@std@@@std@@@std@@U_Iterator_base0@2@@1@V21@@Z
	??$_Assign_range@PEAPEAX@?$vector@PEAXV?$allocator@PEAX@std@@@std@@AEAAXPEAPEAX0Uforward_iterator_tag@1@@Z
	??$_Atomic_address_as@DU?$_Atomic_padded@_N@std@@@std@@YAPECDAEAU?$_Atomic_padded@_N@0@@Z
	??$_Atomic_address_as@DU?$_Atomic_padded@_N@std@@@std@@YAPEDDAEBU?$_Atomic_padded@_N@0@@Z
	??$_Atomic_address_as@HU?$_Atomic_padded@J@std@@@std@@YAPEDHAEBU?$_Atomic_padded@J@0@@Z
	??$_Atomic_address_as@JU?$_Atomic_padded@J@std@@@std@@YAPECJAEAU?$_Atomic_padded@J@0@@Z
	??$_Atomic_reinterpret_as@D_N@std@@YADAEB_N@Z
	??$_Atomic_reinterpret_as@JJ@std@@YAJAEBJ@Z
	??$_Attach_at_end@U?$_List_simple_types@U?$pair@$$CBV?$basic_string@DU?$char_traits@D@std@@V?$allocator@D@2@@std@@UTreeNodeManifest@BT@@@std@@@std@@@?$_List_node_insert_op2@V?$allocator@U?$_List_node@U?$pair@$$CBV?$basic_string@DU?$char_traits@D@std@@V?$allocator@D@2@@std@@UTreeNodeManifest@BT@@@std@@PEAX@std@@@std@@@std@@QEAAXAEAV?$_List_val@U?$_List_simple_types@U?$pair@$$CBV?$basic_string@DU?$char_traits@D@std@@V?$allocator@D@2@@std@@UTreeNodeManifest@BT@@@std@@@std@@@1@@Z
	??$_Attach_at_end@U?$_List_simple_types@U?$pair@$$CBV?$basic_string@DU?$char_traits@D@std@@V?$allocator@D@2@@std@@V12@@std@@@std@@@?$_List_node_insert_op2@V?$allocator@U?$_List_node@U?$pair@$$CBV?$basic_string@DU?$char_traits@D@std@@V?$allocator@D@2@@std@@V12@@std@@PEAX@std@@@std@@@std@@QEAAXAEAV?$_List_val@U?$_List_simple_types@U?$pair@$$CBV?$basic_string@DU?$char_traits@D@std@@V?$allocator@D@2@@std@@V12@@std@@@std@@@1@@Z
	??$_Attach_at_end@U?$_List_simple_types@U?$pair@$$CBV?$basic_string@DU?$char_traits@D@std@@V?$allocator@D@2@@std@@VPortInfo@BT@@@std@@@std@@@?$_List_node_insert_op2@V?$allocator@U?$_List_node@U?$pair@$$CBV?$basic_string@DU?$char_traits@D@std@@V?$allocator@D@2@@std@@VPortInfo@BT@@@std@@PEAX@std@@@std@@@std@@QEAAXAEAV?$_List_val@U?$_List_simple_types@U?$pair@$$CBV?$basic_string@DU?$char_traits@D@std@@V?$allocator@D@2@@std@@VPortInfo@BT@@@std@@@std@@@1@@Z
	??$_Attach_before@U?$_List_simple_types@U?$pair@$$CBV?$basic_string@DU?$char_traits@D@std@@V?$allocator@D@2@@std@@UTreeNodeManifest@BT@@@std@@@std@@@?$_List_node_insert_op2@V?$allocator@U?$_List_node@U?$pair@$$CBV?$basic_string@DU?$char_traits@D@std@@V?$allocator@D@2@@std@@UTreeNodeManifest@BT@@@std@@PEAX@std@@@std@@@std@@QEAAPEAU?$_List_node@U?$pair@$$CBV?$basic_string@DU?$char_traits@D@std@@V?$allocator@D@2@@std@@UTreeNodeManifest@BT@@@std@@PEAX@1@AEAV?$_List_val@U?$_List_simple_types@U?$pair@$$CBV?$basic_string@DU?$char_traits@D@std@@V?$allocator@D@2@@std@@UTreeNodeManifest@BT@@@std@@@std@@@1@QEAU21@@Z
	??$_Attach_before@U?$_List_simple_types@U?$pair@$$CBV?$basic_string@DU?$char_traits@D@std@@V?$allocator@D@2@@std@@V12@@std@@@std@@@?$_List_node_insert_op2@V?$allocator@U?$_List_node@U?$pair@$$CBV?$basic_string@DU?$char_traits@D@std@@V?$allocator@D@2@@std@@V12@@std@@PEAX@std@@@std@@@std@@QEAAPEAU?$_List_node@U?$pair@$$CBV?$basic_string@DU?$char_traits@D@std@@V?$allocator@D@2@@std@@V12@@std@@PEAX@1@AEAV?$_List_val@U?$_List_simple_types@U?$pair@$$CBV?$basic_string@DU?$char_traits@D@std@@V?$allocator@D@2@@std@@V12@@std@@@std@@@1@QEAU21@@Z
	??$_Attach_before@U?$_List_simple_types@U?$pair@$$CBV?$basic_string@DU?$char_traits@D@std@@V?$allocator@D@2@@std@@VPortInfo@BT@@@std@@@std@@@?$_List_node_insert_op2@V?$allocator@U?$_List_node@U?$pair@$$CBV?$basic_string@DU?$char_traits@D@std@@V?$allocator@D@2@@std@@VPortInfo@BT@@@std@@PEAX@std@@@std@@@std@@QEAAPEAU?$_List_node@U?$pair@$$CBV?$basic_string@DU?$char_traits@D@std@@V?$allocator@D@2@@std@@VPortInfo@BT@@@std@@PEAX@1@AEAV?$_List_val@U?$_List_simple_types@U?$pair@$$CBV?$basic_string@DU?$char_traits@D@std@@V?$allocator@D@2@@std@@VPortInfo@BT@@@std@@@std@@@1@QEAU21@@Z
	??$_Buyheadnode@V?$allocator@U?$_Tree_node@U?$pair@$$CBV?$basic_string@DU?$char_traits@D@std@@V?$allocator@D@2@@std@@PEBVXMLElement@tinyxml2@@@std@@PEAX@std@@@std@@@?$_Tree_node@U?$pair@$$CBV?$basic_string@DU?$char_traits@D@std@@V?$allocator@D@2@@std@@PEBVXMLElement@tinyxml2@@@std@@PEAX@std@@SAPEAU01@AEAV?$allocator@U?$_Tree_node@U?$pair@$$CBV?$basic_string@DU?$char_traits@D@std@@V?$allocator@D@2@@std@@PEBVXMLElement@tinyxml2@@@std@@PEAX@std@@@1@@Z
	??$_Buyheadnode@V?$allocator@U?$_Tree_node@U?$pair@$$CBW4PostCond@BT@@V?$basic_string@DU?$char_traits@D@std@@V?$allocator@D@2@@std@@@std@@PEAX@std@@@std@@@?$_Tree_node@U?$pair@$$CBW4PostCond@BT@@V?$basic_string@DU?$char_traits@D@std@@V?$allocator@D@2@@std@@@std@@PEAX@std@@SAPEAU01@AEAV?$allocator@U?$_Tree_node@U?$pair@$$CBW4PostCond@BT@@V?$basic_string@DU?$char_traits@D@std@@V?$allocator@D@2@@std@@@std@@PEAX@std@@@1@@Z
	??$_Buyheadnode@V?$allocator@U?$_Tree_node@U?$pair@$$CBW4PreCond@BT@@V?$basic_string@DU?$char_traits@D@std@@V?$allocator@D@2@@std@@@std@@PEAX@std@@@std@@@?$_Tree_node@U?$pair@$$CBW4PreCond@BT@@V?$basic_string@DU?$char_traits@D@std@@V?$allocator@D@2@@std@@@std@@PEAX@std@@SAPEAU01@AEAV?$allocator@U?$_Tree_node@U?$pair@$$CBW4PreCond@BT@@V?$basic_string@DU?$char_traits@D@std@@V?$allocator@D@2@@std@@@std@@PEAX@std@@@1@@Z
	??$_Buyheadnode@V?$allocator@U?$_Tree_node@V?$basic_string@DU?$char_traits@D@std@@V?$allocator@D@2@@std@@PEAX@std@@@std@@@?$_Tree_node@V?$basic_string@DU?$char_traits@D@std@@V?$allocator@D@2@@std@@PEAX@std@@SAPEAU01@AEAV?$allocator@U?$_Tree_node@V?$basic_string@DU?$char_traits@D@std@@V?$allocator@D@2@@std@@PEAX@std@@@1@@Z
	??$_Buyheadnode@V?$allocator@U?$_Tree_node@V?$basic_string_view@DU?$char_traits@D@std@@@std@@PEAX@std@@@std@@@?$_Tree_node@V?$basic_string_view@DU?$char_traits@D@std@@@std@@PEAX@std@@SAPEAU01@AEAV?$allocator@U?$_Tree_node@V?$basic_string_view@DU?$char_traits@D@std@@@std@@PEAX@std@@@1@@Z
	??$_Buyheadnode@V?$allocator@U?$_Tree_node@_KPEAX@std@@@std@@@?$_Tree_node@_KPEAX@std@@SAPEAU01@AEAV?$allocator@U?$_Tree_node@_KPEAX@std@@@1@@Z
	??$_Buynode@AEAU?$pair@$$CBW4PostCond@BT@@V?$basic_string@DU?$char_traits@D@std@@V?$allocator@D@2@@std@@@std@@@?$_Tree@V?$_Tmap_traits@W4PostCond@BT@@V?$basic_string@DU?$char_traits@D@std@@V?$allocator@D@2@@std@@U?$less@W4PostCond@BT@@@4@V?$allocator@U?$pair@$$CBW4PostCond@BT@@V?$basic_string@DU?$char_traits@D@std@@V?$allocator@D@2@@std@@@std@@@4@$0A@@std@@@std@@IEAAPEAU?$_Tree_node@U?$pair@$$CBW4PostCond@BT@@V?$basic_string@DU?$char_traits@D@std@@V?$allocator@D@2@@std@@@std@@PEAX@1@AEAU?$pair@$$CBW4PostCond@BT@@V?$basic_string@DU?$char_traits@D@std@@V?$allocator@D@2@@std@@@1@@Z
	??$_Buynode@AEAU?$pair@$$CBW4PreCond@BT@@V?$basic_string@DU?$char_traits@D@std@@V?$allocator@D@2@@std@@@std@@@?$_Tree@V?$_Tmap_traits@W4PreCond@BT@@V?$basic_string@DU?$char_traits@D@std@@V?$allocator@D@2@@std@@U?$less@W4PreCond@BT@@@4@V?$allocator@U?$pair@$$CBW4PreCond@BT@@V?$basic_string@DU?$char_traits@D@std@@V?$allocator@D@2@@std@@@std@@@4@$0A@@std@@@std@@IEAAPEAU?$_Tree_node@U?$pair@$$CBW4PreCond@BT@@V?$basic_string@DU?$char_traits@D@std@@V?$allocator@D@2@@std@@@std@@PEAX@1@AEAU?$pair@$$CBW4PreCond@BT@@V?$basic_string@DU?$char_traits@D@std@@V?$allocator@D@2@@std@@@1@@Z
	??$_Buynode@V?$allocator@U?$_Tree_node@U?$pair@$$CBW4PostCond@BT@@V?$basic_string@DU?$char_traits@D@std@@V?$allocator@D@2@@std@@@std@@PEAX@std@@@std@@AEAU?$pair@$$CBW4PostCond@BT@@V?$basic_string@DU?$char_traits@D@std@@V?$allocator@D@2@@std@@@2@@?$_Tree_node@U?$pair@$$CBW4PostCond@BT@@V?$basic_string@DU?$char_traits@D@std@@V?$allocator@D@2@@std@@@std@@PEAX@std@@SAPEAU01@AEAV?$allocator@U?$_Tree_node@U?$pair@$$CBW4PostCond@BT@@V?$basic_string@DU?$char_traits@D@std@@V?$allocator@D@2@@std@@@std@@PEAX@std@@@1@PEAU01@AEAU?$pair@$$CBW4PostCond@BT@@V?$basic_string@DU?$char_traits@D@std@@V?$allocator@D@2@@std@@@1@@Z
	??$_Buynode@V?$allocator@U?$_Tree_node@U?$pair@$$CBW4PreCond@BT@@V?$basic_string@DU?$char_traits@D@std@@V?$allocator@D@2@@std@@@std@@PEAX@std@@@std@@AEAU?$pair@$$CBW4PreCond@BT@@V?$basic_string@DU?$char_traits@D@std@@V?$allocator@D@2@@std@@@2@@?$_Tree_node@U?$pair@$$CBW4PreCond@BT@@V?$basic_string@DU?$char_traits@D@std@@V?$allocator@D@2@@std@@@std@@PEAX@std@@SAPEAU01@AEAV?$allocator@U?$_Tree_node@U?$pair@$$CBW4PreCond@BT@@V?$basic_string@DU?$char_traits@D@std@@V?$allocator@D@2@@std@@@std@@PEAX@std@@@1@PEAU01@AEAU?$pair@$$CBW4PreCond@BT@@V?$basic_string@DU?$char_traits@D@std@@V?$allocator@D@2@@std@@@1@@Z
	??$_Call@AEAV<lambda_1>@?1???$CreateBuilder@V?$SwitchNode@$01@BT@@$$V@BT@@YA?AV?$function@$$A6A?AV?$unique_ptr@VTreeNode@BT@@U?$default_delete@VTreeNode@BT@@@std@@@std@@AEBV?$basic_string@DU?$char_traits@D@std@@V?$allocator@D@2@@2@AEBUNodeConfig@BT@@@Z@std@@XZ@AEBV?$basic_string@DU?$char_traits@D@std@@V?$allocator@D@2@@4@AEBUNodeConfig@2@@?$_Invoker_ret@V?$unique_ptr@VTreeNode@BT@@U?$default_delete@VTreeNode@BT@@@std@@@std@@$0A@@std@@SA?AV?$unique_ptr@VTreeNode@BT@@U?$default_delete@VTreeNode@BT@@@std@@@1@AEAV<lambda_1>@?1???$CreateBuilder@V?$SwitchNode@$01@BT@@$$V@BT@@YA?AV?$function@$$A6A?AV?$unique_ptr@VTreeNode@BT@@U?$default_delete@VTreeNode@BT@@@std@@@std@@AEBV?$basic_string@DU?$char_traits@D@std@@V?$allocator@D@2@@2@AEBUNodeConfig@BT@@@Z@1@XZ@AEBV?$basic_string@DU?$char_traits@D@std@@V?$allocator@D@2@@1@AEBUNodeConfig@4@@Z
	??$_Call@AEAV<lambda_1>@?1???$CreateBuilder@V?$SwitchNode@$02@BT@@$$V@BT@@YA?AV?$function@$$A6A?AV?$unique_ptr@VTreeNode@BT@@U?$default_delete@VTreeNode@BT@@@std@@@std@@AEBV?$basic_string@DU?$char_traits@D@std@@V?$allocator@D@2@@2@AEBUNodeConfig@BT@@@Z@std@@XZ@AEBV?$basic_string@DU?$char_traits@D@std@@V?$allocator@D@2@@4@AEBUNodeConfig@2@@?$_Invoker_ret@V?$unique_ptr@VTreeNode@BT@@U?$default_delete@VTreeNode@BT@@@std@@@std@@$0A@@std@@SA?AV?$unique_ptr@VTreeNode@BT@@U?$default_delete@VTreeNode@BT@@@std@@@1@AEAV<lambda_1>@?1???$CreateBuilder@V?$SwitchNode@$02@BT@@$$V@BT@@YA?AV?$function@$$A6A?AV?$unique_ptr@VTreeNode@BT@@U?$default_delete@VTreeNode@BT@@@std@@@std@@AEBV?$basic_string@DU?$char_traits@D@std@@V?$allocator@D@2@@2@AEBUNodeConfig@BT@@@Z@1@XZ@AEBV?$basic_string@DU?$char_traits@D@std@@V?$allocator@D@2@@1@AEBUNodeConfig@4@@Z
	??$_Call@AEAV<lambda_1>@?1???$CreateBuilder@V?$SwitchNode@$03@BT@@$$V@BT@@YA?AV?$function@$$A6A?AV?$unique_ptr@VTreeNode@BT@@U?$default_delete@VTreeNode@BT@@@std@@@std@@AEBV?$basic_string@DU?$char_traits@D@std@@V?$allocator@D@2@@2@AEBUNodeConfig@BT@@@Z@std@@XZ@AEBV?$basic_string@DU?$char_traits@D@std@@V?$allocator@D@2@@4@AEBUNodeConfig@2@@?$_Invoker_ret@V?$unique_ptr@VTreeNode@BT@@U?$default_delete@VTreeNode@BT@@@std@@@std@@$0A@@std@@SA?AV?$unique_ptr@VTreeNode@BT@@U?$default_delete@VTreeNode@BT@@@std@@@1@AEAV<lambda_1>@?1???$CreateBuilder@V?$SwitchNode@$03@BT@@$$V@BT@@YA?AV?$function@$$A6A?AV?$unique_ptr@VTreeNode@BT@@U?$default_delete@VTreeNode@BT@@@std@@@std@@AEBV?$basic_string@DU?$char_traits@D@std@@V?$allocator@D@2@@2@AEBUNodeConfig@BT@@@Z@1@XZ@AEBV?$basic_string@DU?$char_traits@D@std@@V?$allocator@D@2@@1@AEBUNodeConfig@4@@Z
	??$_Call@AEAV<lambda_1>@?1???$CreateBuilder@V?$SwitchNode@$04@BT@@$$V@BT@@YA?AV?$function@$$A6A?AV?$unique_ptr@VTreeNode@BT@@U?$default_delete@VTreeNode@BT@@@std@@@std@@AEBV?$basic_string@DU?$char_traits@D@std@@V?$allocator@D@2@@2@AEBUNodeConfig@BT@@@Z@std@@XZ@AEBV?$basic_string@DU?$char_traits@D@std@@V?$allocator@D@2@@4@AEBUNodeConfig@2@@?$_Invoker_ret@V?$unique_ptr@VTreeNode@BT@@U?$default_delete@VTreeNode@BT@@@std@@@std@@$0A@@std@@SA?AV?$unique_ptr@VTreeNode@BT@@U?$default_delete@VTreeNode@BT@@@std@@@1@AEAV<lambda_1>@?1???$CreateBuilder@V?$SwitchNode@$04@BT@@$$V@BT@@YA?AV?$function@$$A6A?AV?$unique_ptr@VTreeNode@BT@@U?$default_delete@VTreeNode@BT@@@std@@@std@@AEBV?$basic_string@DU?$char_traits@D@std@@V?$allocator@D@2@@2@AEBUNodeConfig@BT@@@Z@1@XZ@AEBV?$basic_string@DU?$char_traits@D@std@@V?$allocator@D@2@@1@AEBUNodeConfig@4@@Z
	??$_Call@AEAV<lambda_1>@?1???$CreateBuilder@V?$SwitchNode@$05@BT@@$$V@BT@@YA?AV?$function@$$A6A?AV?$unique_ptr@VTreeNode@BT@@U?$default_delete@VTreeNode@BT@@@std@@@std@@AEBV?$basic_string@DU?$char_traits@D@std@@V?$allocator@D@2@@2@AEBUNodeConfig@BT@@@Z@std@@XZ@AEBV?$basic_string@DU?$char_traits@D@std@@V?$allocator@D@2@@4@AEBUNodeConfig@2@@?$_Invoker_ret@V?$unique_ptr@VTreeNode@BT@@U?$default_delete@VTreeNode@BT@@@std@@@std@@$0A@@std@@SA?AV?$unique_ptr@VTreeNode@BT@@U?$default_delete@VTreeNode@BT@@@std@@@1@AEAV<lambda_1>@?1???$CreateBuilder@V?$SwitchNode@$05@BT@@$$V@BT@@YA?AV?$function@$$A6A?AV?$unique_ptr@VTreeNode@BT@@U?$default_delete@VTreeNode@BT@@@std@@@std@@AEBV?$basic_string@DU?$char_traits@D@std@@V?$allocator@D@2@@2@AEBUNodeConfig@BT@@@Z@1@XZ@AEBV?$basic_string@DU?$char_traits@D@std@@V?$allocator@D@2@@1@AEBUNodeConfig@4@@Z
	??$_Call@AEAV<lambda_1>@?1???$CreateBuilder@V?$TimeoutNode@Usteady_clock@chrono@std@@V?$duration@_JU?$ratio@$00$0DLJKMKAA@@std@@@23@@BT@@$$V@BT@@YA?AV?$function@$$A6A?AV?$unique_ptr@VTreeNode@BT@@U?$default_delete@VTreeNode@BT@@@std@@@std@@AEBV?$basic_string@DU?$char_traits@D@std@@V?$allocator@D@2@@2@AEBUNodeConfig@BT@@@Z@std@@XZ@AEBV?$basic_string@DU?$char_traits@D@std@@V?$allocator@D@2@@4@AEBUNodeConfig@2@@?$_Invoker_ret@V?$unique_ptr@VTreeNode@BT@@U?$default_delete@VTreeNode@BT@@@std@@@std@@$0A@@std@@SA?AV?$unique_ptr@VTreeNode@BT@@U?$default_delete@VTreeNode@BT@@@std@@@1@AEAV<lambda_1>@?1???$CreateBuilder@V?$TimeoutNode@Usteady_clock@chrono@std@@V?$duration@_JU?$ratio@$00$0DLJKMKAA@@std@@@23@@BT@@$$V@BT@@YA?AV?$function@$$A6A?AV?$unique_ptr@VTreeNode@BT@@U?$default_delete@VTreeNode@BT@@@std@@@std@@AEBV?$basic_string@DU?$char_traits@D@std@@V?$allocator@D@2@@2@AEBUNodeConfig@BT@@@Z@1@XZ@AEBV?$basic_string@DU?$char_traits@D@std@@V?$allocator@D@2@@1@AEBUNodeConfig@4@@Z
	??$_Call@AEAV<lambda_1>@?1???$CreateBuilder@VAlwaysFailureNode@BT@@$$V@BT@@YA?AV?$function@$$A6A?AV?$unique_ptr@VTreeNode@BT@@U?$default_delete@VTreeNode@BT@@@std@@@std@@AEBV?$basic_string@DU?$char_traits@D@std@@V?$allocator@D@2@@2@AEBUNodeConfig@BT@@@Z@std@@XZ@AEBV?$basic_string@DU?$char_traits@D@std@@V?$allocator@D@2@@4@AEBUNodeConfig@2@@?$_Invoker_ret@V?$unique_ptr@VTreeNode@BT@@U?$default_delete@VTreeNode@BT@@@std@@@std@@$0A@@std@@SA?AV?$unique_ptr@VTreeNode@BT@@U?$default_delete@VTreeNode@BT@@@std@@@1@AEAV<lambda_1>@?1???$CreateBuilder@VAlwaysFailureNode@BT@@$$V@BT@@YA?AV?$function@$$A6A?AV?$unique_ptr@VTreeNode@BT@@U?$default_delete@VTreeNode@BT@@@std@@@std@@AEBV?$basic_string@DU?$char_traits@D@std@@V?$allocator@D@2@@2@AEBUNodeConfig@BT@@@Z@1@XZ@AEBV?$basic_string@DU?$char_traits@D@std@@V?$allocator@D@2@@1@AEBUNodeConfig@4@@Z
	??$_Call@AEAV<lambda_1>@?1???$CreateBuilder@VAlwaysSuccessNode@BT@@$$V@BT@@YA?AV?$function@$$A6A?AV?$unique_ptr@VTreeNode@BT@@U?$default_delete@VTreeNode@BT@@@std@@@std@@AEBV?$basic_string@DU?$char_traits@D@std@@V?$allocator@D@2@@2@AEBUNodeConfig@BT@@@Z@std@@XZ@AEBV?$basic_string@DU?$char_traits@D@std@@V?$allocator@D@2@@4@AEBUNodeConfig@2@@?$_Invoker_ret@V?$unique_ptr@VTreeNode@BT@@U?$default_delete@VTreeNode@BT@@@std@@@std@@$0A@@std@@SA?AV?$unique_ptr@VTreeNode@BT@@U?$default_delete@VTreeNode@BT@@@std@@@1@AEAV<lambda_1>@?1???$CreateBuilder@VAlwaysSuccessNode@BT@@$$V@BT@@YA?AV?$function@$$A6A?AV?$unique_ptr@VTreeNode@BT@@U?$default_delete@VTreeNode@BT@@@std@@@std@@AEBV?$basic_string@DU?$char_traits@D@std@@V?$allocator@D@2@@2@AEBUNodeConfig@BT@@@Z@1@XZ@AEBV?$basic_string@DU?$char_traits@D@std@@V?$allocator@D@2@@1@AEBUNodeConfig@4@@Z
	??$_Call@AEAV<lambda_1>@?1???$CreateBuilder@VDelayNode@BT@@$$V@BT@@YA?AV?$function@$$A6A?AV?$unique_ptr@VTreeNode@BT@@U?$default_delete@VTreeNode@BT@@@std@@@std@@AEBV?$basic_string@DU?$char_traits@D@std@@V?$allocator@D@2@@2@AEBUNodeConfig@BT@@@Z@std@@XZ@AEBV?$basic_string@DU?$char_traits@D@std@@V?$allocator@D@2@@4@AEBUNodeConfig@2@@?$_Invoker_ret@V?$unique_ptr@VTreeNode@BT@@U?$default_delete@VTreeNode@BT@@@std@@@std@@$0A@@std@@SA?AV?$unique_ptr@VTreeNode@BT@@U?$default_delete@VTreeNode@BT@@@std@@@1@AEAV<lambda_1>@?1???$CreateBuilder@VDelayNode@BT@@$$V@BT@@YA?AV?$function@$$A6A?AV?$unique_ptr@VTreeNode@BT@@U?$default_delete@VTreeNode@BT@@@std@@@std@@AEBV?$basic_string@DU?$char_traits@D@std@@V?$allocator@D@2@@2@AEBUNodeConfig@BT@@@Z@1@XZ@AEBV?$basic_string@DU?$char_traits@D@std@@V?$allocator@D@2@@1@AEBUNodeConfig@4@@Z
	??$_Call@AEAV<lambda_1>@?1???$CreateBuilder@VFallbackNode@BT@@$$V@BT@@YA?AV?$function@$$A6A?AV?$unique_ptr@VTreeNode@BT@@U?$default_delete@VTreeNode@BT@@@std@@@std@@AEBV?$basic_string@DU?$char_traits@D@std@@V?$allocator@D@2@@2@AEBUNodeConfig@BT@@@Z@std@@XZ@AEBV?$basic_string@DU?$char_traits@D@std@@V?$allocator@D@2@@4@AEBUNodeConfig@2@@?$_Invoker_ret@V?$unique_ptr@VTreeNode@BT@@U?$default_delete@VTreeNode@BT@@@std@@@std@@$0A@@std@@SA?AV?$unique_ptr@VTreeNode@BT@@U?$default_delete@VTreeNode@BT@@@std@@@1@AEAV<lambda_1>@?1???$CreateBuilder@VFallbackNode@BT@@$$V@BT@@YA?AV?$function@$$A6A?AV?$unique_ptr@VTreeNode@BT@@U?$default_delete@VTreeNode@BT@@@std@@@std@@AEBV?$basic_string@DU?$char_traits@D@std@@V?$allocator@D@2@@2@AEBUNodeConfig@BT@@@Z@1@XZ@AEBV?$basic_string@DU?$char_traits@D@std@@V?$allocator@D@2@@1@AEBUNodeConfig@4@@Z
	??$_Call@AEAV<lambda_1>@?1???$CreateBuilder@VForceFailureNode@BT@@$$V@BT@@YA?AV?$function@$$A6A?AV?$unique_ptr@VTreeNode@BT@@U?$default_delete@VTreeNode@BT@@@std@@@std@@AEBV?$basic_string@DU?$char_traits@D@std@@V?$allocator@D@2@@2@AEBUNodeConfig@BT@@@Z@std@@XZ@AEBV?$basic_string@DU?$char_traits@D@std@@V?$allocator@D@2@@4@AEBUNodeConfig@2@@?$_Invoker_ret@V?$unique_ptr@VTreeNode@BT@@U?$default_delete@VTreeNode@BT@@@std@@@std@@$0A@@std@@SA?AV?$unique_ptr@VTreeNode@BT@@U?$default_delete@VTreeNode@BT@@@std@@@1@AEAV<lambda_1>@?1???$CreateBuilder@VForceFailureNode@BT@@$$V@BT@@YA?AV?$function@$$A6A?AV?$unique_ptr@VTreeNode@BT@@U?$default_delete@VTreeNode@BT@@@std@@@std@@AEBV?$basic_string@DU?$char_traits@D@std@@V?$allocator@D@2@@2@AEBUNodeConfig@BT@@@Z@1@XZ@AEBV?$basic_string@DU?$char_traits@D@std@@V?$allocator@D@2@@1@AEBUNodeConfig@4@@Z
	??$_Call@AEAV<lambda_1>@?1???$CreateBuilder@VForceSuccessNode@BT@@$$V@BT@@YA?AV?$function@$$A6A?AV?$unique_ptr@VTreeNode@BT@@U?$default_delete@VTreeNode@BT@@@std@@@std@@AEBV?$basic_string@DU?$char_traits@D@std@@V?$allocator@D@2@@2@AEBUNodeConfig@BT@@@Z@std@@XZ@AEBV?$basic_string@DU?$char_traits@D@std@@V?$allocator@D@2@@4@AEBUNodeConfig@2@@?$_Invoker_ret@V?$unique_ptr@VTreeNode@BT@@U?$default_delete@VTreeNode@BT@@@std@@@std@@$0A@@std@@SA?AV?$unique_ptr@VTreeNode@BT@@U?$default_delete@VTreeNode@BT@@@std@@@1@AEAV<lambda_1>@?1???$CreateBuilder@VForceSuccessNode@BT@@$$V@BT@@YA?AV?$function@$$A6A?AV?$unique_ptr@VTreeNode@BT@@U?$default_delete@VTreeNode@BT@@@std@@@std@@AEBV?$basic_string@DU?$char_traits@D@std@@V?$allocator@D@2@@2@AEBUNodeConfig@BT@@@Z@1@XZ@AEBV?$basic_string@DU?$char_traits@D@std@@V?$allocator@D@2@@1@AEBUNodeConfig@4@@Z
	??$_Call@AEAV<lambda_1>@?1???$CreateBuilder@VIfThenElseNode@BT@@$$V@BT@@YA?AV?$function@$$A6A?AV?$unique_ptr@VTreeNode@BT@@U?$default_delete@VTreeNode@BT@@@std@@@std@@AEBV?$basic_string@DU?$char_traits@D@std@@V?$allocator@D@2@@2@AEBUNodeConfig@BT@@@Z@std@@XZ@AEBV?$basic_string@DU?$char_traits@D@std@@V?$allocator@D@2@@4@AEBUNodeConfig@2@@?$_Invoker_ret@V?$unique_ptr@VTreeNode@BT@@U?$default_delete@VTreeNode@BT@@@std@@@std@@$0A@@std@@SA?AV?$unique_ptr@VTreeNode@BT@@U?$default_delete@VTreeNode@BT@@@std@@@1@AEAV<lambda_1>@?1???$CreateBuilder@VIfThenElseNode@BT@@$$V@BT@@YA?AV?$function@$$A6A?AV?$unique_ptr@VTreeNode@BT@@U?$default_delete@VTreeNode@BT@@@std@@@std@@AEBV?$basic_string@DU?$char_traits@D@std@@V?$allocator@D@2@@2@AEBUNodeConfig@BT@@@Z@1@XZ@AEBV?$basic_string@DU?$char_traits@D@std@@V?$allocator@D@2@@1@AEBUNodeConfig@4@@Z
	??$_Call@AEAV<lambda_1>@?1???$CreateBuilder@VInverterNode@BT@@$$V@BT@@YA?AV?$function@$$A6A?AV?$unique_ptr@VTreeNode@BT@@U?$default_delete@VTreeNode@BT@@@std@@@std@@AEBV?$basic_string@DU?$char_traits@D@std@@V?$allocator@D@2@@2@AEBUNodeConfig@BT@@@Z@std@@XZ@AEBV?$basic_string@DU?$char_traits@D@std@@V?$allocator@D@2@@4@AEBUNodeConfig@2@@?$_Invoker_ret@V?$unique_ptr@VTreeNode@BT@@U?$default_delete@VTreeNode@BT@@@std@@@std@@$0A@@std@@SA?AV?$unique_ptr@VTreeNode@BT@@U?$default_delete@VTreeNode@BT@@@std@@@1@AEAV<lambda_1>@?1???$CreateBuilder@VInverterNode@BT@@$$V@BT@@YA?AV?$function@$$A6A?AV?$unique_ptr@VTreeNode@BT@@U?$default_delete@VTreeNode@BT@@@std@@@std@@AEBV?$basic_string@DU?$char_traits@D@std@@V?$allocator@D@2@@2@AEBUNodeConfig@BT@@@Z@1@XZ@AEBV?$basic_string@DU?$char_traits@D@std@@V?$allocator@D@2@@1@AEBUNodeConfig@4@@Z
	??$_Call@AEAV<lambda_1>@?1???$CreateBuilder@VKeepRunningUntilFailureNode@BT@@$$V@BT@@YA?AV?$function@$$A6A?AV?$unique_ptr@VTreeNode@BT@@U?$default_delete@VTreeNode@BT@@@std@@@std@@AEBV?$basic_string@DU?$char_traits@D@std@@V?$allocator@D@2@@2@AEBUNodeConfig@BT@@@Z@std@@XZ@AEBV?$basic_string@DU?$char_traits@D@std@@V?$allocator@D@2@@4@AEBUNodeConfig@2@@?$_Invoker_ret@V?$unique_ptr@VTreeNode@BT@@U?$default_delete@VTreeNode@BT@@@std@@@std@@$0A@@std@@SA?AV?$unique_ptr@VTreeNode@BT@@U?$default_delete@VTreeNode@BT@@@std@@@1@AEAV<lambda_1>@?1???$CreateBuilder@VKeepRunningUntilFailureNode@BT@@$$V@BT@@YA?AV?$function@$$A6A?AV?$unique_ptr@VTreeNode@BT@@U?$default_delete@VTreeNode@BT@@@std@@@std@@AEBV?$basic_string@DU?$char_traits@D@std@@V?$allocator@D@2@@2@AEBUNodeConfig@BT@@@Z@1@XZ@AEBV?$basic_string@DU?$char_traits@D@std@@V?$allocator@D@2@@1@AEBUNodeConfig@4@@Z
	??$_Call@AEAV<lambda_1>@?1???$CreateBuilder@VParallelNode@BT@@$$V@BT@@YA?AV?$function@$$A6A?AV?$unique_ptr@VTreeNode@BT@@U?$default_delete@VTreeNode@BT@@@std@@@std@@AEBV?$basic_string@DU?$char_traits@D@std@@V?$allocator@D@2@@2@AEBUNodeConfig@BT@@@Z@std@@XZ@AEBV?$basic_string@DU?$char_traits@D@std@@V?$allocator@D@2@@4@AEBUNodeConfig@2@@?$_Invoker_ret@V?$unique_ptr@VTreeNode@BT@@U?$default_delete@VTreeNode@BT@@@std@@@std@@$0A@@std@@SA?AV?$unique_ptr@VTreeNode@BT@@U?$default_delete@VTreeNode@BT@@@std@@@1@AEAV<lambda_1>@?1???$CreateBuilder@VParallelNode@BT@@$$V@BT@@YA?AV?$function@$$A6A?AV?$unique_ptr@VTreeNode@BT@@U?$default_delete@VTreeNode@BT@@@std@@@std@@AEBV?$basic_string@DU?$char_traits@D@std@@V?$allocator@D@2@@2@AEBUNodeConfig@BT@@@Z@1@XZ@AEBV?$basic_string@DU?$char_traits@D@std@@V?$allocator@D@2@@1@AEBUNodeConfig@4@@Z
	??$_Call@AEAV<lambda_1>@?1???$CreateBuilder@VPreconditionNode@BT@@$$V@BT@@YA?AV?$function@$$A6A?AV?$unique_ptr@VTreeNode@BT@@U?$default_delete@VTreeNode@BT@@@std@@@std@@AEBV?$basic_string@DU?$char_traits@D@std@@V?$allocator@D@2@@2@AEBUNodeConfig@BT@@@Z@std@@XZ@AEBV?$basic_string@DU?$char_traits@D@std@@V?$allocator@D@2@@4@AEBUNodeConfig@2@@?$_Invoker_ret@V?$unique_ptr@VTreeNode@BT@@U?$default_delete@VTreeNode@BT@@@std@@@std@@$0A@@std@@SA?AV?$unique_ptr@VTreeNode@BT@@U?$default_delete@VTreeNode@BT@@@std@@@1@AEAV<lambda_1>@?1???$CreateBuilder@VPreconditionNode@BT@@$$V@BT@@YA?AV?$function@$$A6A?AV?$unique_ptr@VTreeNode@BT@@U?$default_delete@VTreeNode@BT@@@std@@@std@@AEBV?$basic_string@DU?$char_traits@D@std@@V?$allocator@D@2@@2@AEBUNodeConfig@BT@@@Z@1@XZ@AEBV?$basic_string@DU?$char_traits@D@std@@V?$allocator@D@2@@1@AEBUNodeConfig@4@@Z
	??$_Call@AEAV<lambda_1>@?1???$CreateBuilder@VReactiveFallback@BT@@$$V@BT@@YA?AV?$function@$$A6A?AV?$unique_ptr@VTreeNode@BT@@U?$default_delete@VTreeNode@BT@@@std@@@std@@AEBV?$basic_string@DU?$char_traits@D@std@@V?$allocator@D@2@@2@AEBUNodeConfig@BT@@@Z@std@@XZ@AEBV?$basic_string@DU?$char_traits@D@std@@V?$allocator@D@2@@4@AEBUNodeConfig@2@@?$_Invoker_ret@V?$unique_ptr@VTreeNode@BT@@U?$default_delete@VTreeNode@BT@@@std@@@std@@$0A@@std@@SA?AV?$unique_ptr@VTreeNode@BT@@U?$default_delete@VTreeNode@BT@@@std@@@1@AEAV<lambda_1>@?1???$CreateBuilder@VReactiveFallback@BT@@$$V@BT@@YA?AV?$function@$$A6A?AV?$unique_ptr@VTreeNode@BT@@U?$default_delete@VTreeNode@BT@@@std@@@std@@AEBV?$basic_string@DU?$char_traits@D@std@@V?$allocator@D@2@@2@AEBUNodeConfig@BT@@@Z@1@XZ@AEBV?$basic_string@DU?$char_traits@D@std@@V?$allocator@D@2@@1@AEBUNodeConfig@4@@Z
	??$_Call@AEAV<lambda_1>@?1???$CreateBuilder@VReactiveSequence@BT@@$$V@BT@@YA?AV?$function@$$A6A?AV?$unique_ptr@VTreeNode@BT@@U?$default_delete@VTreeNode@BT@@@std@@@std@@AEBV?$basic_string@DU?$char_traits@D@std@@V?$allocator@D@2@@2@AEBUNodeConfig@BT@@@Z@std@@XZ@AEBV?$basic_string@DU?$char_traits@D@std@@V?$allocator@D@2@@4@AEBUNodeConfig@2@@?$_Invoker_ret@V?$unique_ptr@VTreeNode@BT@@U?$default_delete@VTreeNode@BT@@@std@@@std@@$0A@@std@@SA?AV?$unique_ptr@VTreeNode@BT@@U?$default_delete@VTreeNode@BT@@@std@@@1@AEAV<lambda_1>@?1???$CreateBuilder@VReactiveSequence@BT@@$$V@BT@@YA?AV?$function@$$A6A?AV?$unique_ptr@VTreeNode@BT@@U?$default_delete@VTreeNode@BT@@@std@@@std@@AEBV?$basic_string@DU?$char_traits@D@std@@V?$allocator@D@2@@2@AEBUNodeConfig@BT@@@Z@1@XZ@AEBV?$basic_string@DU?$char_traits@D@std@@V?$allocator@D@2@@1@AEBUNodeConfig@4@@Z
	??$_Call@AEAV<lambda_1>@?1???$CreateBuilder@VRepeatNode@BT@@$$V@BT@@YA?AV?$function@$$A6A?AV?$unique_ptr@VTreeNode@BT@@U?$default_delete@VTreeNode@BT@@@std@@@std@@AEBV?$basic_string@DU?$char_traits@D@std@@V?$allocator@D@2@@2@AEBUNodeConfig@BT@@@Z@std@@XZ@AEBV?$basic_string@DU?$char_traits@D@std@@V?$allocator@D@2@@4@AEBUNodeConfig@2@@?$_Invoker_ret@V?$unique_ptr@VTreeNode@BT@@U?$default_delete@VTreeNode@BT@@@std@@@std@@$0A@@std@@SA?AV?$unique_ptr@VTreeNode@BT@@U?$default_delete@VTreeNode@BT@@@std@@@1@AEAV<lambda_1>@?1???$CreateBuilder@VRepeatNode@BT@@$$V@BT@@YA?AV?$function@$$A6A?AV?$unique_ptr@VTreeNode@BT@@U?$default_delete@VTreeNode@BT@@@std@@@std@@AEBV?$basic_string@DU?$char_traits@D@std@@V?$allocator@D@2@@2@AEBUNodeConfig@BT@@@Z@1@XZ@AEBV?$basic_string@DU?$char_traits@D@std@@V?$allocator@D@2@@1@AEBUNodeConfig@4@@Z
	??$_Call@AEAV<lambda_1>@?1???$CreateBuilder@VRetryNode@BT@@$$V@BT@@YA?AV?$function@$$A6A?AV?$unique_ptr@VTreeNode@BT@@U?$default_delete@VTreeNode@BT@@@std@@@std@@AEBV?$basic_string@DU?$char_traits@D@std@@V?$allocator@D@2@@2@AEBUNodeConfig@BT@@@Z@std@@XZ@AEBV?$basic_string@DU?$char_traits@D@std@@V?$allocator@D@2@@4@AEBUNodeConfig@2@@?$_Invoker_ret@V?$unique_ptr@VTreeNode@BT@@U?$default_delete@VTreeNode@BT@@@std@@@std@@$0A@@std@@SA?AV?$unique_ptr@VTreeNode@BT@@U?$default_delete@VTreeNode@BT@@@std@@@1@AEAV<lambda_1>@?1???$CreateBuilder@VRetryNode@BT@@$$V@BT@@YA?AV?$function@$$A6A?AV?$unique_ptr@VTreeNode@BT@@U?$default_delete@VTreeNode@BT@@@std@@@std@@AEBV?$basic_string@DU?$char_traits@D@std@@V?$allocator@D@2@@2@AEBUNodeConfig@BT@@@Z@1@XZ@AEBV?$basic_string@DU?$char_traits@D@std@@V?$allocator@D@2@@1@AEBUNodeConfig@4@@Z
	??$_Call@AEAV<lambda_1>@?1???$CreateBuilder@VScriptNode@BT@@$$V@BT@@YA?AV?$function@$$A6A?AV?$unique_ptr@VTreeNode@BT@@U?$default_delete@VTreeNode@BT@@@std@@@std@@AEBV?$basic_string@DU?$char_traits@D@std@@V?$allocator@D@2@@2@AEBUNodeConfig@BT@@@Z@std@@XZ@AEBV?$basic_string@DU?$char_traits@D@std@@V?$allocator@D@2@@4@AEBUNodeConfig@2@@?$_Invoker_ret@V?$unique_ptr@VTreeNode@BT@@U?$default_delete@VTreeNode@BT@@@std@@@std@@$0A@@std@@SA?AV?$unique_ptr@VTreeNode@BT@@U?$default_delete@VTreeNode@BT@@@std@@@1@AEAV<lambda_1>@?1???$CreateBuilder@VScriptNode@BT@@$$V@BT@@YA?AV?$function@$$A6A?AV?$unique_ptr@VTreeNode@BT@@U?$default_delete@VTreeNode@BT@@@std@@@std@@AEBV?$basic_string@DU?$char_traits@D@std@@V?$allocator@D@2@@2@AEBUNodeConfig@BT@@@Z@1@XZ@AEBV?$basic_string@DU?$char_traits@D@std@@V?$allocator@D@2@@1@AEBUNodeConfig@4@@Z
	??$_Call@AEAV<lambda_1>@?1???$CreateBuilder@VSequenceNode@BT@@$$V@BT@@YA?AV?$function@$$A6A?AV?$unique_ptr@VTreeNode@BT@@U?$default_delete@VTreeNode@BT@@@std@@@std@@AEBV?$basic_string@DU?$char_traits@D@std@@V?$allocator@D@2@@2@AEBUNodeConfig@BT@@@Z@std@@XZ@AEBV?$basic_string@DU?$char_traits@D@std@@V?$allocator@D@2@@4@AEBUNodeConfig@2@@?$_Invoker_ret@V?$unique_ptr@VTreeNode@BT@@U?$default_delete@VTreeNode@BT@@@std@@@std@@$0A@@std@@SA?AV?$unique_ptr@VTreeNode@BT@@U?$default_delete@VTreeNode@BT@@@std@@@1@AEAV<lambda_1>@?1???$CreateBuilder@VSequenceNode@BT@@$$V@BT@@YA?AV?$function@$$A6A?AV?$unique_ptr@VTreeNode@BT@@U?$default_delete@VTreeNode@BT@@@std@@@std@@AEBV?$basic_string@DU?$char_traits@D@std@@V?$allocator@D@2@@2@AEBUNodeConfig@BT@@@Z@1@XZ@AEBV?$basic_string@DU?$char_traits@D@std@@V?$allocator@D@2@@1@AEBUNodeConfig@4@@Z
	??$_Call@AEAV<lambda_1>@?1???$CreateBuilder@VSequenceWithMemory@BT@@$$V@BT@@YA?AV?$function@$$A6A?AV?$unique_ptr@VTreeNode@BT@@U?$default_delete@VTreeNode@BT@@@std@@@std@@AEBV?$basic_string@DU?$char_traits@D@std@@V?$allocator@D@2@@2@AEBUNodeConfig@BT@@@Z@std@@XZ@AEBV?$basic_string@DU?$char_traits@D@std@@V?$allocator@D@2@@4@AEBUNodeConfig@2@@?$_Invoker_ret@V?$unique_ptr@VTreeNode@BT@@U?$default_delete@VTreeNode@BT@@@std@@@std@@$0A@@std@@SA?AV?$unique_ptr@VTreeNode@BT@@U?$default_delete@VTreeNode@BT@@@std@@@1@AEAV<lambda_1>@?1???$CreateBuilder@VSequenceWithMemory@BT@@$$V@BT@@YA?AV?$function@$$A6A?AV?$unique_ptr@VTreeNode@BT@@U?$default_delete@VTreeNode@BT@@@std@@@std@@AEBV?$basic_string@DU?$char_traits@D@std@@V?$allocator@D@2@@2@AEBUNodeConfig@BT@@@Z@1@XZ@AEBV?$basic_string@DU?$char_traits@D@std@@V?$allocator@D@2@@1@AEBUNodeConfig@4@@Z
	??$_Call@AEAV<lambda_1>@?1???$CreateBuilder@VSetBlackboard@BT@@$$V@BT@@YA?AV?$function@$$A6A?AV?$unique_ptr@VTreeNode@BT@@U?$default_delete@VTreeNode@BT@@@std@@@std@@AEBV?$basic_string@DU?$char_traits@D@std@@V?$allocator@D@2@@2@AEBUNodeConfig@BT@@@Z@std@@XZ@AEBV?$basic_string@DU?$char_traits@D@std@@V?$allocator@D@2@@4@AEBUNodeConfig@2@@?$_Invoker_ret@V?$unique_ptr@VTreeNode@BT@@U?$default_delete@VTreeNode@BT@@@std@@@std@@$0A@@std@@SA?AV?$unique_ptr@VTreeNode@BT@@U?$default_delete@VTreeNode@BT@@@std@@@1@AEAV<lambda_1>@?1???$CreateBuilder@VSetBlackboard@BT@@$$V@BT@@YA?AV?$function@$$A6A?AV?$unique_ptr@VTreeNode@BT@@U?$default_delete@VTreeNode@BT@@@std@@@std@@AEBV?$basic_string@DU?$char_traits@D@std@@V?$allocator@D@2@@2@AEBUNodeConfig@BT@@@Z@1@XZ@AEBV?$basic_string@DU?$char_traits@D@std@@V?$allocator@D@2@@1@AEBUNodeConfig@4@@Z
	??$_Call@AEAV<lambda_1>@?1???$CreateBuilder@VSubTreeNode@BT@@$$V@BT@@YA?AV?$function@$$A6A?AV?$unique_ptr@VTreeNode@BT@@U?$default_delete@VTreeNode@BT@@@std@@@std@@AEBV?$basic_string@DU?$char_traits@D@std@@V?$allocator@D@2@@2@AEBUNodeConfig@BT@@@Z@std@@XZ@AEBV?$basic_string@DU?$char_traits@D@std@@V?$allocator@D@2@@4@AEBUNodeConfig@2@@?$_Invoker_ret@V?$unique_ptr@VTreeNode@BT@@U?$default_delete@VTreeNode@BT@@@std@@@std@@$0A@@std@@SA?AV?$unique_ptr@VTreeNode@BT@@U?$default_delete@VTreeNode@BT@@@std@@@1@AEAV<lambda_1>@?1???$CreateBuilder@VSubTreeNode@BT@@$$V@BT@@YA?AV?$function@$$A6A?AV?$unique_ptr@VTreeNode@BT@@U?$default_delete@VTreeNode@BT@@@std@@@std@@AEBV?$basic_string@DU?$char_traits@D@std@@V?$allocator@D@2@@2@AEBUNodeConfig@BT@@@Z@1@XZ@AEBV?$basic_string@DU?$char_traits@D@std@@V?$allocator@D@2@@1@AEBUNodeConfig@4@@Z
	??$_Call@AEAV<lambda_1>@?1???$CreateBuilder@VWhileDoElseNode@BT@@$$V@BT@@YA?AV?$function@$$A6A?AV?$unique_ptr@VTreeNode@BT@@U?$default_delete@VTreeNode@BT@@@std@@@std@@AEBV?$basic_string@DU?$char_traits@D@std@@V?$allocator@D@2@@2@AEBUNodeConfig@BT@@@Z@std@@XZ@AEBV?$basic_string@DU?$char_traits@D@std@@V?$allocator@D@2@@4@AEBUNodeConfig@2@@?$_Invoker_ret@V?$unique_ptr@VTreeNode@BT@@U?$default_delete@VTreeNode@BT@@@std@@@std@@$0A@@std@@SA?AV?$unique_ptr@VTreeNode@BT@@U?$default_delete@VTreeNode@BT@@@std@@@1@AEAV<lambda_1>@?1???$CreateBuilder@VWhileDoElseNode@BT@@$$V@BT@@YA?AV?$function@$$A6A?AV?$unique_ptr@VTreeNode@BT@@U?$default_delete@VTreeNode@BT@@@std@@@std@@AEBV?$basic_string@DU?$char_traits@D@std@@V?$allocator@D@2@@2@AEBUNodeConfig@BT@@@Z@1@XZ@AEBV?$basic_string@DU?$char_traits@D@std@@V?$allocator@D@2@@1@AEBUNodeConfig@4@@Z
	??$_Call@AEAV<lambda_1>@?1???$GetAnyFromStringFunctor@H@BT@@YA?AV?$function@$$A6A?AVAny@BT@@V?$basic_string_view@DU?$char_traits@D@std@@@std@@@Z@std@@XZ@V?$basic_string_view@DU?$char_traits@D@std@@@4@@?$_Invoker_ret@VAny@BT@@$0A@@std@@SA?AVAny@BT@@AEAV<lambda_1>@?1???$GetAnyFromStringFunctor@H@3@YA?AV?$function@$$A6A?AVAny@BT@@V?$basic_string_view@DU?$char_traits@D@std@@@std@@@Z@1@XZ@$$QEAV?$basic_string_view@DU?$char_traits@D@std@@@1@@Z
	??$_Call@AEAV<lambda_1>@?1???$GetAnyFromStringFunctor@I@BT@@YA?AV?$function@$$A6A?AVAny@BT@@V?$basic_string_view@DU?$char_traits@D@std@@@std@@@Z@std@@XZ@V?$basic_string_view@DU?$char_traits@D@std@@@4@@?$_Invoker_ret@VAny@BT@@$0A@@std@@SA?AVAny@BT@@AEAV<lambda_1>@?1???$GetAnyFromStringFunctor@I@3@YA?AV?$function@$$A6A?AVAny@BT@@V?$basic_string_view@DU?$char_traits@D@std@@@std@@@Z@1@XZ@$$QEAV?$basic_string_view@DU?$char_traits@D@std@@@1@@Z
	??$_Call@AEAV<lambda_1>@?1???$GetAnyFromStringFunctor@V?$basic_string@DU?$char_traits@D@std@@V?$allocator@D@2@@std@@@BT@@YA?AV?$function@$$A6A?AVAny@BT@@V?$basic_string_view@DU?$char_traits@D@std@@@std@@@Z@std@@XZ@V?$basic_string_view@DU?$char_traits@D@std@@@4@@?$_Invoker_ret@VAny@BT@@$0A@@std@@SA?AVAny@BT@@AEAV<lambda_1>@?1???$GetAnyFromStringFunctor@V?$basic_string@DU?$char_traits@D@std@@V?$allocator@D@2@@std@@@3@YA?AV?$function@$$A6A?AVAny@BT@@V?$basic_string_view@DU?$char_traits@D@std@@@std@@@Z@1@XZ@$$QEAV?$basic_string_view@DU?$char_traits@D@std@@@1@@Z
	??$_Call@AEAV<lambda_1>@?1???$GetAnyFromStringFunctor@W4NodeStatus@BT@@@BT@@YA?AV?$function@$$A6A?AVAny@BT@@V?$basic_string_view@DU?$char_traits@D@std@@@std@@@Z@std@@XZ@V?$basic_string_view@DU?$char_traits@D@std@@@4@@?$_Invoker_ret@VAny@BT@@$0A@@std@@SA?AVAny@BT@@AEAV<lambda_1>@?1???$GetAnyFromStringFunctor@W4NodeStatus@BT@@@3@YA?AV?$function@$$A6A?AVAny@BT@@V?$basic_string_view@DU?$char_traits@D@std@@@std@@@Z@1@XZ@$$QEAV?$basic_string_view@DU?$char_traits@D@std@@@1@@Z
	??$_Call@AEAV<lambda_1>@?1???$GetAnyFromStringFunctor@_N@BT@@YA?AV?$function@$$A6A?AVAny@BT@@V?$basic_string_view@DU?$char_traits@D@std@@@std@@@Z@std@@XZ@V?$basic_string_view@DU?$char_traits@D@std@@@4@@?$_Invoker_ret@VAny@BT@@$0A@@std@@SA?AVAny@BT@@AEAV<lambda_1>@?1???$GetAnyFromStringFunctor@_N@3@YA?AV?$function@$$A6A?AVAny@BT@@V?$basic_string_view@DU?$char_traits@D@std@@@std@@@Z@1@XZ@$$QEAV?$basic_string_view@DU?$char_traits@D@std@@@1@@Z
	??$_Call@AEAV<lambda_1>@?1???0StatusChangeLogger@BT@@QEAA@PEAVTreeNode@3@@Z@V?$time_point@Usteady_clock@chrono@std@@V?$duration@_JU?$ratio@$00$0DLJKMKAA@@std@@@23@@chrono@std@@AEBV43@W4NodeStatus@3@W483@@?$_Invoker_ret@X$00@std@@SAXAEAV<lambda_1>@?1???0StatusChangeLogger@BT@@QEAA@PEAVTreeNode@4@@Z@$$QEAV?$time_point@Usteady_clock@chrono@std@@V?$duration@_JU?$ratio@$00$0DLJKMKAA@@std@@@23@@chrono@1@AEBV54@$$QEAW4NodeStatus@4@4@Z
	??$_Call@AEAV<lambda_1>@?1???1?$TimerQueue@Usteady_clock@chrono@std@@V?$duration@_JU?$ratio@$00$0DLJKMKAA@@std@@@23@@BT@@QEAA@XZ@_N@?$_Invoker_ret@X$00@std@@SAXAEAV<lambda_1>@?1???1?$TimerQueue@Usteady_clock@chrono@std@@V?$duration@_JU?$ratio@$00$0DLJKMKAA@@std@@@23@@BT@@QEAA@XZ@$$QEA_N@Z
	??$_Call@AEAV<lambda_1>@?1??CreateFlatbuffersBehaviorTree@BT@@YAXAEAVFlatBufferBuilder@flatbuffers@@AEBVTree@3@@Z@PEAVTreeNode@3@@?$_Invoker_ret@X$00@std@@SAXAEAV<lambda_1>@?1??CreateFlatbuffersBehaviorTree@BT@@YAXAEAVFlatBufferBuilder@flatbuffers@@AEBVTree@4@@Z@$$QEAPEAVTreeNode@4@@Z
	??$_Call@AEAV<lambda_1>@?1??_MakeVoidToUnitFunc@details@Concurrency@@YA?AV?$function@$$A6AEXZ@std@@AEBV?$function@$$A6AXXZ@6@@Z@$$V@?$_Invoker_ret@E$0A@@std@@SAEAEAV<lambda_1>@?1??_MakeVoidToUnitFunc@details@Concurrency@@YA?AV?$function@$$A6AEXZ@1@AEBV?$function@$$A6AXXZ@1@@Z@@Z
	??$_Call@AEAV<lambda_1>@?1??haltTree@Tree@BT@@QEAAXXZ@PEAVTreeNode@4@@?$_Invoker_ret@X$00@std@@SAXAEAV<lambda_1>@?1??haltTree@Tree@BT@@QEAAXXZ@$$QEAPEAVTreeNode@5@@Z
	??$_Call@AEAV<lambda_1>@?4??_ScheduleContinuationTask@_Task_impl_base@details@Concurrency@@QEAAXPEAU_ContinuationTaskHandleBase@45@@Z@$$V@?$_Invoker_ret@X$00@std@@SAXAEAV<lambda_1>@?4??_ScheduleContinuationTask@_Task_impl_base@details@Concurrency@@QEAAXPEAU_ContinuationTaskHandleBase@56@@Z@@Z
	??$_Call@AEAV<lambda_1>@?7???R1?4??_ScheduleContinuationTask@_Task_impl_base@details@Concurrency@@QEAAXPEAU_ContinuationTaskHandleBase@45@@Z@QEBA@XZ@$$V@?$_Invoker_ret@X$00@std@@SAXAEAV<lambda_1>@?7???R2?4??_ScheduleContinuationTask@_Task_impl_base@details@Concurrency@@QEAAXPEAU_ContinuationTaskHandleBase@56@@Z@QEBA@XZ@@Z
	??$_Call@AEAV<lambda_1>@?CC@??_CancelAndRunContinuations@?$_Task_impl@E@details@Concurrency@@UEAA_N_N00AEBV?$shared_ptr@U_ExceptionHolder@details@Concurrency@@@std@@@Z@$$V@?$_Invoker_ret@X$00@std@@SAXAEAV<lambda_1>@?CC@??_CancelAndRunContinuations@?$_Task_impl@E@details@Concurrency@@UEAA_N_N00AEBV?$shared_ptr@U_ExceptionHolder@details@Concurrency@@@1@@Z@@Z
	??$_Call@AEAV<lambda_1>@?O@??tick@?$TimeoutNode@Usteady_clock@chrono@std@@V?$duration@_JU?$ratio@$00$0DLJKMKAA@@std@@@23@@BT@@EEAA?AW4NodeStatus@4@XZ@_N@?$_Invoker_ret@X$00@std@@SAXAEAV<lambda_1>@?O@??tick@?$TimeoutNode@Usteady_clock@chrono@std@@V?$duration@_JU?$ratio@$00$0DLJKMKAA@@std@@@23@@BT@@EEAA?AW4NodeStatus@5@XZ@$$QEA_N@Z
	??$_Call@AEAV<lambda_2>@?1???0StatusChangeLogger@BT@@QEAA@PEAVTreeNode@3@@Z@PEAV43@@?$_Invoker_ret@X$00@std@@SAXAEAV<lambda_2>@?1???0StatusChangeLogger@BT@@QEAA@PEAVTreeNode@4@@Z@$$QEAPEAV54@@Z
	??$_Construct@PEB_Q@?$basic_string@DU?$char_traits@D@std@@V?$allocator@D@2@@std@@QEAAXPEB_QQEB_QUinput_iterator_tag@1@@Z
	??$_Construct@PEB_Q@?$basic_string@DU?$char_traits@D@std@@V?$allocator@D@2@@std@@QEAAXQEB_Q0Uforward_iterator_tag@1@@Z
	??$_Construct_from_weak@U_Task_impl_base@details@Concurrency@@@?$_Ptr_base@U_Task_impl_base@details@Concurrency@@@std@@IEAA_NAEBV?$weak_ptr@U_Task_impl_base@details@Concurrency@@@1@@Z
	??$_Construct_from_weak@V?$function@$$A6AXV?$time_point@Usteady_clock@chrono@std@@V?$duration@_JU?$ratio@$00$0DLJKMKAA@@std@@@23@@chrono@std@@AEBVTreeNode@BT@@W4NodeStatus@5@2@Z@std@@@?$_Ptr_base@V?$function@$$A6AXV?$time_point@Usteady_clock@chrono@std@@V?$duration@_JU?$ratio@$00$0DLJKMKAA@@std@@@23@@chrono@std@@AEBVTreeNode@BT@@W4NodeStatus@5@2@Z@std@@@std@@IEAA_NAEBV?$weak_ptr@V?$function@$$A6AXV?$time_point@Usteady_clock@chrono@std@@V?$duration@_JU?$ratio@$00$0DLJKMKAA@@std@@@23@@chrono@std@@AEBVTreeNode@BT@@W4NodeStatus@5@2@Z@std@@@1@@Z
	??$_Construct_from_weak@VBlackboard@BT@@@?$_Ptr_base@VBlackboard@BT@@@std@@IEAA_NAEBV?$weak_ptr@VBlackboard@BT@@@1@@Z
	??$_Construct_in_place@PEADAEAPEAD@std@@YAXAEAPEAD0@Z
	??$_Construct_in_place@PEADAEBQEAD@std@@YAXAEAPEADAEBQEAD@Z
	??$_Construct_in_place@PEAU?$_List_node@U?$pair@$$CBV?$basic_string@DU?$char_traits@D@std@@V?$allocator@D@2@@std@@H@std@@PEAX@std@@AEAPEAU12@@std@@YAXAEAPEAU?$_List_node@U?$pair@$$CBV?$basic_string@DU?$char_traits@D@std@@V?$allocator@D@2@@std@@H@std@@PEAX@0@0@Z
	??$_Construct_in_place@PEAU?$_List_node@U?$pair@$$CBV?$basic_string@DU?$char_traits@D@std@@V?$allocator@D@2@@std@@H@std@@PEAX@std@@AEBQEAU12@@std@@YAXAEAPEAU?$_List_node@U?$pair@$$CBV?$basic_string@DU?$char_traits@D@std@@V?$allocator@D@2@@std@@H@std@@PEAX@0@AEBQEAU10@@Z
	??$_Construct_in_place@PEAU?$_List_node@U?$pair@$$CBV?$basic_string@DU?$char_traits@D@std@@V?$allocator@D@2@@std@@UEntry@Blackboard@BT@@@std@@PEAX@std@@AEAPEAU12@@std@@YAXAEAPEAU?$_List_node@U?$pair@$$CBV?$basic_string@DU?$char_traits@D@std@@V?$allocator@D@2@@std@@UEntry@Blackboard@BT@@@std@@PEAX@0@0@Z
	??$_Construct_in_place@PEAU?$_List_node@U?$pair@$$CBV?$basic_string@DU?$char_traits@D@std@@V?$allocator@D@2@@std@@UEntry@Blackboard@BT@@@std@@PEAX@std@@AEBQEAU12@@std@@YAXAEAPEAU?$_List_node@U?$pair@$$CBV?$basic_string@DU?$char_traits@D@std@@V?$allocator@D@2@@std@@UEntry@Blackboard@BT@@@std@@PEAX@0@AEBQEAU10@@Z
	??$_Construct_in_place@PEAU?$_List_node@U?$pair@$$CBV?$basic_string@DU?$char_traits@D@std@@V?$allocator@D@2@@std@@UTreeNodeManifest@BT@@@std@@PEAX@std@@AEAPEAU12@@std@@YAXAEAPEAU?$_List_node@U?$pair@$$CBV?$basic_string@DU?$char_traits@D@std@@V?$allocator@D@2@@std@@UTreeNodeManifest@BT@@@std@@PEAX@0@0@Z
	??$_Construct_in_place@PEAU?$_List_node@U?$pair@$$CBV?$basic_string@DU?$char_traits@D@std@@V?$allocator@D@2@@std@@UTreeNodeManifest@BT@@@std@@PEAX@std@@AEBQEAU12@@std@@YAXAEAPEAU?$_List_node@U?$pair@$$CBV?$basic_string@DU?$char_traits@D@std@@V?$allocator@D@2@@std@@UTreeNodeManifest@BT@@@std@@PEAX@0@AEBQEAU10@@Z
	??$_Construct_in_place@PEAU?$_List_node@U?$pair@$$CBV?$basic_string@DU?$char_traits@D@std@@V?$allocator@D@2@@std@@UTreeNodeManifest@BT@@@std@@PEAX@std@@PEAU12@@std@@YAXAEAPEAU?$_List_node@U?$pair@$$CBV?$basic_string@DU?$char_traits@D@std@@V?$allocator@D@2@@std@@UTreeNodeManifest@BT@@@std@@PEAX@0@$$QEAPEAU10@@Z
	??$_Construct_in_place@PEAU?$_List_node@U?$pair@$$CBV?$basic_string@DU?$char_traits@D@std@@V?$allocator@D@2@@std@@V12@@std@@PEAX@std@@AEAPEAU12@@std@@YAXAEAPEAU?$_List_node@U?$pair@$$CBV?$basic_string@DU?$char_traits@D@std@@V?$allocator@D@2@@std@@V12@@std@@PEAX@0@0@Z
	??$_Construct_in_place@PEAU?$_List_node@U?$pair@$$CBV?$basic_string@DU?$char_traits@D@std@@V?$allocator@D@2@@std@@V12@@std@@PEAX@std@@AEBQEAU12@@std@@YAXAEAPEAU?$_List_node@U?$pair@$$CBV?$basic_string@DU?$char_traits@D@std@@V?$allocator@D@2@@std@@V12@@std@@PEAX@0@AEBQEAU10@@Z
	??$_Construct_in_place@PEAU?$_List_node@U?$pair@$$CBV?$basic_string@DU?$char_traits@D@std@@V?$allocator@D@2@@std@@V12@@std@@PEAX@std@@PEAU12@@std@@YAXAEAPEAU?$_List_node@U?$pair@$$CBV?$basic_string@DU?$char_traits@D@std@@V?$allocator@D@2@@std@@V12@@std@@PEAX@0@$$QEAPEAU10@@Z
	??$_Construct_in_place@PEAU?$_List_node@U?$pair@$$CBV?$basic_string@DU?$char_traits@D@std@@V?$allocator@D@2@@std@@V?$function@$$A6A?AV?$unique_ptr@VTreeNode@BT@@U?$default_delete@VTreeNode@BT@@@std@@@std@@AEBV?$basic_string@DU?$char_traits@D@std@@V?$allocator@D@2@@2@AEBUNodeConfig@BT@@@Z@2@@std@@PEAX@std@@AEAPEAU12@@std@@YAXAEAPEAU?$_List_node@U?$pair@$$CBV?$basic_string@DU?$char_traits@D@std@@V?$allocator@D@2@@std@@V?$function@$$A6A?AV?$unique_ptr@VTreeNode@BT@@U?$default_delete@VTreeNode@BT@@@std@@@std@@AEBV?$basic_string@DU?$char_traits@D@std@@V?$allocator@D@2@@2@AEBUNodeConfig@BT@@@Z@2@@std@@PEAX@0@0@Z
	??$_Construct_in_place@PEAU?$_List_node@U?$pair@$$CBV?$basic_string@DU?$char_traits@D@std@@V?$allocator@D@2@@std@@V?$function@$$A6A?AV?$unique_ptr@VTreeNode@BT@@U?$default_delete@VTreeNode@BT@@@std@@@std@@AEBV?$basic_string@DU?$char_traits@D@std@@V?$allocator@D@2@@2@AEBUNodeConfig@BT@@@Z@2@@std@@PEAX@std@@AEBQEAU12@@std@@YAXAEAPEAU?$_List_node@U?$pair@$$CBV?$basic_string@DU?$char_traits@D@std@@V?$allocator@D@2@@std@@V?$function@$$A6A?AV?$unique_ptr@VTreeNode@BT@@U?$default_delete@VTreeNode@BT@@@std@@@std@@AEBV?$basic_string@DU?$char_traits@D@std@@V?$allocator@D@2@@2@AEBUNodeConfig@BT@@@Z@2@@std@@PEAX@0@AEBQEAU10@@Z
	??$_Construct_in_place@PEAU?$_List_node@U?$pair@$$CBV?$basic_string@DU?$char_traits@D@std@@V?$allocator@D@2@@std@@VAny@BT@@@std@@PEAX@std@@AEAPEAU12@@std@@YAXAEAPEAU?$_List_node@U?$pair@$$CBV?$basic_string@DU?$char_traits@D@std@@V?$allocator@D@2@@std@@VAny@BT@@@std@@PEAX@0@0@Z
	??$_Construct_in_place@PEAU?$_List_node@U?$pair@$$CBV?$basic_string@DU?$char_traits@D@std@@V?$allocator@D@2@@std@@VPortInfo@BT@@@std@@PEAX@std@@AEAPEAU12@@std@@YAXAEAPEAU?$_List_node@U?$pair@$$CBV?$basic_string@DU?$char_traits@D@std@@V?$allocator@D@2@@std@@VPortInfo@BT@@@std@@PEAX@0@0@Z
	??$_Construct_in_place@PEAU?$_List_node@U?$pair@$$CBV?$basic_string@DU?$char_traits@D@std@@V?$allocator@D@2@@std@@VPortInfo@BT@@@std@@PEAX@std@@AEBQEAU12@@std@@YAXAEAPEAU?$_List_node@U?$pair@$$CBV?$basic_string@DU?$char_traits@D@std@@V?$allocator@D@2@@std@@VPortInfo@BT@@@std@@PEAX@0@AEBQEAU10@@Z
	??$_Construct_in_place@PEAU?$_List_node@U?$pair@$$CBV?$basic_string@DU?$char_traits@D@std@@V?$allocator@D@2@@std@@VPortInfo@BT@@@std@@PEAX@std@@PEAU12@@std@@YAXAEAPEAU?$_List_node@U?$pair@$$CBV?$basic_string@DU?$char_traits@D@std@@V?$allocator@D@2@@std@@VPortInfo@BT@@@std@@PEAX@0@$$QEAPEAU10@@Z
	??$_Construct_in_place@PEAU?$_List_node@U?$pair@$$CBV?$basic_string@DU?$char_traits@D@std@@V?$allocator@D@2@@std@@W4NodeType@BT@@@std@@PEAX@std@@AEAPEAU12@@std@@YAXAEAPEAU?$_List_node@U?$pair@$$CBV?$basic_string@DU?$char_traits@D@std@@V?$allocator@D@2@@std@@W4NodeType@BT@@@std@@PEAX@0@0@Z
	??$_Construct_in_place@PEAU?$_List_node@U?$pair@$$CBV?$basic_string@DU?$char_traits@D@std@@V?$allocator@D@2@@std@@W4NodeType@BT@@@std@@PEAX@std@@AEBQEAU12@@std@@YAXAEAPEAU?$_List_node@U?$pair@$$CBV?$basic_string@DU?$char_traits@D@std@@V?$allocator@D@2@@std@@W4NodeType@BT@@@std@@PEAX@0@AEBQEAU10@@Z
	??$_Construct_in_place@PEAU?$_List_node@V?$unique_ptr@VXMLDocument@tinyxml2@@U?$default_delete@VXMLDocument@tinyxml2@@@std@@@std@@PEAX@std@@AEAPEAU12@@std@@YAXAEAPEAU?$_List_node@V?$unique_ptr@VXMLDocument@tinyxml2@@U?$default_delete@VXMLDocument@tinyxml2@@@std@@@std@@PEAX@0@0@Z
	??$_Construct_in_place@PEAU?$_List_node@V?$unique_ptr@VXMLDocument@tinyxml2@@U?$default_delete@VXMLDocument@tinyxml2@@@std@@@std@@PEAX@std@@AEBQEAU12@@std@@YAXAEAPEAU?$_List_node@V?$unique_ptr@VXMLDocument@tinyxml2@@U?$default_delete@VXMLDocument@tinyxml2@@@std@@@std@@PEAX@0@AEBQEAU10@@Z
	??$_Construct_in_place@PEAU?$_Tree_node@U?$pair@$$CBV?$basic_string@DU?$char_traits@D@std@@V?$allocator@D@2@@std@@PEBVXMLElement@tinyxml2@@@std@@PEAX@std@@AEAPEAU12@@std@@YAXAEAPEAU?$_Tree_node@U?$pair@$$CBV?$basic_string@DU?$char_traits@D@std@@V?$allocator@D@2@@std@@PEBVXMLElement@tinyxml2@@@std@@PEAX@0@0@Z
	??$_Construct_in_place@PEAU?$_Tree_node@U?$pair@$$CBV?$basic_string@DU?$char_traits@D@std@@V?$allocator@D@2@@std@@PEBVXMLElement@tinyxml2@@@std@@PEAX@std@@AEBQEAU12@@std@@YAXAEAPEAU?$_Tree_node@U?$pair@$$CBV?$basic_string@DU?$char_traits@D@std@@V?$allocator@D@2@@std@@PEBVXMLElement@tinyxml2@@@std@@PEAX@0@AEBQEAU10@@Z
	??$_Construct_in_place@PEAU?$_Tree_node@U?$pair@$$CBW4PostCond@BT@@V?$basic_string@DU?$char_traits@D@std@@V?$allocator@D@2@@std@@@std@@PEAX@std@@AEAPEAU12@@std@@YAXAEAPEAU?$_Tree_node@U?$pair@$$CBW4PostCond@BT@@V?$basic_string@DU?$char_traits@D@std@@V?$allocator@D@2@@std@@@std@@PEAX@0@0@Z
	??$_Construct_in_place@PEAU?$_Tree_node@U?$pair@$$CBW4PostCond@BT@@V?$basic_string@DU?$char_traits@D@std@@V?$allocator@D@2@@std@@@std@@PEAX@std@@AEBQEAU12@@std@@YAXAEAPEAU?$_Tree_node@U?$pair@$$CBW4PostCond@BT@@V?$basic_string@DU?$char_traits@D@std@@V?$allocator@D@2@@std@@@std@@PEAX@0@AEBQEAU10@@Z
	??$_Construct_in_place@PEAU?$_Tree_node@U?$pair@$$CBW4PreCond@BT@@V?$basic_string@DU?$char_traits@D@std@@V?$allocator@D@2@@std@@@std@@PEAX@std@@AEAPEAU12@@std@@YAXAEAPEAU?$_Tree_node@U?$pair@$$CBW4PreCond@BT@@V?$basic_string@DU?$char_traits@D@std@@V?$allocator@D@2@@std@@@std@@PEAX@0@0@Z
	??$_Construct_in_place@PEAU?$_Tree_node@U?$pair@$$CBW4PreCond@BT@@V?$basic_string@DU?$char_traits@D@std@@V?$allocator@D@2@@std@@@std@@PEAX@std@@AEBQEAU12@@std@@YAXAEAPEAU?$_Tree_node@U?$pair@$$CBW4PreCond@BT@@V?$basic_string@DU?$char_traits@D@std@@V?$allocator@D@2@@std@@@std@@PEAX@0@AEBQEAU10@@Z
	??$_Construct_in_place@PEAU?$_Tree_node@V?$basic_string@DU?$char_traits@D@std@@V?$allocator@D@2@@std@@PEAX@std@@AEAPEAU12@@std@@YAXAEAPEAU?$_Tree_node@V?$basic_string@DU?$char_traits@D@std@@V?$allocator@D@2@@std@@PEAX@0@0@Z
	??$_Construct_in_place@PEAU?$_Tree_node@V?$basic_string@DU?$char_traits@D@std@@V?$allocator@D@2@@std@@PEAX@std@@AEBQEAU12@@std@@YAXAEAPEAU?$_Tree_node@V?$basic_string@DU?$char_traits@D@std@@V?$allocator@D@2@@std@@PEAX@0@AEBQEAU10@@Z
	??$_Construct_in_place@PEAU?$_Tree_node@V?$basic_string_view@DU?$char_traits@D@std@@@std@@PEAX@std@@AEAPEAU12@@std@@YAXAEAPEAU?$_Tree_node@V?$basic_string_view@DU?$char_traits@D@std@@@std@@PEAX@0@0@Z
	??$_Construct_in_place@PEAU?$_Tree_node@V?$basic_string_view@DU?$char_traits@D@std@@@std@@PEAX@std@@AEBQEAU12@@std@@YAXAEAPEAU?$_Tree_node@V?$basic_string_view@DU?$char_traits@D@std@@@std@@PEAX@0@AEBQEAU10@@Z
	??$_Construct_in_place@PEAU?$_Tree_node@_KPEAX@std@@AEAPEAU12@@std@@YAXAEAPEAU?$_Tree_node@_KPEAX@0@0@Z
	??$_Construct_in_place@PEAU?$_Tree_node@_KPEAX@std@@AEBQEAU12@@std@@YAXAEAPEAU?$_Tree_node@_KPEAX@0@AEBQEAU10@@Z
	??$_Construct_in_place@PEA_WAEAPEA_W@std@@YAXAEAPEA_W0@Z
	??$_Construct_in_place@PEA_WAEBQEA_W@std@@YAXAEAPEA_WAEBQEA_W@Z
	??$_Construct_in_place@U?$_Task_impl@E@details@Concurrency@@AEAPEAV_CancellationTokenState@23@AEAUscheduler_ptr@3@@std@@YAXAEAU?$_Task_impl@E@details@Concurrency@@AEAPEAV_CancellationTokenState@23@AEAUscheduler_ptr@3@@Z
	??$_Construct_in_place@USubtree@Tree@BT@@$$V@std@@YAXAEAUSubtree@Tree@BT@@@Z
	??$_Construct_in_place@U_ExceptionHolder@details@Concurrency@@AEBVexception_ptr@std@@V_TaskCreationCallstack@23@@std@@YAXAEAU_ExceptionHolder@details@Concurrency@@AEBVexception_ptr@0@$$QEAV_TaskCreationCallstack@23@@Z
	??$_Construct_in_place@V?$_List_unchecked_iterator@V?$_List_val@U?$_List_simple_types@U?$pair@$$CBV?$basic_string@DU?$char_traits@D@std@@V?$allocator@D@2@@std@@H@std@@@std@@@std@@@std@@AEBV12@@std@@YAXAEAV?$_List_unchecked_iterator@V?$_List_val@U?$_List_simple_types@U?$pair@$$CBV?$basic_string@DU?$char_traits@D@std@@V?$allocator@D@2@@std@@H@std@@@std@@@std@@@0@AEBV10@@Z
	??$_Construct_in_place@V?$_List_unchecked_iterator@V?$_List_val@U?$_List_simple_types@U?$pair@$$CBV?$basic_string@DU?$char_traits@D@std@@V?$allocator@D@2@@std@@UEntry@Blackboard@BT@@@std@@@std@@@std@@@std@@AEBV12@@std@@YAXAEAV?$_List_unchecked_iterator@V?$_List_val@U?$_List_simple_types@U?$pair@$$CBV?$basic_string@DU?$char_traits@D@std@@V?$allocator@D@2@@std@@UEntry@Blackboard@BT@@@std@@@std@@@std@@@0@AEBV10@@Z
	??$_Construct_in_place@V?$_List_unchecked_iterator@V?$_List_val@U?$_List_simple_types@U?$pair@$$CBV?$basic_string@DU?$char_traits@D@std@@V?$allocator@D@2@@std@@UTreeNodeManifest@BT@@@std@@@std@@@std@@@std@@AEBV12@@std@@YAXAEAV?$_List_unchecked_iterator@V?$_List_val@U?$_List_simple_types@U?$pair@$$CBV?$basic_string@DU?$char_traits@D@std@@V?$allocator@D@2@@std@@UTreeNodeManifest@BT@@@std@@@std@@@std@@@0@AEBV10@@Z
	??$_Construct_in_place@V?$_List_unchecked_iterator@V?$_List_val@U?$_List_simple_types@U?$pair@$$CBV?$basic_string@DU?$char_traits@D@std@@V?$allocator@D@2@@std@@V12@@std@@@std@@@std@@@std@@AEBV12@@std@@YAXAEAV?$_List_unchecked_iterator@V?$_List_val@U?$_List_simple_types@U?$pair@$$CBV?$basic_string@DU?$char_traits@D@std@@V?$allocator@D@2@@std@@V12@@std@@@std@@@std@@@0@AEBV10@@Z
	??$_Construct_in_place@V?$_List_unchecked_iterator@V?$_List_val@U?$_List_simple_types@U?$pair@$$CBV?$basic_string@DU?$char_traits@D@std@@V?$allocator@D@2@@std@@V?$function@$$A6A?AV?$unique_ptr@VTreeNode@BT@@U?$default_delete@VTreeNode@BT@@@std@@@std@@AEBV?$basic_string@DU?$char_traits@D@std@@V?$allocator@D@2@@2@AEBUNodeConfig@BT@@@Z@2@@std@@@std@@@std@@@std@@AEBV12@@std@@YAXAEAV?$_List_unchecked_iterator@V?$_List_val@U?$_List_simple_types@U?$pair@$$CBV?$basic_string@DU?$char_traits@D@std@@V?$allocator@D@2@@std@@V?$function@$$A6A?AV?$unique_ptr@VTreeNode@BT@@U?$default_delete@VTreeNode@BT@@@std@@@std@@AEBV?$basic_string@DU?$char_traits@D@std@@V?$allocator@D@2@@2@AEBUNodeConfig@BT@@@Z@2@@std@@@std@@@std@@@0@AEBV10@@Z
	??$_Construct_in_place@V?$_List_unchecked_iterator@V?$_List_val@U?$_List_simple_types@U?$pair@$$CBV?$basic_string@DU?$char_traits@D@std@@V?$allocator@D@2@@std@@VAny@BT@@@std@@@std@@@std@@@std@@AEBV12@@std@@YAXAEAV?$_List_unchecked_iterator@V?$_List_val@U?$_List_simple_types@U?$pair@$$CBV?$basic_string@DU?$char_traits@D@std@@V?$allocator@D@2@@std@@VAny@BT@@@std@@@std@@@std@@@0@AEBV10@@Z
	??$_Construct_in_place@V?$_List_unchecked_iterator@V?$_List_val@U?$_List_simple_types@U?$pair@$$CBV?$basic_string@DU?$char_traits@D@std@@V?$allocator@D@2@@std@@VPortInfo@BT@@@std@@@std@@@std@@@std@@AEBV12@@std@@YAXAEAV?$_List_unchecked_iterator@V?$_List_val@U?$_List_simple_types@U?$pair@$$CBV?$basic_string@DU?$char_traits@D@std@@V?$allocator@D@2@@std@@VPortInfo@BT@@@std@@@std@@@std@@@0@AEBV10@@Z
	??$_Construct_in_place@V?$_List_unchecked_iterator@V?$_List_val@U?$_List_simple_types@U?$pair@$$CBV?$basic_string@DU?$char_traits@D@std@@V?$allocator@D@2@@std@@W4NodeType@BT@@@std@@@std@@@std@@@std@@AEBV12@@std@@YAXAEAV?$_List_unchecked_iterator@V?$_List_val@U?$_List_simple_types@U?$pair@$$CBV?$basic_string@DU?$char_traits@D@std@@V?$allocator@D@2@@std@@W4NodeType@BT@@@std@@@std@@@std@@@0@AEBV10@@Z
	??$_Construct_in_place@V?$function@$$A6AXV?$time_point@Usteady_clock@chrono@std@@V?$duration@_JU?$ratio@$00$0DLJKMKAA@@std@@@23@@chrono@std@@AEBVTreeNode@BT@@W4NodeStatus@5@2@Z@std@@V12@@std@@YAXAEAV?$function@$$A6AXV?$time_point@Usteady_clock@chrono@std@@V?$duration@_JU?$ratio@$00$0DLJKMKAA@@std@@@23@@chrono@std@@AEBVTreeNode@BT@@W4NodeStatus@5@2@Z@0@$$QEAV10@@Z
	??$_Construct_in_place@V?$unordered_map@V?$basic_string@DU?$char_traits@D@std@@V?$allocator@D@2@@std@@HU?$hash@V?$basic_string@DU?$char_traits@D@std@@V?$allocator@D@2@@std@@@2@U?$equal_to@V?$basic_string@DU?$char_traits@D@std@@V?$allocator@D@2@@std@@@2@V?$allocator@U?$pair@$$CBV?$basic_string@DU?$char_traits@D@std@@V?$allocator@D@2@@std@@H@std@@@2@@std@@$$V@std@@YAXAEAV?$unordered_map@V?$basic_string@DU?$char_traits@D@std@@V?$allocator@D@2@@std@@HU?$hash@V?$basic_string@DU?$char_traits@D@std@@V?$allocator@D@2@@std@@@2@U?$equal_to@V?$basic_string@DU?$char_traits@D@std@@V?$allocator@D@2@@std@@@2@V?$allocator@U?$pair@$$CBV?$basic_string@DU?$char_traits@D@std@@V?$allocator@D@2@@std@@H@std@@@2@@0@@Z
	??$_Construct_in_place@VWakeUpSignal@BT@@$$V@std@@YAXAEAVWakeUpSignal@BT@@@Z
	??$_Construct_in_place@VXMLParser@BT@@AEAVBehaviorTreeFactory@2@@std@@YAXAEAVXMLParser@BT@@AEAVBehaviorTreeFactory@2@@Z
	??$_Convert_Source_to_wide@PEBDU_Normal_conversion@filesystem@std@@@filesystem@std@@YA?AV?$basic_string@_WU?$char_traits@_W@std@@V?$allocator@_W@2@@1@AEBQEBDU_Normal_conversion@01@@Z
	??$_Convert_Source_to_wide@V?$basic_string@DU?$char_traits@D@std@@V?$allocator@D@2@@std@@U_Normal_conversion@filesystem@2@@filesystem@std@@YA?AV?$basic_string@_WU?$char_traits@_W@std@@V?$allocator@_W@2@@1@AEBV?$basic_string@DU?$char_traits@D@std@@V?$allocator@D@2@@1@U_Normal_conversion@01@@Z
	??$_Convert_Source_to_wide@V?$basic_string_view@_WU?$char_traits@_W@std@@@std@@U_Normal_conversion@filesystem@2@@filesystem@std@@YA?AV?$basic_string@_WU?$char_traits@_W@std@@V?$allocator@_W@2@@1@AEBV?$basic_string_view@_WU?$char_traits@_W@std@@@1@U_Normal_conversion@01@@Z
	??$_Convert_size@_K@std@@YA_K_K@Z
	??$_Convert_stringoid_to_wide@U_Normal_conversion@filesystem@std@@@filesystem@std@@YA?AV?$basic_string@_WU?$char_traits@_W@std@@V?$allocator@_W@2@@1@V?$basic_string_view@DU?$char_traits@D@std@@@1@U_Normal_conversion@01@@Z
	??$_Convert_stringoid_to_wide@U_Normal_conversion@filesystem@std@@@filesystem@std@@YA?AV?$basic_string@_WU?$char_traits@_W@std@@V?$allocator@_W@2@@1@V?$basic_string_view@_WU?$char_traits@_W@std@@@1@U_Normal_conversion@01@@Z
	??$_Convert_wide_to@U?$char_traits@D@std@@V?$allocator@D@2@D@filesystem@std@@YA?AV?$basic_string@DU?$char_traits@D@std@@V?$allocator@D@2@@1@V?$basic_string_view@_WU?$char_traits@_W@std@@@1@AEBV?$allocator@D@1@@Z
	??$_Convert_wide_to_narrow@U?$char_traits@D@std@@V?$allocator@D@2@@filesystem@std@@YA?AV?$basic_string@DU?$char_traits@D@std@@V?$allocator@D@2@@1@W4__std_code_page@@V?$basic_string_view@_WU?$char_traits@_W@std@@@1@AEBV?$allocator@D@1@@Z
	??$_Convert_wide_to_narrow_replace_chars@U?$char_traits@D@std@@V?$allocator@D@2@@filesystem@std@@YA?AV?$basic_string@DU?$char_traits@D@std@@V?$allocator@D@2@@1@W4__std_code_page@@V?$basic_string_view@_WU?$char_traits@_W@std@@@1@AEBV?$allocator@D@1@@Z
	??$_Copy@U_Copy_tag@?$_Tree@V?$_Tmap_traits@W4PostCond@BT@@V?$basic_string@DU?$char_traits@D@std@@V?$allocator@D@2@@std@@U?$less@W4PostCond@BT@@@4@V?$allocator@U?$pair@$$CBW4PostCond@BT@@V?$basic_string@DU?$char_traits@D@std@@V?$allocator@D@2@@std@@@std@@@4@$0A@@std@@@std@@@?$_Tree@V?$_Tmap_traits@W4PostCond@BT@@V?$basic_string@DU?$char_traits@D@std@@V?$allocator@D@2@@std@@U?$less@W4PostCond@BT@@@4@V?$allocator@U?$pair@$$CBW4PostCond@BT@@V?$basic_string@DU?$char_traits@D@std@@V?$allocator@D@2@@std@@@std@@@4@$0A@@std@@@std@@IEAAXAEBV01@U_Copy_tag@01@@Z
	??$_Copy@U_Copy_tag@?$_Tree@V?$_Tmap_traits@W4PreCond@BT@@V?$basic_string@DU?$char_traits@D@std@@V?$allocator@D@2@@std@@U?$less@W4PreCond@BT@@@4@V?$allocator@U?$pair@$$CBW4PreCond@BT@@V?$basic_string@DU?$char_traits@D@std@@V?$allocator@D@2@@std@@@std@@@4@$0A@@std@@@std@@@?$_Tree@V?$_Tmap_traits@W4PreCond@BT@@V?$basic_string@DU?$char_traits@D@std@@V?$allocator@D@2@@std@@U?$less@W4PreCond@BT@@@4@V?$allocator@U?$pair@$$CBW4PreCond@BT@@V?$basic_string@DU?$char_traits@D@std@@V?$allocator@D@2@@std@@@std@@@4@$0A@@std@@@std@@IEAAXAEBV01@U_Copy_tag@01@@Z
	??$_Copy_construct_from@U?$_Task_impl@E@details@Concurrency@@@?$_Ptr_base@U?$_Task_impl@E@details@Concurrency@@@std@@IEAAXAEBV?$shared_ptr@U?$_Task_impl@E@details@Concurrency@@@1@@Z
	??$_Copy_construct_from@UExprBase@Ast@BT@@@?$_Ptr_base@UExprBase@Ast@BT@@@std@@IEAAXAEBV?$shared_ptr@UExprBase@Ast@BT@@@1@@Z
	??$_Copy_construct_from@USubtree@Tree@BT@@@?$_Ptr_base@USubtree@Tree@BT@@@std@@IEAAXAEBV?$shared_ptr@USubtree@Tree@BT@@@1@@Z
	??$_Copy_construct_from@U_ExceptionHolder@details@Concurrency@@@?$_Ptr_base@U_ExceptionHolder@details@Concurrency@@@std@@IEAAXAEBV?$shared_ptr@U_ExceptionHolder@details@Concurrency@@@1@@Z
	??$_Copy_construct_from@U_Task_impl_base@details@Concurrency@@@?$_Ptr_base@U_Task_impl_base@details@Concurrency@@@std@@IEAAXAEBV?$shared_ptr@U_Task_impl_base@details@Concurrency@@@1@@Z
	??$_Copy_construct_from@Uscheduler_interface@Concurrency@@@?$_Ptr_base@Uscheduler_interface@Concurrency@@@std@@IEAAXAEBV?$shared_ptr@Uscheduler_interface@Concurrency@@@1@@Z
	??$_Copy_construct_from@V?$unordered_map@V?$basic_string@DU?$char_traits@D@std@@V?$allocator@D@2@@std@@HU?$hash@V?$basic_string@DU?$char_traits@D@std@@V?$allocator@D@2@@std@@@2@U?$equal_to@V?$basic_string@DU?$char_traits@D@std@@V?$allocator@D@2@@std@@@2@V?$allocator@U?$pair@$$CBV?$basic_string@DU?$char_traits@D@std@@V?$allocator@D@2@@std@@H@std@@@2@@std@@@?$_Ptr_base@V?$unordered_map@V?$basic_string@DU?$char_traits@D@std@@V?$allocator@D@2@@std@@HU?$hash@V?$basic_string@DU?$char_traits@D@std@@V?$allocator@D@2@@std@@@2@U?$equal_to@V?$basic_string@DU?$char_traits@D@std@@V?$allocator@D@2@@std@@@2@V?$allocator@U?$pair@$$CBV?$basic_string@DU?$char_traits@D@std@@V?$allocator@D@2@@std@@H@std@@@2@@std@@@std@@IEAAXAEBV?$shared_ptr@V?$unordered_map@V?$basic_string@DU?$char_traits@D@std@@V?$allocator@D@2@@std@@HU?$hash@V?$basic_string@DU?$char_traits@D@std@@V?$allocator@D@2@@std@@@2@U?$equal_to@V?$basic_string@DU?$char_traits@D@std@@V?$allocator@D@2@@std@@@2@V?$allocator@U?$pair@$$CBV?$basic_string@DU?$char_traits@D@std@@V?$allocator@D@2@@std@@H@std@@@2@@std@@@1@@Z
	??$_Copy_construct_from@VBlackboard@BT@@@?$_Ptr_base@VBlackboard@BT@@@std@@IEAAXAEBV?$shared_ptr@VBlackboard@BT@@@1@@Z
	??$_Copy_construct_from@VTreeNode@BT@@@?$_Ptr_base@VTreeNode@BT@@@std@@IEAAXAEBV?$shared_ptr@VTreeNode@BT@@@1@@Z
	??$_Copy_construct_from@VWakeUpSignal@BT@@@?$_Ptr_base@VWakeUpSignal@BT@@@std@@IEAAXAEBV?$shared_ptr@VWakeUpSignal@BT@@@1@@Z
	??$_Copy_memmove@PEAEPEAE@std@@YAPEAEPEAE00@Z
	??$_Copy_memmove@PEAGPEAG@std@@YAPEAGPEAG00@Z
	??$_Copy_memmove@PEAHPEAH@std@@YAPEAHPEAH00@Z
	??$_Copy_memmove@PEANPEAN@std@@YAPEANPEAN00@Z
	??$_Copy_memmove@PEAPEAVTreeNode@BT@@PEAPEAV12@@std@@YAPEAPEAVTreeNode@BT@@PEAPEAV12@00@Z
	??$_Copy_memmove@PEAPEAXPEAPEAX@std@@YAPEAPEAXPEAPEAX00@Z
	??$_Copy_memmove@PEAV?$array@E$0M@@std@@PEAV12@@std@@YAPEAV?$array@E$0M@@0@PEAV10@00@Z
	??$_Copy_memmove@PEAW4op_t@ExprComparison@Ast@BT@@PEAW41234@@std@@YAPEAW4op_t@ExprComparison@Ast@BT@@PEAW41234@00@Z
	??$_Copy_nodes@U_Copy_tag@?$_Tree@V?$_Tmap_traits@W4PostCond@BT@@V?$basic_string@DU?$char_traits@D@std@@V?$allocator@D@2@@std@@U?$less@W4PostCond@BT@@@4@V?$allocator@U?$pair@$$CBW4PostCond@BT@@V?$basic_string@DU?$char_traits@D@std@@V?$allocator@D@2@@std@@@std@@@4@$0A@@std@@@std@@@?$_Tree@V?$_Tmap_traits@W4PostCond@BT@@V?$basic_string@DU?$char_traits@D@std@@V?$allocator@D@2@@std@@U?$less@W4PostCond@BT@@@4@V?$allocator@U?$pair@$$CBW4PostCond@BT@@V?$basic_string@DU?$char_traits@D@std@@V?$allocator@D@2@@std@@@std@@@4@$0A@@std@@@std@@IEAAPEAU?$_Tree_node@U?$pair@$$CBW4PostCond@BT@@V?$basic_string@DU?$char_traits@D@std@@V?$allocator@D@2@@std@@@std@@PEAX@1@PEAU21@0U_Copy_tag@01@@Z
	??$_Copy_nodes@U_Copy_tag@?$_Tree@V?$_Tmap_traits@W4PreCond@BT@@V?$basic_string@DU?$char_traits@D@std@@V?$allocator@D@2@@std@@U?$less@W4PreCond@BT@@@4@V?$allocator@U?$pair@$$CBW4PreCond@BT@@V?$basic_string@DU?$char_traits@D@std@@V?$allocator@D@2@@std@@@std@@@4@$0A@@std@@@std@@@?$_Tree@V?$_Tmap_traits@W4PreCond@BT@@V?$basic_string@DU?$char_traits@D@std@@V?$allocator@D@2@@std@@U?$less@W4PreCond@BT@@@4@V?$allocator@U?$pair@$$CBW4PreCond@BT@@V?$basic_string@DU?$char_traits@D@std@@V?$allocator@D@2@@std@@@std@@@4@$0A@@std@@@std@@IEAAPEAU?$_Tree_node@U?$pair@$$CBW4PreCond@BT@@V?$basic_string@DU?$char_traits@D@std@@V?$allocator@D@2@@std@@@std@@PEAX@1@PEAU21@0U_Copy_tag@01@@Z
	??$_Copy_or_move@U?$pair@$$CBW4PostCond@BT@@V?$basic_string@DU?$char_traits@D@std@@V?$allocator@D@2@@std@@@std@@U?$integral_constant@_N$0A@@2@@?$_Tree@V?$_Tmap_traits@W4PostCond@BT@@V?$basic_string@DU?$char_traits@D@std@@V?$allocator@D@2@@std@@U?$less@W4PostCond@BT@@@4@V?$allocator@U?$pair@$$CBW4PostCond@BT@@V?$basic_string@DU?$char_traits@D@std@@V?$allocator@D@2@@std@@@std@@@4@$0A@@std@@@std@@IEAAPEAU?$_Tree_node@U?$pair@$$CBW4PostCond@BT@@V?$basic_string@DU?$char_traits@D@std@@V?$allocator@D@2@@std@@@std@@PEAX@1@AEAU?$pair@$$CBW4PostCond@BT@@V?$basic_string@DU?$char_traits@D@std@@V?$allocator@D@2@@std@@@1@U_Copy_tag@01@U?$integral_constant@_N$0A@@1@@Z
	??$_Copy_or_move@U?$pair@$$CBW4PreCond@BT@@V?$basic_string@DU?$char_traits@D@std@@V?$allocator@D@2@@std@@@std@@U?$integral_constant@_N$0A@@2@@?$_Tree@V?$_Tmap_traits@W4PreCond@BT@@V?$basic_string@DU?$char_traits@D@std@@V?$allocator@D@2@@std@@U?$less@W4PreCond@BT@@@4@V?$allocator@U?$pair@$$CBW4PreCond@BT@@V?$basic_string@DU?$char_traits@D@std@@V?$allocator@D@2@@std@@@std@@@4@$0A@@std@@@std@@IEAAPEAU?$_Tree_node@U?$pair@$$CBW4PreCond@BT@@V?$basic_string@DU?$char_traits@D@std@@V?$allocator@D@2@@std@@@std@@PEAX@1@AEAU?$pair@$$CBW4PreCond@BT@@V?$basic_string@DU?$char_traits@D@std@@V?$allocator@D@2@@std@@@1@U_Copy_tag@01@U?$integral_constant@_N$0A@@1@@Z
	??$_Copy_unchecked@PEAPEAXPEAPEAX@std@@YAPEAPEAXPEAPEAX00@Z
	??$_Deallocate@$07$0A@@std@@YAXPEAX_K@Z
	??$_Deallocate@$0BA@$0A@@std@@YAXPEAX_K@Z
	??$_Destroy_in_place@PEAD@std@@YAXAEAPEAD@Z
	??$_Destroy_in_place@PEAU?$_List_node@U?$pair@$$CBV?$basic_string@DU?$char_traits@D@std@@V?$allocator@D@2@@std@@H@std@@PEAX@std@@@std@@YAXAEAPEAU?$_List_node@U?$pair@$$CBV?$basic_string@DU?$char_traits@D@std@@V?$allocator@D@2@@std@@H@std@@PEAX@0@@Z
	??$_Destroy_in_place@PEAU?$_List_node@U?$pair@$$CBV?$basic_string@DU?$char_traits@D@std@@V?$allocator@D@2@@std@@UEntry@Blackboard@BT@@@std@@PEAX@std@@@std@@YAXAEAPEAU?$_List_node@U?$pair@$$CBV?$basic_string@DU?$char_traits@D@std@@V?$allocator@D@2@@std@@UEntry@Blackboard@BT@@@std@@PEAX@0@@Z
	??$_Destroy_in_place@PEAU?$_List_node@U?$pair@$$CBV?$basic_string@DU?$char_traits@D@std@@V?$allocator@D@2@@std@@UTreeNodeManifest@BT@@@std@@PEAX@std@@@std@@YAXAEAPEAU?$_List_node@U?$pair@$$CBV?$basic_string@DU?$char_traits@D@std@@V?$allocator@D@2@@std@@UTreeNodeManifest@BT@@@std@@PEAX@0@@Z
	??$_Destroy_in_place@PEAU?$_List_node@U?$pair@$$CBV?$basic_string@DU?$char_traits@D@std@@V?$allocator@D@2@@std@@V12@@std@@PEAX@std@@@std@@YAXAEAPEAU?$_List_node@U?$pair@$$CBV?$basic_string@DU?$char_traits@D@std@@V?$allocator@D@2@@std@@V12@@std@@PEAX@0@@Z
	??$_Destroy_in_place@PEAU?$_List_node@U?$pair@$$CBV?$basic_string@DU?$char_traits@D@std@@V?$allocator@D@2@@std@@V?$function@$$A6A?AV?$unique_ptr@VTreeNode@BT@@U?$default_delete@VTreeNode@BT@@@std@@@std@@AEBV?$basic_string@DU?$char_traits@D@std@@V?$allocator@D@2@@2@AEBUNodeConfig@BT@@@Z@2@@std@@PEAX@std@@@std@@YAXAEAPEAU?$_List_node@U?$pair@$$CBV?$basic_string@DU?$char_traits@D@std@@V?$allocator@D@2@@std@@V?$function@$$A6A?AV?$unique_ptr@VTreeNode@BT@@U?$default_delete@VTreeNode@BT@@@std@@@std@@AEBV?$basic_string@DU?$char_traits@D@std@@V?$allocator@D@2@@2@AEBUNodeConfig@BT@@@Z@2@@std@@PEAX@0@@Z
	??$_Destroy_in_place@PEAU?$_List_node@U?$pair@$$CBV?$basic_string@DU?$char_traits@D@std@@V?$allocator@D@2@@std@@VAny@BT@@@std@@PEAX@std@@@std@@YAXAEAPEAU?$_List_node@U?$pair@$$CBV?$basic_string@DU?$char_traits@D@std@@V?$allocator@D@2@@std@@VAny@BT@@@std@@PEAX@0@@Z
	??$_Destroy_in_place@PEAU?$_List_node@U?$pair@$$CBV?$basic_string@DU?$char_traits@D@std@@V?$allocator@D@2@@std@@VPortInfo@BT@@@std@@PEAX@std@@@std@@YAXAEAPEAU?$_List_node@U?$pair@$$CBV?$basic_string@DU?$char_traits@D@std@@V?$allocator@D@2@@std@@VPortInfo@BT@@@std@@PEAX@0@@Z
	??$_Destroy_in_place@PEAU?$_List_node@U?$pair@$$CBV?$basic_string@DU?$char_traits@D@std@@V?$allocator@D@2@@std@@W4NodeType@BT@@@std@@PEAX@std@@@std@@YAXAEAPEAU?$_List_node@U?$pair@$$CBV?$basic_string@DU?$char_traits@D@std@@V?$allocator@D@2@@std@@W4NodeType@BT@@@std@@PEAX@0@@Z
	??$_Destroy_in_place@PEAU?$_List_node@V?$unique_ptr@VXMLDocument@tinyxml2@@U?$default_delete@VXMLDocument@tinyxml2@@@std@@@std@@PEAX@std@@@std@@YAXAEAPEAU?$_List_node@V?$unique_ptr@VXMLDocument@tinyxml2@@U?$default_delete@VXMLDocument@tinyxml2@@@std@@@std@@PEAX@0@@Z
	??$_Destroy_in_place@PEAU?$_Tree_node@U?$Offset@UString@flatbuffers@@@flatbuffers@@PEAX@std@@@std@@YAXAEAPEAU?$_Tree_node@U?$Offset@UString@flatbuffers@@@flatbuffers@@PEAX@0@@Z
	??$_Destroy_in_place@PEAU?$_Tree_node@U?$pair@$$CBV?$basic_string@DU?$char_traits@D@std@@V?$allocator@D@2@@std@@PEBVXMLElement@tinyxml2@@@std@@PEAX@std@@@std@@YAXAEAPEAU?$_Tree_node@U?$pair@$$CBV?$basic_string@DU?$char_traits@D@std@@V?$allocator@D@2@@std@@PEBVXMLElement@tinyxml2@@@std@@PEAX@0@@Z
	??$_Destroy_in_place@PEAU?$_Tree_node@U?$pair@$$CBW4PostCond@BT@@V?$basic_string@DU?$char_traits@D@std@@V?$allocator@D@2@@std@@@std@@PEAX@std@@@std@@YAXAEAPEAU?$_Tree_node@U?$pair@$$CBW4PostCond@BT@@V?$basic_string@DU?$char_traits@D@std@@V?$allocator@D@2@@std@@@std@@PEAX@0@@Z
	??$_Destroy_in_place@PEAU?$_Tree_node@U?$pair@$$CBW4PreCond@BT@@V?$basic_string@DU?$char_traits@D@std@@V?$allocator@D@2@@std@@@std@@PEAX@std@@@std@@YAXAEAPEAU?$_Tree_node@U?$pair@$$CBW4PreCond@BT@@V?$basic_string@DU?$char_traits@D@std@@V?$allocator@D@2@@std@@@std@@PEAX@0@@Z
	??$_Destroy_in_place@PEAU?$_Tree_node@V?$basic_string@DU?$char_traits@D@std@@V?$allocator@D@2@@std@@PEAX@std@@@std@@YAXAEAPEAU?$_Tree_node@V?$basic_string@DU?$char_traits@D@std@@V?$allocator@D@2@@std@@PEAX@0@@Z
	??$_Destroy_in_place@PEAU?$_Tree_node@V?$basic_string_view@DU?$char_traits@D@std@@@std@@PEAX@std@@@std@@YAXAEAPEAU?$_Tree_node@V?$basic_string_view@DU?$char_traits@D@std@@@std@@PEAX@0@@Z
	??$_Destroy_in_place@PEAU?$_Tree_node@_KPEAX@std@@@std@@YAXAEAPEAU?$_Tree_node@_KPEAX@0@@Z
	??$_Destroy_in_place@PEA_W@std@@YAXAEAPEA_W@Z
	??$_Destroy_in_place@U?$_Task_impl@E@details@Concurrency@@@std@@YAXAEAU?$_Task_impl@E@details@Concurrency@@@Z
	??$_Destroy_in_place@USubtree@Tree@BT@@@std@@YAXAEAUSubtree@Tree@BT@@@Z
	??$_Destroy_in_place@U_ExceptionHolder@details@Concurrency@@@std@@YAXAEAU_ExceptionHolder@details@Concurrency@@@Z
	??$_Destroy_in_place@V?$function@$$A6AXV?$time_point@Usteady_clock@chrono@std@@V?$duration@_JU?$ratio@$00$0DLJKMKAA@@std@@@23@@chrono@std@@AEBVTreeNode@BT@@W4NodeStatus@5@2@Z@std@@@std@@YAXAEAV?$function@$$A6AXV?$time_point@Usteady_clock@chrono@std@@V?$duration@_JU?$ratio@$00$0DLJKMKAA@@std@@@23@@chrono@std@@AEBVTreeNode@BT@@W4NodeStatus@5@2@Z@0@@Z
	??$_Destroy_in_place@V?$unordered_map@V?$basic_string@DU?$char_traits@D@std@@V?$allocator@D@2@@std@@HU?$hash@V?$basic_string@DU?$char_traits@D@std@@V?$allocator@D@2@@std@@@2@U?$equal_to@V?$basic_string@DU?$char_traits@D@std@@V?$allocator@D@2@@std@@@2@V?$allocator@U?$pair@$$CBV?$basic_string@DU?$char_traits@D@std@@V?$allocator@D@2@@std@@H@std@@@2@@std@@@std@@YAXAEAV?$unordered_map@V?$basic_string@DU?$char_traits@D@std@@V?$allocator@D@2@@std@@HU?$hash@V?$basic_string@DU?$char_traits@D@std@@V?$allocator@D@2@@std@@@2@U?$equal_to@V?$basic_string@DU?$char_traits@D@std@@V?$allocator@D@2@@std@@@2@V?$allocator@U?$pair@$$CBV?$basic_string@DU?$char_traits@D@std@@V?$allocator@D@2@@std@@H@std@@@2@@0@@Z
	??$_Destroy_in_place@VWakeUpSignal@BT@@@std@@YAXAEAVWakeUpSignal@BT@@@Z
	??$_Destroy_in_place@VXMLParser@BT@@@std@@YAXAEAVXMLParser@BT@@@Z
	??$_Destroy_range@PEAV?$_List_unchecked_iterator@V?$_List_val@U?$_List_simple_types@U?$pair@$$CBV?$basic_string@DU?$char_traits@D@std@@V?$allocator@D@2@@std@@H@std@@@std@@@std@@@std@@PEAV12@@std@@YAXPEAV?$_List_unchecked_iterator@V?$_List_val@U?$_List_simple_types@U?$pair@$$CBV?$basic_string@DU?$char_traits@D@std@@V?$allocator@D@2@@std@@H@std@@@std@@@std@@@0@QEAV10@@Z
	??$_Destroy_range@PEAV?$_List_unchecked_iterator@V?$_List_val@U?$_List_simple_types@U?$pair@$$CBV?$basic_string@DU?$char_traits@D@std@@V?$allocator@D@2@@std@@UEntry@Blackboard@BT@@@std@@@std@@@std@@@std@@PEAV12@@std@@YAXPEAV?$_List_unchecked_iterator@V?$_List_val@U?$_List_simple_types@U?$pair@$$CBV?$basic_string@DU?$char_traits@D@std@@V?$allocator@D@2@@std@@UEntry@Blackboard@BT@@@std@@@std@@@std@@@0@QEAV10@@Z
	??$_Destroy_range@PEAV?$_List_unchecked_iterator@V?$_List_val@U?$_List_simple_types@U?$pair@$$CBV?$basic_string@DU?$char_traits@D@std@@V?$allocator@D@2@@std@@UTreeNodeManifest@BT@@@std@@@std@@@std@@@std@@PEAV12@@std@@YAXPEAV?$_List_unchecked_iterator@V?$_List_val@U?$_List_simple_types@U?$pair@$$CBV?$basic_string@DU?$char_traits@D@std@@V?$allocator@D@2@@std@@UTreeNodeManifest@BT@@@std@@@std@@@std@@@0@QEAV10@@Z
	??$_Destroy_range@PEAV?$_List_unchecked_iterator@V?$_List_val@U?$_List_simple_types@U?$pair@$$CBV?$basic_string@DU?$char_traits@D@std@@V?$allocator@D@2@@std@@V12@@std@@@std@@@std@@@std@@PEAV12@@std@@YAXPEAV?$_List_unchecked_iterator@V?$_List_val@U?$_List_simple_types@U?$pair@$$CBV?$basic_string@DU?$char_traits@D@std@@V?$allocator@D@2@@std@@V12@@std@@@std@@@std@@@0@QEAV10@@Z
	??$_Destroy_range@PEAV?$_List_unchecked_iterator@V?$_List_val@U?$_List_simple_types@U?$pair@$$CBV?$basic_string@DU?$char_traits@D@std@@V?$allocator@D@2@@std@@V?$function@$$A6A?AV?$unique_ptr@VTreeNode@BT@@U?$default_delete@VTreeNode@BT@@@std@@@std@@AEBV?$basic_string@DU?$char_traits@D@std@@V?$allocator@D@2@@2@AEBUNodeConfig@BT@@@Z@2@@std@@@std@@@std@@@std@@PEAV12@@std@@YAXPEAV?$_List_unchecked_iterator@V?$_List_val@U?$_List_simple_types@U?$pair@$$CBV?$basic_string@DU?$char_traits@D@std@@V?$allocator@D@2@@std@@V?$function@$$A6A?AV?$unique_ptr@VTreeNode@BT@@U?$default_delete@VTreeNode@BT@@@std@@@std@@AEBV?$basic_string@DU?$char_traits@D@std@@V?$allocator@D@2@@2@AEBUNodeConfig@BT@@@Z@2@@std@@@std@@@std@@@0@QEAV10@@Z
	??$_Destroy_range@PEAV?$_List_unchecked_iterator@V?$_List_val@U?$_List_simple_types@U?$pair@$$CBV?$basic_string@DU?$char_traits@D@std@@V?$allocator@D@2@@std@@VAny@BT@@@std@@@std@@@std@@@std@@PEAV12@@std@@YAXPEAV?$_List_unchecked_iterator@V?$_List_val@U?$_List_simple_types@U?$pair@$$CBV?$basic_string@DU?$char_traits@D@std@@V?$allocator@D@2@@std@@VAny@BT@@@std@@@std@@@std@@@0@QEAV10@@Z
	??$_Destroy_range@PEAV?$_List_unchecked_iterator@V?$_List_val@U?$_List_simple_types@U?$pair@$$CBV?$basic_string@DU?$char_traits@D@std@@V?$allocator@D@2@@std@@VPortInfo@BT@@@std@@@std@@@std@@@std@@PEAV12@@std@@YAXPEAV?$_List_unchecked_iterator@V?$_List_val@U?$_List_simple_types@U?$pair@$$CBV?$basic_string@DU?$char_traits@D@std@@V?$allocator@D@2@@std@@VPortInfo@BT@@@std@@@std@@@std@@@0@QEAV10@@Z
	??$_Destroy_range@PEAV?$_List_unchecked_iterator@V?$_List_val@U?$_List_simple_types@U?$pair@$$CBV?$basic_string@DU?$char_traits@D@std@@V?$allocator@D@2@@std@@W4NodeType@BT@@@std@@@std@@@std@@@std@@PEAV12@@std@@YAXPEAV?$_List_unchecked_iterator@V?$_List_val@U?$_List_simple_types@U?$pair@$$CBV?$basic_string@DU?$char_traits@D@std@@V?$allocator@D@2@@std@@W4NodeType@BT@@@std@@@std@@@std@@@0@QEAV10@@Z
	??$_Destroy_range@V?$allocator@E@std@@@std@@YAXPEAEQEAEAEAV?$allocator@E@0@@Z
	??$_Destroy_range@V?$allocator@G@std@@@std@@YAXPEAGQEAGAEAV?$allocator@G@0@@Z
	??$_Destroy_range@V?$allocator@H@std@@@std@@YAXPEAHQEAHAEAV?$allocator@H@0@@Z
	??$_Destroy_range@V?$allocator@N@std@@@std@@YAXPEANQEANAEAV?$allocator@N@0@@Z
	??$_Destroy_range@V?$allocator@PEAVTreeNode@BT@@@std@@@std@@YAXPEAPEAVTreeNode@BT@@QEAPEAV12@AEAV?$allocator@PEAVTreeNode@BT@@@0@@Z
	??$_Destroy_range@V?$allocator@PEAX@std@@@std@@YAXPEAPEAXQEAPEAXAEAV?$allocator@PEAX@0@@Z
	??$_Destroy_range@V?$allocator@U?$Offset@UNodeModel@Serialization@@@flatbuffers@@@std@@@std@@YAXPEAU?$Offset@UNodeModel@Serialization@@@flatbuffers@@QEAU12@AEAV?$allocator@U?$Offset@UNodeModel@Serialization@@@flatbuffers@@@0@@Z
	??$_Destroy_range@V?$allocator@U?$Offset@UPortConfig@Serialization@@@flatbuffers@@@std@@@std@@YAXPEAU?$Offset@UPortConfig@Serialization@@@flatbuffers@@QEAU12@AEAV?$allocator@U?$Offset@UPortConfig@Serialization@@@flatbuffers@@@0@@Z
	??$_Destroy_range@V?$allocator@U?$Offset@UPortModel@Serialization@@@flatbuffers@@@std@@@std@@YAXPEAU?$Offset@UPortModel@Serialization@@@flatbuffers@@QEAU12@AEAV?$allocator@U?$Offset@UPortModel@Serialization@@@flatbuffers@@@0@@Z
	??$_Destroy_range@V?$allocator@U?$Offset@UTreeNode@Serialization@@@flatbuffers@@@std@@@std@@YAXPEAU?$Offset@UTreeNode@Serialization@@@flatbuffers@@QEAU12@AEAV?$allocator@U?$Offset@UTreeNode@Serialization@@@flatbuffers@@@0@@Z
	??$_Destroy_range@V?$allocator@U?$pair@GE@std@@@std@@@std@@YAXPEAU?$pair@GE@0@QEAU10@AEAV?$allocator@U?$pair@GE@std@@@0@@Z
	??$_Destroy_range@V?$allocator@UWorkItem@?$TimerQueue@Usteady_clock@chrono@std@@V?$duration@_JU?$ratio@$00$0DLJKMKAA@@std@@@23@@BT@@@std@@@std@@YAXPEAUWorkItem@?$TimerQueue@Usteady_clock@chrono@std@@V?$duration@_JU?$ratio@$00$0DLJKMKAA@@std@@@23@@BT@@QEAU123@AEAV?$allocator@UWorkItem@?$TimerQueue@Usteady_clock@chrono@std@@V?$duration@_JU?$ratio@$00$0DLJKMKAA@@std@@@23@@BT@@@0@@Z
	??$_Destroy_range@V?$allocator@V?$array@E$0M@@std@@@std@@@std@@YAXPEAV?$array@E$0M@@0@QEAV10@AEAV?$allocator@V?$array@E$0M@@std@@@0@@Z
	??$_Destroy_range@V?$allocator@V?$basic_string@DU?$char_traits@D@std@@V?$allocator@D@2@@std@@@std@@@std@@YAXPEAV?$basic_string@DU?$char_traits@D@std@@V?$allocator@D@2@@0@QEAV10@AEAV?$allocator@V?$basic_string@DU?$char_traits@D@std@@V?$allocator@D@2@@std@@@0@@Z
	??$_Destroy_range@V?$allocator@V?$basic_string_view@DU?$char_traits@D@std@@@std@@@std@@@std@@YAXPEAV?$basic_string_view@DU?$char_traits@D@std@@@0@QEAV10@AEAV?$allocator@V?$basic_string_view@DU?$char_traits@D@std@@@std@@@0@@Z
	??$_Destroy_range@V?$allocator@V?$shared_ptr@UExprBase@Ast@BT@@@std@@@std@@@std@@YAXPEAV?$shared_ptr@UExprBase@Ast@BT@@@0@QEAV10@AEAV?$allocator@V?$shared_ptr@UExprBase@Ast@BT@@@std@@@0@@Z
	??$_Destroy_range@V?$allocator@V?$shared_ptr@USubtree@Tree@BT@@@std@@@std@@@std@@YAXPEAV?$shared_ptr@USubtree@Tree@BT@@@0@QEAV10@AEAV?$allocator@V?$shared_ptr@USubtree@Tree@BT@@@std@@@0@@Z
	??$_Destroy_range@V?$allocator@V?$shared_ptr@V?$function@$$A6AXV?$time_point@Usteady_clock@chrono@std@@V?$duration@_JU?$ratio@$00$0DLJKMKAA@@std@@@23@@chrono@std@@AEBVTreeNode@BT@@W4NodeStatus@5@2@Z@std@@@std@@@std@@@std@@YAXPEAV?$shared_ptr@V?$function@$$A6AXV?$time_point@Usteady_clock@chrono@std@@V?$duration@_JU?$ratio@$00$0DLJKMKAA@@std@@@23@@chrono@std@@AEBVTreeNode@BT@@W4NodeStatus@5@2@Z@std@@@0@QEAV10@AEAV?$allocator@V?$shared_ptr@V?$function@$$A6AXV?$time_point@Usteady_clock@chrono@std@@V?$duration@_JU?$ratio@$00$0DLJKMKAA@@std@@@23@@chrono@std@@AEBVTreeNode@BT@@W4NodeStatus@5@2@Z@std@@@std@@@0@@Z
	??$_Destroy_range@V?$allocator@V?$shared_ptr@VTreeNode@BT@@@std@@@std@@@std@@YAXPEAV?$shared_ptr@VTreeNode@BT@@@0@QEAV10@AEAV?$allocator@V?$shared_ptr@VTreeNode@BT@@@std@@@0@@Z
	??$_Destroy_range@V?$allocator@V?$weak_ptr@V?$function@$$A6AXV?$time_point@Usteady_clock@chrono@std@@V?$duration@_JU?$ratio@$00$0DLJKMKAA@@std@@@23@@chrono@std@@AEBVTreeNode@BT@@W4NodeStatus@5@2@Z@std@@@std@@@std@@@std@@YAXPEAV?$weak_ptr@V?$function@$$A6AXV?$time_point@Usteady_clock@chrono@std@@V?$duration@_JU?$ratio@$00$0DLJKMKAA@@std@@@23@@chrono@std@@AEBVTreeNode@BT@@W4NodeStatus@5@2@Z@std@@@0@QEAV10@AEAV?$allocator@V?$weak_ptr@V?$function@$$A6AXV?$time_point@Usteady_clock@chrono@std@@V?$duration@_JU?$ratio@$00$0DLJKMKAA@@std@@@23@@chrono@std@@AEBVTreeNode@BT@@W4NodeStatus@5@2@Z@std@@@std@@@0@@Z
	??$_Destroy_range@V?$allocator@W4op_t@ExprComparison@Ast@BT@@@std@@@std@@YAXPEAW4op_t@ExprComparison@Ast@BT@@QEAW41234@AEAV?$allocator@W4op_t@ExprComparison@Ast@BT@@@0@@Z
	??$_Emplace@AEBV?$basic_string@DU?$char_traits@D@std@@V?$allocator@D@2@@std@@@?$_Tree@V?$_Tset_traits@V?$basic_string@DU?$char_traits@D@std@@V?$allocator@D@2@@std@@U?$less@V?$basic_string@DU?$char_traits@D@std@@V?$allocator@D@2@@std@@@2@V?$allocator@V?$basic_string@DU?$char_traits@D@std@@V?$allocator@D@2@@std@@@2@$0A@@std@@@std@@IEAA?AU?$pair@PEAU?$_Tree_node@V?$basic_string@DU?$char_traits@D@std@@V?$allocator@D@2@@std@@PEAX@std@@_N@1@AEBV?$basic_string@DU?$char_traits@D@std@@V?$allocator@D@2@@1@@Z
	??$_Emplace@AEB_K@?$_Tree@V?$_Tset_traits@_KU?$less@_K@std@@V?$allocator@_K@2@$0A@@std@@@std@@IEAA?AU?$pair@PEAU?$_Tree_node@_KPEAX@std@@_N@1@AEB_K@Z
	??$_Emplace@PEAVXMLDocument@tinyxml2@@@?$list@V?$unique_ptr@VXMLDocument@tinyxml2@@U?$default_delete@VXMLDocument@tinyxml2@@@std@@@std@@V?$allocator@V?$unique_ptr@VXMLDocument@tinyxml2@@U?$default_delete@VXMLDocument@tinyxml2@@@std@@@std@@@2@@std@@QEAAPEAU?$_List_node@V?$unique_ptr@VXMLDocument@tinyxml2@@U?$default_delete@VXMLDocument@tinyxml2@@@std@@@std@@PEAX@1@QEAU21@$$QEAPEAVXMLDocument@tinyxml2@@@Z
	??$_Emplace@U?$pair@$$CBW4PostCond@BT@@V?$basic_string@DU?$char_traits@D@std@@V?$allocator@D@2@@std@@@std@@@?$_Tree@V?$_Tmap_traits@W4PostCond@BT@@V?$basic_string@DU?$char_traits@D@std@@V?$allocator@D@2@@std@@U?$less@W4PostCond@BT@@@4@V?$allocator@U?$pair@$$CBW4PostCond@BT@@V?$basic_string@DU?$char_traits@D@std@@V?$allocator@D@2@@std@@@std@@@4@$0A@@std@@@std@@IEAA?AU?$pair@PEAU?$_Tree_node@U?$pair@$$CBW4PostCond@BT@@V?$basic_string@DU?$char_traits@D@std@@V?$allocator@D@2@@std@@@std@@PEAX@std@@_N@1@$$QEAU?$pair@$$CBW4PostCond@BT@@V?$basic_string@DU?$char_traits@D@std@@V?$allocator@D@2@@std@@@1@@Z
	??$_Emplace@U?$pair@$$CBW4PreCond@BT@@V?$basic_string@DU?$char_traits@D@std@@V?$allocator@D@2@@std@@@std@@@?$_Tree@V?$_Tmap_traits@W4PreCond@BT@@V?$basic_string@DU?$char_traits@D@std@@V?$allocator@D@2@@std@@U?$less@W4PreCond@BT@@@4@V?$allocator@U?$pair@$$CBW4PreCond@BT@@V?$basic_string@DU?$char_traits@D@std@@V?$allocator@D@2@@std@@@std@@@4@$0A@@std@@@std@@IEAA?AU?$pair@PEAU?$_Tree_node@U?$pair@$$CBW4PreCond@BT@@V?$basic_string@DU?$char_traits@D@std@@V?$allocator@D@2@@std@@@std@@PEAX@std@@_N@1@$$QEAU?$pair@$$CBW4PreCond@BT@@V?$basic_string@DU?$char_traits@D@std@@V?$allocator@D@2@@std@@@1@@Z
	??$_Emplace@V?$basic_string_view@DU?$char_traits@D@std@@@std@@@?$_Tree@V?$_Tset_traits@V?$basic_string_view@DU?$char_traits@D@std@@@std@@U?$less@V?$basic_string_view@DU?$char_traits@D@std@@@std@@@2@V?$allocator@V?$basic_string_view@DU?$char_traits@D@std@@@std@@@2@$0A@@std@@@std@@IEAA?AU?$pair@PEAU?$_Tree_node@V?$basic_string_view@DU?$char_traits@D@std@@@std@@PEAX@std@@_N@1@$$QEAV?$basic_string_view@DU?$char_traits@D@std@@@1@@Z
	??$_Emplace_back@$$V@?$_Uninitialized_backout_al@V?$allocator@E@std@@@std@@QEAAXXZ
	??$_Emplace_back@AEAPEAX@?$_Uninitialized_backout_al@V?$allocator@PEAX@std@@@std@@QEAAXAEAPEAX@Z
	??$_Emplace_back@AEAV?$shared_ptr@UExprBase@Ast@BT@@@std@@@?$_Uninitialized_backout_al@V?$allocator@V?$shared_ptr@UExprBase@Ast@BT@@@std@@@std@@@std@@QEAAXAEAV?$shared_ptr@UExprBase@Ast@BT@@@1@@Z
	??$_Emplace_back@AEBV?$_List_unchecked_iterator@V?$_List_val@U?$_List_simple_types@U?$pair@$$CBV?$basic_string@DU?$char_traits@D@std@@V?$allocator@D@2@@std@@H@std@@@std@@@std@@@std@@@?$_Uninitialized_backout@PEAV?$_List_unchecked_iterator@V?$_List_val@U?$_List_simple_types@U?$pair@$$CBV?$basic_string@DU?$char_traits@D@std@@V?$allocator@D@2@@std@@H@std@@@std@@@std@@@std@@@std@@QEAAXAEBV?$_List_unchecked_iterator@V?$_List_val@U?$_List_simple_types@U?$pair@$$CBV?$basic_string@DU?$char_traits@D@std@@V?$allocator@D@2@@std@@H@std@@@std@@@std@@@1@@Z
	??$_Emplace_back@AEBV?$_List_unchecked_iterator@V?$_List_val@U?$_List_simple_types@U?$pair@$$CBV?$basic_string@DU?$char_traits@D@std@@V?$allocator@D@2@@std@@UEntry@Blackboard@BT@@@std@@@std@@@std@@@std@@@?$_Uninitialized_backout@PEAV?$_List_unchecked_iterator@V?$_List_val@U?$_List_simple_types@U?$pair@$$CBV?$basic_string@DU?$char_traits@D@std@@V?$allocator@D@2@@std@@UEntry@Blackboard@BT@@@std@@@std@@@std@@@std@@@std@@QEAAXAEBV?$_List_unchecked_iterator@V?$_List_val@U?$_List_simple_types@U?$pair@$$CBV?$basic_string@DU?$char_traits@D@std@@V?$allocator@D@2@@std@@UEntry@Blackboard@BT@@@std@@@std@@@std@@@1@@Z
	??$_Emplace_back@AEBV?$_List_unchecked_iterator@V?$_List_val@U?$_List_simple_types@U?$pair@$$CBV?$basic_string@DU?$char_traits@D@std@@V?$allocator@D@2@@std@@UTreeNodeManifest@BT@@@std@@@std@@@std@@@std@@@?$_Uninitialized_backout@PEAV?$_List_unchecked_iterator@V?$_List_val@U?$_List_simple_types@U?$pair@$$CBV?$basic_string@DU?$char_traits@D@std@@V?$allocator@D@2@@std@@UTreeNodeManifest@BT@@@std@@@std@@@std@@@std@@@std@@QEAAXAEBV?$_List_unchecked_iterator@V?$_List_val@U?$_List_simple_types@U?$pair@$$CBV?$basic_string@DU?$char_traits@D@std@@V?$allocator@D@2@@std@@UTreeNodeManifest@BT@@@std@@@std@@@std@@@1@@Z
	??$_Emplace_back@AEBV?$_List_unchecked_iterator@V?$_List_val@U?$_List_simple_types@U?$pair@$$CBV?$basic_string@DU?$char_traits@D@std@@V?$allocator@D@2@@std@@V12@@std@@@std@@@std@@@std@@@?$_Uninitialized_backout@PEAV?$_List_unchecked_iterator@V?$_List_val@U?$_List_simple_types@U?$pair@$$CBV?$basic_string@DU?$char_traits@D@std@@V?$allocator@D@2@@std@@V12@@std@@@std@@@std@@@std@@@std@@QEAAXAEBV?$_List_unchecked_iterator@V?$_List_val@U?$_List_simple_types@U?$pair@$$CBV?$basic_string@DU?$char_traits@D@std@@V?$allocator@D@2@@std@@V12@@std@@@std@@@std@@@1@@Z
	??$_Emplace_back@AEBV?$_List_unchecked_iterator@V?$_List_val@U?$_List_simple_types@U?$pair@$$CBV?$basic_string@DU?$char_traits@D@std@@V?$allocator@D@2@@std@@V?$function@$$A6A?AV?$unique_ptr@VTreeNode@BT@@U?$default_delete@VTreeNode@BT@@@std@@@std@@AEBV?$basic_string@DU?$char_traits@D@std@@V?$allocator@D@2@@2@AEBUNodeConfig@BT@@@Z@2@@std@@@std@@@std@@@std@@@?$_Uninitialized_backout@PEAV?$_List_unchecked_iterator@V?$_List_val@U?$_List_simple_types@U?$pair@$$CBV?$basic_string@DU?$char_traits@D@std@@V?$allocator@D@2@@std@@V?$function@$$A6A?AV?$unique_ptr@VTreeNode@BT@@U?$default_delete@VTreeNode@BT@@@std@@@std@@AEBV?$basic_string@DU?$char_traits@D@std@@V?$allocator@D@2@@2@AEBUNodeConfig@BT@@@Z@2@@std@@@std@@@std@@@std@@@std@@QEAAXAEBV?$_List_unchecked_iterator@V?$_List_val@U?$_List_simple_types@U?$pair@$$CBV?$basic_string@DU?$char_traits@D@std@@V?$allocator@D@2@@std@@V?$function@$$A6A?AV?$unique_ptr@VTreeNode@BT@@U?$default_delete@VTreeNode@BT@@@std@@@std@@AEBV?$basic_string@DU?$char_traits@D@std@@V?$allocator@D@2@@2@AEBUNodeConfig@BT@@@Z@2@@std@@@std@@@std@@@1@@Z
	??$_Emplace_back@AEBV?$_List_unchecked_iterator@V?$_List_val@U?$_List_simple_types@U?$pair@$$CBV?$basic_string@DU?$char_traits@D@std@@V?$allocator@D@2@@std@@VAny@BT@@@std@@@std@@@std@@@std@@@?$_Uninitialized_backout@PEAV?$_List_unchecked_iterator@V?$_List_val@U?$_List_simple_types@U?$pair@$$CBV?$basic_string@DU?$char_traits@D@std@@V?$allocator@D@2@@std@@VAny@BT@@@std@@@std@@@std@@@std@@@std@@QEAAXAEBV?$_List_unchecked_iterator@V?$_List_val@U?$_List_simple_types@U?$pair@$$CBV?$basic_string@DU?$char_traits@D@std@@V?$allocator@D@2@@std@@VAny@BT@@@std@@@std@@@std@@@1@@Z
	??$_Emplace_back@AEBV?$_List_unchecked_iterator@V?$_List_val@U?$_List_simple_types@U?$pair@$$CBV?$basic_string@DU?$char_traits@D@std@@V?$allocator@D@2@@std@@VPortInfo@BT@@@std@@@std@@@std@@@std@@@?$_Uninitialized_backout@PEAV?$_List_unchecked_iterator@V?$_List_val@U?$_List_simple_types@U?$pair@$$CBV?$basic_string@DU?$char_traits@D@std@@V?$allocator@D@2@@std@@VPortInfo@BT@@@std@@@std@@@std@@@std@@@std@@QEAAXAEBV?$_List_unchecked_iterator@V?$_List_val@U?$_List_simple_types@U?$pair@$$CBV?$basic_string@DU?$char_traits@D@std@@V?$allocator@D@2@@std@@VPortInfo@BT@@@std@@@std@@@std@@@1@@Z
	??$_Emplace_back@AEBV?$_List_unchecked_iterator@V?$_List_val@U?$_List_simple_types@U?$pair@$$CBV?$basic_string@DU?$char_traits@D@std@@V?$allocator@D@2@@std@@W4NodeType@BT@@@std@@@std@@@std@@@std@@@?$_Uninitialized_backout@PEAV?$_List_unchecked_iterator@V?$_List_val@U?$_List_simple_types@U?$pair@$$CBV?$basic_string@DU?$char_traits@D@std@@V?$allocator@D@2@@std@@W4NodeType@BT@@@std@@@std@@@std@@@std@@@std@@QEAAXAEBV?$_List_unchecked_iterator@V?$_List_val@U?$_List_simple_types@U?$pair@$$CBV?$basic_string@DU?$char_traits@D@std@@V?$allocator@D@2@@std@@W4NodeType@BT@@@std@@@std@@@std@@@1@@Z
	??$_Emplace_back@E@?$_Uninitialized_backout_al@V?$allocator@E@std@@@std@@QEAAX$$QEAE@Z
	??$_Emplace_back@G@?$_Uninitialized_backout_al@V?$allocator@G@std@@@std@@QEAAX$$QEAG@Z
	??$_Emplace_back@H@?$_Uninitialized_backout_al@V?$allocator@H@std@@@std@@QEAAX$$QEAH@Z
	??$_Emplace_back@N@?$_Uninitialized_backout_al@V?$allocator@N@std@@@std@@QEAAX$$QEAN@Z
	??$_Emplace_back@PEAVTreeNode@BT@@@?$_Uninitialized_backout_al@V?$allocator@PEAVTreeNode@BT@@@std@@@std@@QEAAX$$QEAPEAVTreeNode@BT@@@Z
	??$_Emplace_back@U?$Offset@UNodeModel@Serialization@@@flatbuffers@@@?$_Uninitialized_backout_al@V?$allocator@U?$Offset@UNodeModel@Serialization@@@flatbuffers@@@std@@@std@@QEAAX$$QEAU?$Offset@UNodeModel@Serialization@@@flatbuffers@@@Z
	??$_Emplace_back@U?$Offset@UPortConfig@Serialization@@@flatbuffers@@@?$_Uninitialized_backout_al@V?$allocator@U?$Offset@UPortConfig@Serialization@@@flatbuffers@@@std@@@std@@QEAAX$$QEAU?$Offset@UPortConfig@Serialization@@@flatbuffers@@@Z
	??$_Emplace_back@U?$Offset@UPortModel@Serialization@@@flatbuffers@@@?$_Uninitialized_backout_al@V?$allocator@U?$Offset@UPortModel@Serialization@@@flatbuffers@@@std@@@std@@QEAAX$$QEAU?$Offset@UPortModel@Serialization@@@flatbuffers@@@Z
	??$_Emplace_back@U?$Offset@UTreeNode@Serialization@@@flatbuffers@@@?$_Uninitialized_backout_al@V?$allocator@U?$Offset@UTreeNode@Serialization@@@flatbuffers@@@std@@@std@@QEAAX$$QEAU?$Offset@UTreeNode@Serialization@@@flatbuffers@@@Z
	??$_Emplace_back@U?$pair@GE@std@@@?$_Uninitialized_backout_al@V?$allocator@U?$pair@GE@std@@@std@@@std@@QEAAX$$QEAU?$pair@GE@1@@Z
	??$_Emplace_back@UWorkItem@?$TimerQueue@Usteady_clock@chrono@std@@V?$duration@_JU?$ratio@$00$0DLJKMKAA@@std@@@23@@BT@@@?$_Uninitialized_backout_al@V?$allocator@UWorkItem@?$TimerQueue@Usteady_clock@chrono@std@@V?$duration@_JU?$ratio@$00$0DLJKMKAA@@std@@@23@@BT@@@std@@@std@@QEAAX$$QEAUWorkItem@?$TimerQueue@Usteady_clock@chrono@std@@V?$duration@_JU?$ratio@$00$0DLJKMKAA@@std@@@23@@BT@@@Z
	??$_Emplace_back@V?$array@E$0M@@std@@@?$_Uninitialized_backout_al@V?$allocator@V?$array@E$0M@@std@@@std@@@std@@QEAAX$$QEAV?$array@E$0M@@1@@Z
	??$_Emplace_back@V?$basic_string@DU?$char_traits@D@std@@V?$allocator@D@2@@std@@@?$_Uninitialized_backout_al@V?$allocator@V?$basic_string@DU?$char_traits@D@std@@V?$allocator@D@2@@std@@@std@@@std@@QEAAX$$QEAV?$basic_string@DU?$char_traits@D@std@@V?$allocator@D@2@@1@@Z
	??$_Emplace_back@V?$basic_string_view@DU?$char_traits@D@std@@@std@@@?$_Uninitialized_backout_al@V?$allocator@V?$basic_string_view@DU?$char_traits@D@std@@@std@@@std@@@std@@QEAAX$$QEAV?$basic_string_view@DU?$char_traits@D@std@@@1@@Z
	??$_Emplace_back@V?$shared_ptr@UExprBase@Ast@BT@@@std@@@?$_Uninitialized_backout_al@V?$allocator@V?$shared_ptr@UExprBase@Ast@BT@@@std@@@std@@@std@@QEAAX$$QEAV?$shared_ptr@UExprBase@Ast@BT@@@1@@Z
	??$_Emplace_back@V?$shared_ptr@USubtree@Tree@BT@@@std@@@?$_Uninitialized_backout_al@V?$allocator@V?$shared_ptr@USubtree@Tree@BT@@@std@@@std@@@std@@QEAAX$$QEAV?$shared_ptr@USubtree@Tree@BT@@@1@@Z
	??$_Emplace_back@V?$shared_ptr@V?$function@$$A6AXV?$time_point@Usteady_clock@chrono@std@@V?$duration@_JU?$ratio@$00$0DLJKMKAA@@std@@@23@@chrono@std@@AEBVTreeNode@BT@@W4NodeStatus@5@2@Z@std@@@std@@@?$_Uninitialized_backout_al@V?$allocator@V?$shared_ptr@V?$function@$$A6AXV?$time_point@Usteady_clock@chrono@std@@V?$duration@_JU?$ratio@$00$0DLJKMKAA@@std@@@23@@chrono@std@@AEBVTreeNode@BT@@W4NodeStatus@5@2@Z@std@@@std@@@std@@@std@@QEAAX$$QEAV?$shared_ptr@V?$function@$$A6AXV?$time_point@Usteady_clock@chrono@std@@V?$duration@_JU?$ratio@$00$0DLJKMKAA@@std@@@23@@chrono@std@@AEBVTreeNode@BT@@W4NodeStatus@5@2@Z@std@@@1@@Z
	??$_Emplace_back@V?$shared_ptr@VTreeNode@BT@@@std@@@?$_Uninitialized_backout_al@V?$allocator@V?$shared_ptr@VTreeNode@BT@@@std@@@std@@@std@@QEAAX$$QEAV?$shared_ptr@VTreeNode@BT@@@1@@Z
	??$_Emplace_back@V?$weak_ptr@V?$function@$$A6AXV?$time_point@Usteady_clock@chrono@std@@V?$duration@_JU?$ratio@$00$0DLJKMKAA@@std@@@23@@chrono@std@@AEBVTreeNode@BT@@W4NodeStatus@5@2@Z@std@@@std@@@?$_Uninitialized_backout_al@V?$allocator@V?$weak_ptr@V?$function@$$A6AXV?$time_point@Usteady_clock@chrono@std@@V?$duration@_JU?$ratio@$00$0DLJKMKAA@@std@@@23@@chrono@std@@AEBVTreeNode@BT@@W4NodeStatus@5@2@Z@std@@@std@@@std@@@std@@QEAAX$$QEAV?$weak_ptr@V?$function@$$A6AXV?$time_point@Usteady_clock@chrono@std@@V?$duration@_JU?$ratio@$00$0DLJKMKAA@@std@@@23@@chrono@std@@AEBVTreeNode@BT@@W4NodeStatus@5@2@Z@std@@@1@@Z
	??$_Emplace_back@W4op_t@ExprComparison@Ast@BT@@@?$_Uninitialized_backout_al@V?$allocator@W4op_t@ExprComparison@Ast@BT@@@std@@@std@@QEAAX$$QEAW4op_t@ExprComparison@Ast@BT@@@Z
	??$_Emplace_back_with_unused_capacity@AEAV?$shared_ptr@V?$function@$$A6AXV?$time_point@Usteady_clock@chrono@std@@V?$duration@_JU?$ratio@$00$0DLJKMKAA@@std@@@23@@chrono@std@@AEBVTreeNode@BT@@W4NodeStatus@5@2@Z@std@@@std@@@?$vector@V?$weak_ptr@V?$function@$$A6AXV?$time_point@Usteady_clock@chrono@std@@V?$duration@_JU?$ratio@$00$0DLJKMKAA@@std@@@23@@chrono@std@@AEBVTreeNode@BT@@W4NodeStatus@5@2@Z@std@@@std@@V?$allocator@V?$weak_ptr@V?$function@$$A6AXV?$time_point@Usteady_clock@chrono@std@@V?$duration@_JU?$ratio@$00$0DLJKMKAA@@std@@@23@@chrono@std@@AEBVTreeNode@BT@@W4NodeStatus@5@2@Z@std@@@std@@@2@@std@@AEAA?A_TAEAV?$shared_ptr@V?$function@$$A6AXV?$time_point@Usteady_clock@chrono@std@@V?$duration@_JU?$ratio@$00$0DLJKMKAA@@std@@@23@@chrono@std@@AEBVTreeNode@BT@@W4NodeStatus@5@2@Z@std@@@1@@Z
	??$_Emplace_back_with_unused_capacity@AEBQEAVTreeNode@BT@@@?$vector@PEAVTreeNode@BT@@V?$allocator@PEAVTreeNode@BT@@@std@@@std@@AEAA?A_TAEBQEAVTreeNode@BT@@@Z
	??$_Emplace_back_with_unused_capacity@AEBU?$Offset@UNodeModel@Serialization@@@flatbuffers@@@?$vector@U?$Offset@UNodeModel@Serialization@@@flatbuffers@@V?$allocator@U?$Offset@UNodeModel@Serialization@@@flatbuffers@@@std@@@std@@AEAA?A_TAEBU?$Offset@UNodeModel@Serialization@@@flatbuffers@@@Z
	??$_Emplace_back_with_unused_capacity@AEBU?$Offset@UPortModel@Serialization@@@flatbuffers@@@?$vector@U?$Offset@UPortModel@Serialization@@@flatbuffers@@V?$allocator@U?$Offset@UPortModel@Serialization@@@flatbuffers@@@std@@@std@@AEAA?A_TAEBU?$Offset@UPortModel@Serialization@@@flatbuffers@@@Z
	??$_Emplace_back_with_unused_capacity@AEBU?$Offset@UTreeNode@Serialization@@@flatbuffers@@@?$vector@U?$Offset@UTreeNode@Serialization@@@flatbuffers@@V?$allocator@U?$Offset@UTreeNode@Serialization@@@flatbuffers@@@std@@@std@@AEAA?A_TAEBU?$Offset@UTreeNode@Serialization@@@flatbuffers@@@Z
	??$_Emplace_back_with_unused_capacity@AEBV?$array@E$0M@@std@@@?$vector@V?$array@E$0M@@std@@V?$allocator@V?$array@E$0M@@std@@@2@@std@@AEAA?A_TAEBV?$array@E$0M@@1@@Z
	??$_Emplace_back_with_unused_capacity@AEBV?$basic_string@DU?$char_traits@D@std@@V?$allocator@D@2@@std@@@?$vector@V?$basic_string@DU?$char_traits@D@std@@V?$allocator@D@2@@std@@V?$allocator@V?$basic_string@DU?$char_traits@D@std@@V?$allocator@D@2@@std@@@2@@std@@AEAA?A_TAEBV?$basic_string@DU?$char_traits@D@std@@V?$allocator@D@2@@1@@Z
	??$_Emplace_back_with_unused_capacity@AEBV?$basic_string_view@DU?$char_traits@D@std@@@std@@@?$vector@V?$basic_string_view@DU?$char_traits@D@std@@@std@@V?$allocator@V?$basic_string_view@DU?$char_traits@D@std@@@std@@@2@@std@@AEAA?A_TAEBV?$basic_string_view@DU?$char_traits@D@std@@@1@@Z
	??$_Emplace_back_with_unused_capacity@AEBV?$shared_ptr@VTreeNode@BT@@@std@@@?$vector@V?$shared_ptr@VTreeNode@BT@@@std@@V?$allocator@V?$shared_ptr@VTreeNode@BT@@@std@@@2@@std@@AEAA?A_TAEBV?$shared_ptr@VTreeNode@BT@@@1@@Z
	??$_Emplace_back_with_unused_capacity@AEBW4op_t@ExprComparison@Ast@BT@@@?$vector@W4op_t@ExprComparison@Ast@BT@@V?$allocator@W4op_t@ExprComparison@Ast@BT@@@std@@@std@@AEAA?A_TAEBW4op_t@ExprComparison@Ast@BT@@@Z
	??$_Emplace_back_with_unused_capacity@G@?$vector@GV?$allocator@G@std@@@std@@AEAA?A_T$$QEAG@Z
	??$_Emplace_back_with_unused_capacity@H@?$vector@HV?$allocator@H@std@@@std@@AEAA?A_T$$QEAH@Z
	??$_Emplace_back_with_unused_capacity@N@?$vector@NV?$allocator@N@std@@@std@@AEAA?A_T$$QEAN@Z
	??$_Emplace_back_with_unused_capacity@U?$Offset@UPortConfig@Serialization@@@flatbuffers@@@?$vector@U?$Offset@UPortConfig@Serialization@@@flatbuffers@@V?$allocator@U?$Offset@UPortConfig@Serialization@@@flatbuffers@@@std@@@std@@AEAA?A_T$$QEAU?$Offset@UPortConfig@Serialization@@@flatbuffers@@@Z
	??$_Emplace_back_with_unused_capacity@U?$pair@GE@std@@@?$vector@U?$pair@GE@std@@V?$allocator@U?$pair@GE@std@@@2@@std@@AEAA?A_T$$QEAU?$pair@GE@1@@Z
	??$_Emplace_back_with_unused_capacity@UWorkItem@?$TimerQueue@Usteady_clock@chrono@std@@V?$duration@_JU?$ratio@$00$0DLJKMKAA@@std@@@23@@BT@@@?$vector@UWorkItem@?$TimerQueue@Usteady_clock@chrono@std@@V?$duration@_JU?$ratio@$00$0DLJKMKAA@@std@@@23@@BT@@V?$allocator@UWorkItem@?$TimerQueue@Usteady_clock@chrono@std@@V?$duration@_JU?$ratio@$00$0DLJKMKAA@@std@@@23@@BT@@@std@@@std@@AEAA?A_T$$QEAUWorkItem@?$TimerQueue@Usteady_clock@chrono@std@@V?$duration@_JU?$ratio@$00$0DLJKMKAA@@std@@@23@@BT@@@Z
	??$_Emplace_back_with_unused_capacity@V?$basic_string@DU?$char_traits@D@std@@V?$allocator@D@2@@std@@@?$vector@V?$basic_string@DU?$char_traits@D@std@@V?$allocator@D@2@@std@@V?$allocator@V?$basic_string@DU?$char_traits@D@std@@V?$allocator@D@2@@std@@@2@@std@@AEAA?A_T$$QEAV?$basic_string@DU?$char_traits@D@std@@V?$allocator@D@2@@1@@Z
	??$_Emplace_back_with_unused_capacity@V?$basic_string_view@DU?$char_traits@D@std@@@std@@@?$vector@V?$basic_string_view@DU?$char_traits@D@std@@@std@@V?$allocator@V?$basic_string_view@DU?$char_traits@D@std@@@std@@@2@@std@@AEAA?A_T$$QEAV?$basic_string_view@DU?$char_traits@D@std@@@1@@Z
	??$_Emplace_back_with_unused_capacity@V?$shared_ptr@UExprBase@Ast@BT@@@std@@@?$vector@V?$shared_ptr@UExprBase@Ast@BT@@@std@@V?$allocator@V?$shared_ptr@UExprBase@Ast@BT@@@std@@@2@@std@@AEAA?A_T$$QEAV?$shared_ptr@UExprBase@Ast@BT@@@1@@Z
	??$_Emplace_back_with_unused_capacity@V?$shared_ptr@USubtree@Tree@BT@@@std@@@?$vector@V?$shared_ptr@USubtree@Tree@BT@@@std@@V?$allocator@V?$shared_ptr@USubtree@Tree@BT@@@std@@@2@@std@@AEAA?A_T$$QEAV?$shared_ptr@USubtree@Tree@BT@@@1@@Z
	??$_Emplace_back_with_unused_capacity@V?$shared_ptr@V?$function@$$A6AXV?$time_point@Usteady_clock@chrono@std@@V?$duration@_JU?$ratio@$00$0DLJKMKAA@@std@@@23@@chrono@std@@AEBVTreeNode@BT@@W4NodeStatus@5@2@Z@std@@@std@@@?$vector@V?$shared_ptr@V?$function@$$A6AXV?$time_point@Usteady_clock@chrono@std@@V?$duration@_JU?$ratio@$00$0DLJKMKAA@@std@@@23@@chrono@std@@AEBVTreeNode@BT@@W4NodeStatus@5@2@Z@std@@@std@@V?$allocator@V?$shared_ptr@V?$function@$$A6AXV?$time_point@Usteady_clock@chrono@std@@V?$duration@_JU?$ratio@$00$0DLJKMKAA@@std@@@23@@chrono@std@@AEBVTreeNode@BT@@W4NodeStatus@5@2@Z@std@@@std@@@2@@std@@AEAA?A_T$$QEAV?$shared_ptr@V?$function@$$A6AXV?$time_point@Usteady_clock@chrono@std@@V?$duration@_JU?$ratio@$00$0DLJKMKAA@@std@@@23@@chrono@std@@AEBVTreeNode@BT@@W4NodeStatus@5@2@Z@std@@@1@@Z
	??$_Emplace_reallocate@AEAV?$shared_ptr@V?$function@$$A6AXV?$time_point@Usteady_clock@chrono@std@@V?$duration@_JU?$ratio@$00$0DLJKMKAA@@std@@@23@@chrono@std@@AEBVTreeNode@BT@@W4NodeStatus@5@2@Z@std@@@std@@@?$vector@V?$weak_ptr@V?$function@$$A6AXV?$time_point@Usteady_clock@chrono@std@@V?$duration@_JU?$ratio@$00$0DLJKMKAA@@std@@@23@@chrono@std@@AEBVTreeNode@BT@@W4NodeStatus@5@2@Z@std@@@std@@V?$allocator@V?$weak_ptr@V?$function@$$A6AXV?$time_point@Usteady_clock@chrono@std@@V?$duration@_JU?$ratio@$00$0DLJKMKAA@@std@@@23@@chrono@std@@AEBVTreeNode@BT@@W4NodeStatus@5@2@Z@std@@@std@@@2@@std@@QEAAPEAV?$weak_ptr@V?$function@$$A6AXV?$time_point@Usteady_clock@chrono@std@@V?$duration@_JU?$ratio@$00$0DLJKMKAA@@std@@@23@@chrono@std@@AEBVTreeNode@BT@@W4NodeStatus@5@2@Z@std@@@1@QEAV21@AEAV?$shared_ptr@V?$function@$$A6AXV?$time_point@Usteady_clock@chrono@std@@V?$duration@_JU?$ratio@$00$0DLJKMKAA@@std@@@23@@chrono@std@@AEBVTreeNode@BT@@W4NodeStatus@5@2@Z@std@@@1@@Z
	??$_Emplace_reallocate@AEBQEAVTreeNode@BT@@@?$vector@PEAVTreeNode@BT@@V?$allocator@PEAVTreeNode@BT@@@std@@@std@@QEAAPEAPEAVTreeNode@BT@@QEAPEAV23@AEBQEAV23@@Z
	??$_Emplace_reallocate@AEBU?$Offset@UNodeModel@Serialization@@@flatbuffers@@@?$vector@U?$Offset@UNodeModel@Serialization@@@flatbuffers@@V?$allocator@U?$Offset@UNodeModel@Serialization@@@flatbuffers@@@std@@@std@@QEAAPEAU?$Offset@UNodeModel@Serialization@@@flatbuffers@@QEAU23@AEBU23@@Z
	??$_Emplace_reallocate@AEBU?$Offset@UPortModel@Serialization@@@flatbuffers@@@?$vector@U?$Offset@UPortModel@Serialization@@@flatbuffers@@V?$allocator@U?$Offset@UPortModel@Serialization@@@flatbuffers@@@std@@@std@@QEAAPEAU?$Offset@UPortModel@Serialization@@@flatbuffers@@QEAU23@AEBU23@@Z
	??$_Emplace_reallocate@AEBU?$Offset@UTreeNode@Serialization@@@flatbuffers@@@?$vector@U?$Offset@UTreeNode@Serialization@@@flatbuffers@@V?$allocator@U?$Offset@UTreeNode@Serialization@@@flatbuffers@@@std@@@std@@QEAAPEAU?$Offset@UTreeNode@Serialization@@@flatbuffers@@QEAU23@AEBU23@@Z
	??$_Emplace_reallocate@AEBV?$array@E$0M@@std@@@?$vector@V?$array@E$0M@@std@@V?$allocator@V?$array@E$0M@@std@@@2@@std@@QEAAPEAV?$array@E$0M@@1@QEAV21@AEBV21@@Z
	??$_Emplace_reallocate@AEBV?$basic_string@DU?$char_traits@D@std@@V?$allocator@D@2@@std@@@?$vector@V?$basic_string@DU?$char_traits@D@std@@V?$allocator@D@2@@std@@V?$allocator@V?$basic_string@DU?$char_traits@D@std@@V?$allocator@D@2@@std@@@2@@std@@QEAAPEAV?$basic_string@DU?$char_traits@D@std@@V?$allocator@D@2@@1@QEAV21@AEBV21@@Z
	??$_Emplace_reallocate@AEBV?$basic_string_view@DU?$char_traits@D@std@@@std@@@?$vector@V?$basic_string_view@DU?$char_traits@D@std@@@std@@V?$allocator@V?$basic_string_view@DU?$char_traits@D@std@@@std@@@2@@std@@QEAAPEAV?$basic_string_view@DU?$char_traits@D@std@@@1@QEAV21@AEBV21@@Z
	??$_Emplace_reallocate@AEBV?$shared_ptr@VTreeNode@BT@@@std@@@?$vector@V?$shared_ptr@VTreeNode@BT@@@std@@V?$allocator@V?$shared_ptr@VTreeNode@BT@@@std@@@2@@std@@QEAAPEAV?$shared_ptr@VTreeNode@BT@@@1@QEAV21@AEBV21@@Z
	??$_Emplace_reallocate@AEBW4op_t@ExprComparison@Ast@BT@@@?$vector@W4op_t@ExprComparison@Ast@BT@@V?$allocator@W4op_t@ExprComparison@Ast@BT@@@std@@@std@@QEAAPEAW4op_t@ExprComparison@Ast@BT@@QEAW42345@AEBW42345@@Z
	??$_Emplace_reallocate@G@?$vector@GV?$allocator@G@std@@@std@@QEAAPEAGQEAG$$QEAG@Z
	??$_Emplace_reallocate@H@?$vector@HV?$allocator@H@std@@@std@@QEAAPEAHQEAH$$QEAH@Z
	??$_Emplace_reallocate@N@?$vector@NV?$allocator@N@std@@@std@@QEAAPEANQEAN$$QEAN@Z
	??$_Emplace_reallocate@U?$Offset@UPortConfig@Serialization@@@flatbuffers@@@?$vector@U?$Offset@UPortConfig@Serialization@@@flatbuffers@@V?$allocator@U?$Offset@UPortConfig@Serialization@@@flatbuffers@@@std@@@std@@QEAAPEAU?$Offset@UPortConfig@Serialization@@@flatbuffers@@QEAU23@$$QEAU23@@Z
	??$_Emplace_reallocate@U?$pair@GE@std@@@?$vector@U?$pair@GE@std@@V?$allocator@U?$pair@GE@std@@@2@@std@@QEAAPEAU?$pair@GE@1@QEAU21@$$QEAU21@@Z
	??$_Emplace_reallocate@UWorkItem@?$TimerQueue@Usteady_clock@chrono@std@@V?$duration@_JU?$ratio@$00$0DLJKMKAA@@std@@@23@@BT@@@?$vector@UWorkItem@?$TimerQueue@Usteady_clock@chrono@std@@V?$duration@_JU?$ratio@$00$0DLJKMKAA@@std@@@23@@BT@@V?$allocator@UWorkItem@?$TimerQueue@Usteady_clock@chrono@std@@V?$duration@_JU?$ratio@$00$0DLJKMKAA@@std@@@23@@BT@@@std@@@std@@QEAAPEAUWorkItem@?$TimerQueue@Usteady_clock@chrono@std@@V?$duration@_JU?$ratio@$00$0DLJKMKAA@@std@@@23@@BT@@QEAU234@$$QEAU234@@Z
	??$_Emplace_reallocate@V?$basic_string@DU?$char_traits@D@std@@V?$allocator@D@2@@std@@@?$vector@V?$basic_string@DU?$char_traits@D@std@@V?$allocator@D@2@@std@@V?$allocator@V?$basic_string@DU?$char_traits@D@std@@V?$allocator@D@2@@std@@@2@@std@@QEAAPEAV?$basic_string@DU?$char_traits@D@std@@V?$allocator@D@2@@1@QEAV21@$$QEAV21@@Z
	??$_Emplace_reallocate@V?$basic_string_view@DU?$char_traits@D@std@@@std@@@?$vector@V?$basic_string_view@DU?$char_traits@D@std@@@std@@V?$allocator@V?$basic_string_view@DU?$char_traits@D@std@@@std@@@2@@std@@QEAAPEAV?$basic_string_view@DU?$char_traits@D@std@@@1@QEAV21@$$QEAV21@@Z
	??$_Emplace_reallocate@V?$shared_ptr@UExprBase@Ast@BT@@@std@@@?$vector@V?$shared_ptr@UExprBase@Ast@BT@@@std@@V?$allocator@V?$shared_ptr@UExprBase@Ast@BT@@@std@@@2@@std@@QEAAPEAV?$shared_ptr@UExprBase@Ast@BT@@@1@QEAV21@$$QEAV21@@Z
	??$_Emplace_reallocate@V?$shared_ptr@USubtree@Tree@BT@@@std@@@?$vector@V?$shared_ptr@USubtree@Tree@BT@@@std@@V?$allocator@V?$shared_ptr@USubtree@Tree@BT@@@std@@@2@@std@@QEAAPEAV?$shared_ptr@USubtree@Tree@BT@@@1@QEAV21@$$QEAV21@@Z
	??$_Emplace_reallocate@V?$shared_ptr@V?$function@$$A6AXV?$time_point@Usteady_clock@chrono@std@@V?$duration@_JU?$ratio@$00$0DLJKMKAA@@std@@@23@@chrono@std@@AEBVTreeNode@BT@@W4NodeStatus@5@2@Z@std@@@std@@@?$vector@V?$shared_ptr@V?$function@$$A6AXV?$time_point@Usteady_clock@chrono@std@@V?$duration@_JU?$ratio@$00$0DLJKMKAA@@std@@@23@@chrono@std@@AEBVTreeNode@BT@@W4NodeStatus@5@2@Z@std@@@std@@V?$allocator@V?$shared_ptr@V?$function@$$A6AXV?$time_point@Usteady_clock@chrono@std@@V?$duration@_JU?$ratio@$00$0DLJKMKAA@@std@@@23@@chrono@std@@AEBVTreeNode@BT@@W4NodeStatus@5@2@Z@std@@@std@@@2@@std@@QEAAPEAV?$shared_ptr@V?$function@$$A6AXV?$time_point@Usteady_clock@chrono@std@@V?$duration@_JU?$ratio@$00$0DLJKMKAA@@std@@@23@@chrono@std@@AEBVTreeNode@BT@@W4NodeStatus@5@2@Z@std@@@1@QEAV21@$$QEAV21@@Z
	??$_Erase_head@V?$allocator@U?$_Tree_node@U?$Offset@UString@flatbuffers@@@flatbuffers@@PEAX@std@@@std@@@?$_Tree_val@U?$_Tree_simple_types@U?$Offset@UString@flatbuffers@@@flatbuffers@@@std@@@std@@QEAAXAEAV?$allocator@U?$_Tree_node@U?$Offset@UString@flatbuffers@@@flatbuffers@@PEAX@std@@@1@@Z
	??$_Erase_head@V?$allocator@U?$_Tree_node@U?$pair@$$CBV?$basic_string@DU?$char_traits@D@std@@V?$allocator@D@2@@std@@PEBVXMLElement@tinyxml2@@@std@@PEAX@std@@@std@@@?$_Tree_val@U?$_Tree_simple_types@U?$pair@$$CBV?$basic_string@DU?$char_traits@D@std@@V?$allocator@D@2@@std@@PEBVXMLElement@tinyxml2@@@std@@@std@@@std@@QEAAXAEAV?$allocator@U?$_Tree_node@U?$pair@$$CBV?$basic_string@DU?$char_traits@D@std@@V?$allocator@D@2@@std@@PEBVXMLElement@tinyxml2@@@std@@PEAX@std@@@1@@Z
	??$_Erase_head@V?$allocator@U?$_Tree_node@U?$pair@$$CBW4PostCond@BT@@V?$basic_string@DU?$char_traits@D@std@@V?$allocator@D@2@@std@@@std@@PEAX@std@@@std@@@?$_Tree_val@U?$_Tree_simple_types@U?$pair@$$CBW4PostCond@BT@@V?$basic_string@DU?$char_traits@D@std@@V?$allocator@D@2@@std@@@std@@@std@@@std@@QEAAXAEAV?$allocator@U?$_Tree_node@U?$pair@$$CBW4PostCond@BT@@V?$basic_string@DU?$char_traits@D@std@@V?$allocator@D@2@@std@@@std@@PEAX@std@@@1@@Z
	??$_Erase_head@V?$allocator@U?$_Tree_node@U?$pair@$$CBW4PreCond@BT@@V?$basic_string@DU?$char_traits@D@std@@V?$allocator@D@2@@std@@@std@@PEAX@std@@@std@@@?$_Tree_val@U?$_Tree_simple_types@U?$pair@$$CBW4PreCond@BT@@V?$basic_string@DU?$char_traits@D@std@@V?$allocator@D@2@@std@@@std@@@std@@@std@@QEAAXAEAV?$allocator@U?$_Tree_node@U?$pair@$$CBW4PreCond@BT@@V?$basic_string@DU?$char_traits@D@std@@V?$allocator@D@2@@std@@@std@@PEAX@std@@@1@@Z
	??$_Erase_head@V?$allocator@U?$_Tree_node@V?$basic_string@DU?$char_traits@D@std@@V?$allocator@D@2@@std@@PEAX@std@@@std@@@?$_Tree_val@U?$_Tree_simple_types@V?$basic_string@DU?$char_traits@D@std@@V?$allocator@D@2@@std@@@std@@@std@@QEAAXAEAV?$allocator@U?$_Tree_node@V?$basic_string@DU?$char_traits@D@std@@V?$allocator@D@2@@std@@PEAX@std@@@1@@Z
	??$_Erase_head@V?$allocator@U?$_Tree_node@V?$basic_string_view@DU?$char_traits@D@std@@@std@@PEAX@std@@@std@@@?$_Tree_val@U?$_Tree_simple_types@V?$basic_string_view@DU?$char_traits@D@std@@@std@@@std@@@std@@QEAAXAEAV?$allocator@U?$_Tree_node@V?$basic_string_view@DU?$char_traits@D@std@@@std@@PEAX@std@@@1@@Z
	??$_Erase_head@V?$allocator@U?$_Tree_node@_KPEAX@std@@@std@@@?$_Tree_val@U?$_Tree_simple_types@_K@std@@@std@@QEAAXAEAV?$allocator@U?$_Tree_node@_KPEAX@std@@@1@@Z
	??$_Erase_tree@V?$allocator@U?$_Tree_node@U?$Offset@UString@flatbuffers@@@flatbuffers@@PEAX@std@@@std@@@?$_Tree_val@U?$_Tree_simple_types@U?$Offset@UString@flatbuffers@@@flatbuffers@@@std@@@std@@QEAAXAEAV?$allocator@U?$_Tree_node@U?$Offset@UString@flatbuffers@@@flatbuffers@@PEAX@std@@@1@PEAU?$_Tree_node@U?$Offset@UString@flatbuffers@@@flatbuffers@@PEAX@1@@Z
	??$_Erase_tree@V?$allocator@U?$_Tree_node@U?$pair@$$CBV?$basic_string@DU?$char_traits@D@std@@V?$allocator@D@2@@std@@PEBVXMLElement@tinyxml2@@@std@@PEAX@std@@@std@@@?$_Tree_val@U?$_Tree_simple_types@U?$pair@$$CBV?$basic_string@DU?$char_traits@D@std@@V?$allocator@D@2@@std@@PEBVXMLElement@tinyxml2@@@std@@@std@@@std@@QEAAXAEAV?$allocator@U?$_Tree_node@U?$pair@$$CBV?$basic_string@DU?$char_traits@D@std@@V?$allocator@D@2@@std@@PEBVXMLElement@tinyxml2@@@std@@PEAX@std@@@1@PEAU?$_Tree_node@U?$pair@$$CBV?$basic_string@DU?$char_traits@D@std@@V?$allocator@D@2@@std@@PEBVXMLElement@tinyxml2@@@std@@PEAX@1@@Z
	??$_Erase_tree@V?$allocator@U?$_Tree_node@U?$pair@$$CBW4PostCond@BT@@V?$basic_string@DU?$char_traits@D@std@@V?$allocator@D@2@@std@@@std@@PEAX@std@@@std@@@?$_Tree_val@U?$_Tree_simple_types@U?$pair@$$CBW4PostCond@BT@@V?$basic_string@DU?$char_traits@D@std@@V?$allocator@D@2@@std@@@std@@@std@@@std@@QEAAXAEAV?$allocator@U?$_Tree_node@U?$pair@$$CBW4PostCond@BT@@V?$basic_string@DU?$char_traits@D@std@@V?$allocator@D@2@@std@@@std@@PEAX@std@@@1@PEAU?$_Tree_node@U?$pair@$$CBW4PostCond@BT@@V?$basic_string@DU?$char_traits@D@std@@V?$allocator@D@2@@std@@@std@@PEAX@1@@Z
	??$_Erase_tree@V?$allocator@U?$_Tree_node@U?$pair@$$CBW4PreCond@BT@@V?$basic_string@DU?$char_traits@D@std@@V?$allocator@D@2@@std@@@std@@PEAX@std@@@std@@@?$_Tree_val@U?$_Tree_simple_types@U?$pair@$$CBW4PreCond@BT@@V?$basic_string@DU?$char_traits@D@std@@V?$allocator@D@2@@std@@@std@@@std@@@std@@QEAAXAEAV?$allocator@U?$_Tree_node@U?$pair@$$CBW4PreCond@BT@@V?$basic_string@DU?$char_traits@D@std@@V?$allocator@D@2@@std@@@std@@PEAX@std@@@1@PEAU?$_Tree_node@U?$pair@$$CBW4PreCond@BT@@V?$basic_string@DU?$char_traits@D@std@@V?$allocator@D@2@@std@@@std@@PEAX@1@@Z
	??$_Erase_tree@V?$allocator@U?$_Tree_node@V?$basic_string@DU?$char_traits@D@std@@V?$allocator@D@2@@std@@PEAX@std@@@std@@@?$_Tree_val@U?$_Tree_simple_types@V?$basic_string@DU?$char_traits@D@std@@V?$allocator@D@2@@std@@@std@@@std@@QEAAXAEAV?$allocator@U?$_Tree_node@V?$basic_string@DU?$char_traits@D@std@@V?$allocator@D@2@@std@@PEAX@std@@@1@PEAU?$_Tree_node@V?$basic_string@DU?$char_traits@D@std@@V?$allocator@D@2@@std@@PEAX@1@@Z
	??$_Erase_tree@V?$allocator@U?$_Tree_node@V?$basic_string_view@DU?$char_traits@D@std@@@std@@PEAX@std@@@std@@@?$_Tree_val@U?$_Tree_simple_types@V?$basic_string_view@DU?$char_traits@D@std@@@std@@@std@@@std@@QEAAXAEAV?$allocator@U?$_Tree_node@V?$basic_string_view@DU?$char_traits@D@std@@@std@@PEAX@std@@@1@PEAU?$_Tree_node@V?$basic_string_view@DU?$char_traits@D@std@@@std@@PEAX@1@@Z
	??$_Erase_tree@V?$allocator@U?$_Tree_node@_KPEAX@std@@@std@@@?$_Tree_val@U?$_Tree_simple_types@_K@std@@@std@@QEAAXAEAV?$allocator@U?$_Tree_node@_KPEAX@std@@@1@PEAU?$_Tree_node@_KPEAX@1@@Z
	??$_Erase_tree_and_orphan@V?$allocator@U?$_Tree_node@U?$pair@$$CBW4PostCond@BT@@V?$basic_string@DU?$char_traits@D@std@@V?$allocator@D@2@@std@@@std@@PEAX@std@@@std@@@?$_Tree_val@U?$_Tree_simple_types@U?$pair@$$CBW4PostCond@BT@@V?$basic_string@DU?$char_traits@D@std@@V?$allocator@D@2@@std@@@std@@@std@@@std@@QEAAXAEAV?$allocator@U?$_Tree_node@U?$pair@$$CBW4PostCond@BT@@V?$basic_string@DU?$char_traits@D@std@@V?$allocator@D@2@@std@@@std@@PEAX@std@@@1@PEAU?$_Tree_node@U?$pair@$$CBW4PostCond@BT@@V?$basic_string@DU?$char_traits@D@std@@V?$allocator@D@2@@std@@@std@@PEAX@1@@Z
	??$_Erase_tree_and_orphan@V?$allocator@U?$_Tree_node@U?$pair@$$CBW4PreCond@BT@@V?$basic_string@DU?$char_traits@D@std@@V?$allocator@D@2@@std@@@std@@PEAX@std@@@std@@@?$_Tree_val@U?$_Tree_simple_types@U?$pair@$$CBW4PreCond@BT@@V?$basic_string@DU?$char_traits@D@std@@V?$allocator@D@2@@std@@@std@@@std@@@std@@QEAAXAEAV?$allocator@U?$_Tree_node@U?$pair@$$CBW4PreCond@BT@@V?$basic_string@DU?$char_traits@D@std@@V?$allocator@D@2@@std@@@std@@PEAX@std@@@1@PEAU?$_Tree_node@U?$pair@$$CBW4PreCond@BT@@V?$basic_string@DU?$char_traits@D@std@@V?$allocator@D@2@@std@@@std@@PEAX@1@@Z
	??$_Fgetc@D@std@@YA_NAEADPEAU_iobuf@@@Z
	??$_Find@V?$basic_string@DU?$char_traits@D@std@@V?$allocator@D@2@@std@@@?$_Hash@V?$_Umap_traits@V?$basic_string@DU?$char_traits@D@std@@V?$allocator@D@2@@std@@HV?$_Uhash_compare@V?$basic_string@DU?$char_traits@D@std@@V?$allocator@D@2@@std@@U?$hash@V?$basic_string@DU?$char_traits@D@std@@V?$allocator@D@2@@std@@@2@U?$equal_to@V?$basic_string@DU?$char_traits@D@std@@V?$allocator@D@2@@std@@@2@@2@V?$allocator@U?$pair@$$CBV?$basic_string@DU?$char_traits@D@std@@V?$allocator@D@2@@std@@H@std@@@2@$0A@@std@@@std@@AEBAPEAU?$_List_node@U?$pair@$$CBV?$basic_string@DU?$char_traits@D@std@@V?$allocator@D@2@@std@@H@std@@PEAX@1@AEBV?$basic_string@DU?$char_traits@D@std@@V?$allocator@D@2@@1@_K@Z
	??$_Find@V?$basic_string@DU?$char_traits@D@std@@V?$allocator@D@2@@std@@@?$_Hash@V?$_Umap_traits@V?$basic_string@DU?$char_traits@D@std@@V?$allocator@D@2@@std@@UEntry@Blackboard@BT@@V?$_Uhash_compare@V?$basic_string@DU?$char_traits@D@std@@V?$allocator@D@2@@std@@U?$hash@V?$basic_string@DU?$char_traits@D@std@@V?$allocator@D@2@@std@@@2@U?$equal_to@V?$basic_string@DU?$char_traits@D@std@@V?$allocator@D@2@@std@@@2@@2@V?$allocator@U?$pair@$$CBV?$basic_string@DU?$char_traits@D@std@@V?$allocator@D@2@@std@@UEntry@Blackboard@BT@@@std@@@2@$0A@@std@@@std@@AEBAPEAU?$_List_node@U?$pair@$$CBV?$basic_string@DU?$char_traits@D@std@@V?$allocator@D@2@@std@@UEntry@Blackboard@BT@@@std@@PEAX@1@AEBV?$basic_string@DU?$char_traits@D@std@@V?$allocator@D@2@@1@_K@Z
	??$_Find@V?$basic_string@DU?$char_traits@D@std@@V?$allocator@D@2@@std@@@?$_Hash@V?$_Umap_traits@V?$basic_string@DU?$char_traits@D@std@@V?$allocator@D@2@@std@@UTreeNodeManifest@BT@@V?$_Uhash_compare@V?$basic_string@DU?$char_traits@D@std@@V?$allocator@D@2@@std@@U?$hash@V?$basic_string@DU?$char_traits@D@std@@V?$allocator@D@2@@std@@@2@U?$equal_to@V?$basic_string@DU?$char_traits@D@std@@V?$allocator@D@2@@std@@@2@@2@V?$allocator@U?$pair@$$CBV?$basic_string@DU?$char_traits@D@std@@V?$allocator@D@2@@std@@UTreeNodeManifest@BT@@@std@@@2@$0A@@std@@@std@@AEBAPEAU?$_List_node@U?$pair@$$CBV?$basic_string@DU?$char_traits@D@std@@V?$allocator@D@2@@std@@UTreeNodeManifest@BT@@@std@@PEAX@1@AEBV?$basic_string@DU?$char_traits@D@std@@V?$allocator@D@2@@1@_K@Z
	??$_Find@V?$basic_string@DU?$char_traits@D@std@@V?$allocator@D@2@@std@@@?$_Hash@V?$_Umap_traits@V?$basic_string@DU?$char_traits@D@std@@V?$allocator@D@2@@std@@V12@V?$_Uhash_compare@V?$basic_string@DU?$char_traits@D@std@@V?$allocator@D@2@@std@@U?$hash@V?$basic_string@DU?$char_traits@D@std@@V?$allocator@D@2@@std@@@2@U?$equal_to@V?$basic_string@DU?$char_traits@D@std@@V?$allocator@D@2@@std@@@2@@2@V?$allocator@U?$pair@$$CBV?$basic_string@DU?$char_traits@D@std@@V?$allocator@D@2@@std@@V12@@std@@@2@$0A@@std@@@std@@AEBAPEAU?$_List_node@U?$pair@$$CBV?$basic_string@DU?$char_traits@D@std@@V?$allocator@D@2@@std@@V12@@std@@PEAX@1@AEBV?$basic_string@DU?$char_traits@D@std@@V?$allocator@D@2@@1@_K@Z
