EXPORTS 
	?$TSS0@?1??RegisterNodes@DummyNodes@@YAXAEAVBehaviorTreeFactory@BT@@@Z@4HA 	 DATA
	??_R0?AUAnyTypeAllowed@PortInfo@BT@@@8 	 DATA
	??_R0?AV<lambda_57296cd0c6c71135b50e4592291d978e>@@@8 	 DATA
	??_R0?AV<lambda_a95bbca0faf915955c95630ee1c00895>@@@8 	 DATA
	??_R0?AV<lambda_b01c296c30d9c3eb21471946df8728d5>@@@8 	 DATA
	??_R0?AV?$_Binder@U_Unforced@std@@A6A?AW4NodeStatus@BT@@XZ$$V@std@@@8 	 DATA
	??_R0?AV?$_Binder@U_Unforced@std@@P8GripperInterface@DummyNodes@@EAA?AW4NodeStatus@BT@@XZPEAV34@@std@@@8 	 DATA
	??_R0?AV?$_Func_base@V?$unique_ptr@VTreeNode@BT@@U?$default_delete@VTreeNode@BT@@@std@@@std@@AEBV?$basic_string@DU?$char_traits@D@std@@V?$allocator@D@2@@2@AEBUNodeConfig@BT@@@std@@@8 	 DATA
	??_R0?AV?$_Func_base@VAny@BT@@V?$basic_string_view@DU?$char_traits@D@std@@@std@@@std@@@8 	 DATA
	??_R0?AV?$_Func_base@W4NodeStatus@BT@@AEAVTreeNode@2@@std@@@8 	 DATA
	??_R0?AV?$_Func_impl_no_alloc@V<lambda_57296cd0c6c71135b50e4592291d978e>@@VAny@BT@@V?$basic_string_view@DU?$char_traits@D@std@@@std@@@std@@@8 	 DATA
	??_R0?AV?$_Func_impl_no_alloc@V<lambda_a95bbca0faf915955c95630ee1c00895>@@V?$unique_ptr@VTreeNode@BT@@U?$default_delete@VTreeNode@BT@@@std@@@std@@AEBV?$basic_string@DU?$char_traits@D@std@@V?$allocator@D@2@@3@AEBUNodeConfig@BT@@@std@@@8 	 DATA
	??_R0?AV?$_Func_impl_no_alloc@V<lambda_b01c296c30d9c3eb21471946df8728d5>@@V?$unique_ptr@VTreeNode@BT@@U?$default_delete@VTreeNode@BT@@@std@@@std@@AEBV?$basic_string@DU?$char_traits@D@std@@V?$allocator@D@2@@3@AEBUNodeConfig@BT@@@std@@@8 	 DATA
	??_R0?AV?$_Func_impl_no_alloc@V?$_Binder@U_Unforced@std@@A6A?AW4NodeStatus@BT@@XZ$$V@std@@W4NodeStatus@BT@@AEAVTreeNode@4@@std@@@8 	 DATA
	??_R0?AV?$_Func_impl_no_alloc@V?$_Binder@U_Unforced@std@@P8GripperInterface@DummyNodes@@EAA?AW4NodeStatus@BT@@XZPEAV34@@std@@W4NodeStatus@BT@@AEAVTreeNode@4@@std@@@8 	 DATA
	??_R0?AV?$bad_expected_access@V?$basic_string@DU?$char_traits@D@std@@V?$allocator@D@2@@std@@@expected_lite@nonstd@@@8 	 DATA
	??_R0?AV?$bad_expected_access@X@expected_lite@nonstd@@@8 	 DATA
	??_R0?AV?$basic_string@DU?$char_traits@D@std@@V?$allocator@D@2@@std@@@8 	 DATA
	??_R0?AVActionNodeBase@BT@@@8 	 DATA
	??_R0?AVApproachObject@DummyNodes@@@8 	 DATA
	??_R0?AVBehaviorTreeException@BT@@@8 	 DATA
	??_R0?AVLeafNode@BT@@@8 	 DATA
	??_R0?AVRuntimeError@BT@@@8 	 DATA
	??_R0?AVSaySomething@DummyNodes@@@8 	 DATA
	??_R0?AVSimpleString@SafeAny@@@8 	 DATA
	??_R0?AVSyncActionNode@BT@@@8 	 DATA
	??_R0?AVTreeNode@BT@@@8 	 DATA
	??_R0?AVbad_alloc@std@@@8 	 DATA
	??_R0?AVbad_any_cast@linb@@@8 	 DATA
	??_R0?AVbad_array_new_length@std@@@8 	 DATA
	??_R0?AVbad_cast@std@@@8 	 DATA
	??_R0?AVexception@std@@@8 	 DATA
	??_R0?AVruntime_error@std@@@8 	 DATA
	??_R0N@8 	 DATA
	??_R0X@8 	 DATA
	??_R0_J@8 	 DATA
	??_R0_K@8 	 DATA
	?_OptionsStorage@?1??__local_stdio_printf_options@@9@4_KA 	 DATA
	?grip_singleton@?1??RegisterNodes@DummyNodes@@YAXAEAVBehaviorTreeFactory@BT@@@Z@4VGripperInterface@2@A 	 DATA
	?table@?1???$vtable_for_type@VSimpleString@SafeAny@@@any@linb@@CAPEAUvtable_type@12@XZ@4U312@A 	 DATA
	_Avx2WmemEnabledWeakValue 	 DATA
	??$?0$$BY0CD@DV?$basic_string@DU?$char_traits@D@std@@V?$allocator@D@2@@std@@@BehaviorTreeException@BT@@QEAA@AEAY0CD@$$CBDAEBV?$basic_string@DU?$char_traits@D@std@@V?$allocator@D@2@@std@@@Z
	??$?0$$BY0CD@DV?$basic_string@DU?$char_traits@D@std@@V?$allocator@D@2@@std@@@RuntimeError@BT@@QEAA@AEAY0CD@$$CBDAEBV?$basic_string@DU?$char_traits@D@std@@V?$allocator@D@2@@std@@@Z
	??$?0$$BY0HD@D@BehaviorTreeException@BT@@QEAA@AEAY0HD@$$CBD@Z
	??$?0$$BY0HD@D@RuntimeError@BT@@QEAA@AEAY0HD@$$CBD@Z
	??$?0$$V@?$_Compressed_pair@V?$allocator@D@std@@V?$_String_val@U?$_Simple_types@D@std@@@2@$00@std@@QEAA@U_Zero_then_variadic_args_t@1@@Z
	??$?0$$V@?$_Compressed_pair@V?$allocator@U?$_Tree_node@U?$pair@$$CBW4PostCond@BT@@V?$basic_string@DU?$char_traits@D@std@@V?$allocator@D@2@@std@@@std@@PEAX@std@@@std@@V?$_Tree_val@U?$_Tree_simple_types@U?$pair@$$CBW4PostCond@BT@@V?$basic_string@DU?$char_traits@D@std@@V?$allocator@D@2@@std@@@std@@@std@@@2@$00@std@@QEAA@U_Zero_then_variadic_args_t@1@@Z
	??$?0$$V@?$_Compressed_pair@V?$allocator@U?$_Tree_node@U?$pair@$$CBW4PreCond@BT@@V?$basic_string@DU?$char_traits@D@std@@V?$allocator@D@2@@std@@@std@@PEAX@std@@@std@@V?$_Tree_val@U?$_Tree_simple_types@U?$pair@$$CBW4PreCond@BT@@V?$basic_string@DU?$char_traits@D@std@@V?$allocator@D@2@@std@@@std@@@std@@@2@$00@std@@QEAA@U_Zero_then_variadic_args_t@1@@Z
	??$?0$00$0A@@?$expected@Umonostate@std@@V?$basic_string@DU?$char_traits@D@std@@V?$allocator@D@2@@2@@expected_lite@nonstd@@QEAA@XZ
	??$?0A6A?AW4NodeStatus@BT@@XZ$$V@?$_Compressed_pair@P6A?AW4NodeStatus@BT@@XZV?$tuple@$$V@std@@$0A@@std@@QEAA@U_One_then_variadic_args_t@1@A6A?AW4NodeStatus@BT@@XZ@Z
	??$?0AEAPEAVApproachObject@DummyNodes@@@?$_Compressed_pair@U?$default_delete@VApproachObject@DummyNodes@@@std@@PEAVApproachObject@DummyNodes@@$00@std@@QEAA@U_Zero_then_variadic_args_t@1@AEAPEAVApproachObject@DummyNodes@@@Z
	??$?0AEAPEAVSaySomething@DummyNodes@@@?$_Compressed_pair@U?$default_delete@VSaySomething@DummyNodes@@@std@@PEAVSaySomething@DummyNodes@@$00@std@@QEAA@U_Zero_then_variadic_args_t@1@AEAPEAVSaySomething@DummyNodes@@@Z
	??$?0AEAV?$basic_string@DU?$char_traits@D@std@@V?$allocator@D@2@@std@@$0A@@?$expected@V?$basic_string@DU?$char_traits@D@std@@V?$allocator@D@2@@std@@V12@@expected_lite@nonstd@@QEAA@AEAV?$basic_string@DU?$char_traits@D@std@@V?$allocator@D@2@@std@@@Z
	??$?0AEAV?$basic_string@DU?$char_traits@D@std@@V?$allocator@D@2@@std@@$0A@@?$unexpected_type@V?$basic_string@DU?$char_traits@D@std@@V?$allocator@D@2@@std@@@expected_lite@nonstd@@QEAA@AEAV?$basic_string@DU?$char_traits@D@std@@V?$allocator@D@2@@std@@@Z
	??$?0AEAV?$basic_string@DU?$char_traits@D@std@@V?$allocator@D@2@@std@@VPortInfo@BT@@$0A@@?$pair@V?$basic_string@DU?$char_traits@D@std@@V?$allocator@D@2@@std@@VPortInfo@BT@@@std@@QEAA@AEAV?$basic_string@DU?$char_traits@D@std@@V?$allocator@D@2@@1@$$QEAVPortInfo@BT@@@Z
	??$?0AEAVTreeNode@BT@@$0A@@?$tuple@AEAVTreeNode@BT@@@std@@QEAA@AEAVTreeNode@BT@@@Z
	??$?0AEAVTreeNode@BT@@@?$_Tuple_val@AEAVTreeNode@BT@@@std@@QEAA@AEAVTreeNode@BT@@@Z
	??$?0AEAY0DD@$$CBD$0A@@?$unexpected_type@PEBD@expected_lite@nonstd@@QEAA@AEAY0DD@$$CBD@Z
	??$?0AEBU?$less@W4PostCond@BT@@@std@@U_Zero_then_variadic_args_t@1@@?$_Compressed_pair@U?$less@W4PostCond@BT@@@std@@V?$_Compressed_pair@V?$allocator@U?$_Tree_node@U?$pair@$$CBW4PostCond@BT@@V?$basic_string@DU?$char_traits@D@std@@V?$allocator@D@2@@std@@@std@@PEAX@std@@@std@@V?$_Tree_val@U?$_Tree_simple_types@U?$pair@$$CBW4PostCond@BT@@V?$basic_string@DU?$char_traits@D@std@@V?$allocator@D@2@@std@@@std@@@std@@@2@$00@2@$00@std@@QEAA@U_One_then_variadic_args_t@1@AEBU?$less@W4PostCond@BT@@@1@$$QEAU_Zero_then_variadic_args_t@1@@Z
	??$?0AEBU?$less@W4PreCond@BT@@@std@@U_Zero_then_variadic_args_t@1@@?$_Compressed_pair@U?$less@W4PreCond@BT@@@std@@V?$_Compressed_pair@V?$allocator@U?$_Tree_node@U?$pair@$$CBW4PreCond@BT@@V?$basic_string@DU?$char_traits@D@std@@V?$allocator@D@2@@std@@@std@@PEAX@std@@@std@@V?$_Tree_val@U?$_Tree_simple_types@U?$pair@$$CBW4PreCond@BT@@V?$basic_string@DU?$char_traits@D@std@@V?$allocator@D@2@@std@@@std@@@std@@@2@$00@2@$00@std@@QEAA@U_One_then_variadic_args_t@1@AEBU?$less@W4PreCond@BT@@@1@$$QEAU_Zero_then_variadic_args_t@1@@Z
	??$?0AEBU?$pair@$$CBV?$basic_string@DU?$char_traits@D@std@@V?$allocator@D@2@@std@@VPortInfo@BT@@@std@@@?$_List_node_emplace_op2@V?$allocator@U?$_List_node@U?$pair@$$CBV?$basic_string@DU?$char_traits@D@std@@V?$allocator@D@2@@std@@VPortInfo@BT@@@std@@PEAX@std@@@std@@@std@@QEAA@AEAV?$allocator@U?$_List_node@U?$pair@$$CBV?$basic_string@DU?$char_traits@D@std@@V?$allocator@D@2@@std@@VPortInfo@BT@@@std@@PEAX@std@@@1@AEBU?$pair@$$CBV?$basic_string@DU?$char_traits@D@std@@V?$allocator@D@2@@std@@VPortInfo@BT@@@1@@Z
	??$?0AEBV<lambda_57296cd0c6c71135b50e4592291d978e>@@$0A@@?$_Func_impl_no_alloc@V<lambda_57296cd0c6c71135b50e4592291d978e>@@VAny@BT@@V?$basic_string_view@DU?$char_traits@D@std@@@std@@@std@@QEAA@AEBV<lambda_57296cd0c6c71135b50e4592291d978e>@@@Z
	??$?0AEBV<lambda_a95bbca0faf915955c95630ee1c00895>@@$0A@@?$_Func_impl_no_alloc@V<lambda_a95bbca0faf915955c95630ee1c00895>@@V?$unique_ptr@VTreeNode@BT@@U?$default_delete@VTreeNode@BT@@@std@@@std@@AEBV?$basic_string@DU?$char_traits@D@std@@V?$allocator@D@2@@3@AEBUNodeConfig@BT@@@std@@QEAA@AEBV<lambda_a95bbca0faf915955c95630ee1c00895>@@@Z
	??$?0AEBV<lambda_b01c296c30d9c3eb21471946df8728d5>@@$0A@@?$_Func_impl_no_alloc@V<lambda_b01c296c30d9c3eb21471946df8728d5>@@V?$unique_ptr@VTreeNode@BT@@U?$default_delete@VTreeNode@BT@@@std@@@std@@AEBV?$basic_string@DU?$char_traits@D@std@@V?$allocator@D@2@@3@AEBUNodeConfig@BT@@@std@@QEAA@AEBV<lambda_b01c296c30d9c3eb21471946df8728d5>@@@Z
	??$?0AEBV?$_Binder@U_Unforced@std@@A6A?AW4NodeStatus@BT@@XZ$$V@std@@$0A@@?$_Func_impl_no_alloc@V?$_Binder@U_Unforced@std@@A6A?AW4NodeStatus@BT@@XZ$$V@std@@W4NodeStatus@BT@@AEAVTreeNode@4@@std@@QEAA@AEBV?$_Binder@U_Unforced@std@@A6A?AW4NodeStatus@BT@@XZ$$V@1@@Z
	??$?0AEBV?$_Binder@U_Unforced@std@@P8GripperInterface@DummyNodes@@EAA?AW4NodeStatus@BT@@XZPEAV34@@std@@$0A@@?$_Func_impl_no_alloc@V?$_Binder@U_Unforced@std@@P8GripperInterface@DummyNodes@@EAA?AW4NodeStatus@BT@@XZPEAV34@@std@@W4NodeStatus@BT@@AEAVTreeNode@4@@std@@QEAA@AEBV?$_Binder@U_Unforced@std@@P8GripperInterface@DummyNodes@@EAA?AW4NodeStatus@BT@@XZPEAV34@@1@@Z
	??$?0AEBV?$allocator@D@std@@$$V@?$_Compressed_pair@V?$allocator@D@std@@V?$_String_val@U?$_Simple_types@D@std@@@2@$00@std@@QEAA@U_One_then_variadic_args_t@1@AEBV?$allocator@D@1@@Z
	??$?0AEBV?$allocator@U?$_List_node@U?$pair@$$CBV?$basic_string@DU?$char_traits@D@std@@V?$allocator@D@2@@std@@VPortInfo@BT@@@std@@PEAX@std@@@std@@$$V@?$_Compressed_pair@V?$allocator@V?$_List_unchecked_iterator@V?$_List_val@U?$_List_simple_types@U?$pair@$$CBV?$basic_string@DU?$char_traits@D@std@@V?$allocator@D@2@@std@@VPortInfo@BT@@@std@@@std@@@std@@@std@@@std@@V?$_Vector_val@U?$_Simple_types@V?$_List_unchecked_iterator@V?$_List_val@U?$_List_simple_types@U?$pair@$$CBV?$basic_string@DU?$char_traits@D@std@@V?$allocator@D@2@@std@@VPortInfo@BT@@@std@@@std@@@std@@@std@@@std@@@2@$00@std@@QEAA@U_One_then_variadic_args_t@1@AEBV?$allocator@U?$_List_node@U?$pair@$$CBV?$basic_string@DU?$char_traits@D@std@@V?$allocator@D@2@@std@@VPortInfo@BT@@@std@@PEAX@std@@@1@@Z
	??$?0AEBV?$allocator@U?$_List_node@U?$pair@$$CBV?$basic_string@DU?$char_traits@D@std@@V?$allocator@D@2@@std@@VPortInfo@BT@@@std@@PEAX@std@@@std@@$0A@@?$_Hash_vec@V?$allocator@V?$_List_unchecked_iterator@V?$_List_val@U?$_List_simple_types@U?$pair@$$CBV?$basic_string@DU?$char_traits@D@std@@V?$allocator@D@2@@std@@VPortInfo@BT@@@std@@@std@@@std@@@std@@@std@@@std@@QEAA@AEBV?$allocator@U?$_List_node@U?$pair@$$CBV?$basic_string@DU?$char_traits@D@std@@V?$allocator@D@2@@std@@VPortInfo@BT@@@std@@PEAX@std@@@1@@Z
	??$?0AEBV?$allocator@U?$pair@$$CBV?$basic_string@DU?$char_traits@D@std@@V?$allocator@D@2@@std@@V12@@std@@@std@@$$V@?$_Compressed_pair@V?$allocator@U?$_List_node@U?$pair@$$CBV?$basic_string@DU?$char_traits@D@std@@V?$allocator@D@2@@std@@V12@@std@@PEAX@std@@@std@@V?$_List_val@U?$_List_simple_types@U?$pair@$$CBV?$basic_string@DU?$char_traits@D@std@@V?$allocator@D@2@@std@@V12@@std@@@std@@@2@$00@std@@QEAA@U_One_then_variadic_args_t@1@AEBV?$allocator@U?$pair@$$CBV?$basic_string@DU?$char_traits@D@std@@V?$allocator@D@2@@std@@V12@@std@@@1@@Z
	??$?0AEBV?$allocator@U?$pair@$$CBV?$basic_string@DU?$char_traits@D@std@@V?$allocator@D@2@@std@@V12@@std@@@std@@$$V@?$_Compressed_pair@V?$allocator@V?$_List_unchecked_iterator@V?$_List_val@U?$_List_simple_types@U?$pair@$$CBV?$basic_string@DU?$char_traits@D@std@@V?$allocator@D@2@@std@@V12@@std@@@std@@@std@@@std@@@std@@V?$_Vector_val@U?$_Simple_types@V?$_List_unchecked_iterator@V?$_List_val@U?$_List_simple_types@U?$pair@$$CBV?$basic_string@DU?$char_traits@D@std@@V?$allocator@D@2@@std@@V12@@std@@@std@@@std@@@std@@@std@@@2@$00@std@@QEAA@U_One_then_variadic_args_t@1@AEBV?$allocator@U?$pair@$$CBV?$basic_string@DU?$char_traits@D@std@@V?$allocator@D@2@@std@@V12@@std@@@1@@Z
	??$?0AEBV?$allocator@U?$pair@$$CBV?$basic_string@DU?$char_traits@D@std@@V?$allocator@D@2@@std@@V12@@std@@@std@@$0A@@?$_Hash_vec@V?$allocator@V?$_List_unchecked_iterator@V?$_List_val@U?$_List_simple_types@U?$pair@$$CBV?$basic_string@DU?$char_traits@D@std@@V?$allocator@D@2@@std@@V12@@std@@@std@@@std@@@std@@@std@@@std@@QEAA@AEBV?$allocator@U?$pair@$$CBV?$basic_string@DU?$char_traits@D@std@@V?$allocator@D@2@@std@@V12@@std@@@1@@Z
	??$?0AEBV?$allocator@U?$pair@$$CBV?$basic_string@DU?$char_traits@D@std@@V?$allocator@D@2@@std@@VPortInfo@BT@@@std@@@std@@$$V@?$_Compressed_pair@V?$allocator@U?$_List_node@U?$pair@$$CBV?$basic_string@DU?$char_traits@D@std@@V?$allocator@D@2@@std@@VPortInfo@BT@@@std@@PEAX@std@@@std@@V?$_List_val@U?$_List_simple_types@U?$pair@$$CBV?$basic_string@DU?$char_traits@D@std@@V?$allocator@D@2@@std@@VPortInfo@BT@@@std@@@std@@@2@$00@std@@QEAA@U_One_then_variadic_args_t@1@AEBV?$allocator@U?$pair@$$CBV?$basic_string@DU?$char_traits@D@std@@V?$allocator@D@2@@std@@VPortInfo@BT@@@std@@@1@@Z
	??$?0AEBV?$allocator@U?$pair@$$CBV?$basic_string@DU?$char_traits@D@std@@V?$allocator@D@2@@std@@VPortInfo@BT@@@std@@@std@@$$V@?$_Compressed_pair@V?$allocator@V?$_List_unchecked_iterator@V?$_List_val@U?$_List_simple_types@U?$pair@$$CBV?$basic_string@DU?$char_traits@D@std@@V?$allocator@D@2@@std@@VPortInfo@BT@@@std@@@std@@@std@@@std@@@std@@V?$_Vector_val@U?$_Simple_types@V?$_List_unchecked_iterator@V?$_List_val@U?$_List_simple_types@U?$pair@$$CBV?$basic_string@DU?$char_traits@D@std@@V?$allocator@D@2@@std@@VPortInfo@BT@@@std@@@std@@@std@@@std@@@std@@@2@$00@std@@QEAA@U_One_then_variadic_args_t@1@AEBV?$allocator@U?$pair@$$CBV?$basic_string@DU?$char_traits@D@std@@V?$allocator@D@2@@std@@VPortInfo@BT@@@std@@@1@@Z
	??$?0AEBV?$allocator@U?$pair@$$CBV?$basic_string@DU?$char_traits@D@std@@V?$allocator@D@2@@std@@VPortInfo@BT@@@std@@@std@@$0A@@?$_Hash_vec@V?$allocator@V?$_List_unchecked_iterator@V?$_List_val@U?$_List_simple_types@U?$pair@$$CBV?$basic_string@DU?$char_traits@D@std@@V?$allocator@D@2@@std@@VPortInfo@BT@@@std@@@std@@@std@@@std@@@std@@@std@@QEAA@AEBV?$allocator@U?$pair@$$CBV?$basic_string@DU?$char_traits@D@std@@V?$allocator@D@2@@std@@VPortInfo@BT@@@std@@@1@@Z
	??$?0M@?$_Compressed_pair@U?$equal_to@V?$basic_string@DU?$char_traits@D@std@@V?$allocator@D@2@@std@@@std@@M$00@std@@QEAA@U_Zero_then_variadic_args_t@1@$$QEAM@Z
	??$?0P8GripperInterface@DummyNodes@@EAA?AW4NodeStatus@BT@@XZPEAV01@@?$_Compressed_pair@P8GripperInterface@DummyNodes@@EAA?AW4NodeStatus@BT@@XZV?$tuple@PEAVGripperInterface@DummyNodes@@@std@@$0A@@std@@QEAA@U_One_then_variadic_args_t@1@$$QEAP8GripperInterface@DummyNodes@@EAA?AW4NodeStatus@BT@@XZ$$QEAPEAV34@@Z
	??$?0PEAD$0A@@?$basic_string@DU?$char_traits@D@std@@V?$allocator@D@2@@std@@QEAA@PEAD0AEBV?$allocator@D@1@@Z
	??$?0PEAVGripperInterface@DummyNodes@@$$V$0A@@?$tuple@PEAVGripperInterface@DummyNodes@@@std@@QEAA@$$QEAPEAVGripperInterface@DummyNodes@@@Z
	??$?0PEAVGripperInterface@DummyNodes@@@?$_Tuple_val@PEAVGripperInterface@DummyNodes@@@std@@QEAA@$$QEAPEAVGripperInterface@DummyNodes@@@Z
	??$?0PEBD$0A@@?$expected@Umonostate@std@@V?$basic_string@DU?$char_traits@D@std@@V?$allocator@D@2@@2@@expected_lite@nonstd@@QEAA@$$QEAV?$unexpected_type@PEBD@12@@Z
	??$?0PEBD$0A@@?$unexpected_type@PEBD@expected_lite@nonstd@@QEAA@$$QEAPEBD@Z
	??$?0U?$_List_node@U?$pair@$$CBV?$basic_string@DU?$char_traits@D@std@@V?$allocator@D@2@@std@@VPortInfo@BT@@@std@@PEAX@std@@@?$allocator@U?$pair@$$CBV?$basic_string@DU?$char_traits@D@std@@V?$allocator@D@2@@std@@VPortInfo@BT@@@std@@@std@@QEAA@AEBV?$allocator@U?$_List_node@U?$pair@$$CBV?$basic_string@DU?$char_traits@D@std@@V?$allocator@D@2@@std@@VPortInfo@BT@@@std@@PEAX@std@@@1@@Z
	??$?0U?$_List_node@U?$pair@$$CBV?$basic_string@DU?$char_traits@D@std@@V?$allocator@D@2@@std@@VPortInfo@BT@@@std@@PEAX@std@@@?$allocator@V?$_List_unchecked_iterator@V?$_List_val@U?$_List_simple_types@U?$pair@$$CBV?$basic_string@DU?$char_traits@D@std@@V?$allocator@D@2@@std@@VPortInfo@BT@@@std@@@std@@@std@@@std@@@std@@QEAA@AEBV?$allocator@U?$_List_node@U?$pair@$$CBV?$basic_string@DU?$char_traits@D@std@@V?$allocator@D@2@@std@@VPortInfo@BT@@@std@@PEAX@std@@@1@@Z
	??$?0U?$default_delete@VApproachObject@DummyNodes@@@std@@$0A@@?$unique_ptr@VApproachObject@DummyNodes@@U?$default_delete@VApproachObject@DummyNodes@@@std@@@std@@QEAA@PEAVApproachObject@DummyNodes@@@Z
	??$?0U?$default_delete@VApproachObject@DummyNodes@@@std@@PEAVApproachObject@DummyNodes@@@?$_Compressed_pair@U?$default_delete@VTreeNode@BT@@@std@@PEAVTreeNode@BT@@$00@std@@QEAA@U_One_then_variadic_args_t@1@$$QEAU?$default_delete@VApproachObject@DummyNodes@@@1@$$QEAPEAVApproachObject@DummyNodes@@@Z
	??$?0U?$default_delete@VSaySomething@DummyNodes@@@std@@$0A@@?$unique_ptr@VSaySomething@DummyNodes@@U?$default_delete@VSaySomething@DummyNodes@@@std@@@std@@QEAA@PEAVSaySomething@DummyNodes@@@Z
	??$?0U?$default_delete@VSaySomething@DummyNodes@@@std@@PEAVSaySomething@DummyNodes@@@?$_Compressed_pair@U?$default_delete@VTreeNode@BT@@@std@@PEAVTreeNode@BT@@$00@std@@QEAA@U_One_then_variadic_args_t@1@$$QEAU?$default_delete@VSaySomething@DummyNodes@@@1@$$QEAPEAVSaySomething@DummyNodes@@@Z
	??$?0U?$pair@$$CBV?$basic_string@DU?$char_traits@D@std@@V?$allocator@D@2@@std@@V12@@std@@@?$allocator@U?$_List_node@U?$pair@$$CBV?$basic_string@DU?$char_traits@D@std@@V?$allocator@D@2@@std@@V12@@std@@PEAX@std@@@std@@QEAA@AEBV?$allocator@U?$pair@$$CBV?$basic_string@DU?$char_traits@D@std@@V?$allocator@D@2@@std@@V12@@std@@@1@@Z
	??$?0U?$pair@$$CBV?$basic_string@DU?$char_traits@D@std@@V?$allocator@D@2@@std@@V12@@std@@@?$allocator@V?$_List_unchecked_iterator@V?$_List_val@U?$_List_simple_types@U?$pair@$$CBV?$basic_string@DU?$char_traits@D@std@@V?$allocator@D@2@@std@@V12@@std@@@std@@@std@@@std@@@std@@QEAA@AEBV?$allocator@U?$pair@$$CBV?$basic_string@DU?$char_traits@D@std@@V?$allocator@D@2@@std@@V12@@std@@@1@@Z
	??$?0U?$pair@$$CBV?$basic_string@DU?$char_traits@D@std@@V?$allocator@D@2@@std@@VPortInfo@BT@@@std@@@?$allocator@U?$_List_node@U?$pair@$$CBV?$basic_string@DU?$char_traits@D@std@@V?$allocator@D@2@@std@@VPortInfo@BT@@@std@@PEAX@std@@@std@@QEAA@AEBV?$allocator@U?$pair@$$CBV?$basic_string@DU?$char_traits@D@std@@V?$allocator@D@2@@std@@VPortInfo@BT@@@std@@@1@@Z
	??$?0U?$pair@$$CBV?$basic_string@DU?$char_traits@D@std@@V?$allocator@D@2@@std@@VPortInfo@BT@@@std@@@?$allocator@V?$_List_unchecked_iterator@V?$_List_val@U?$_List_simple_types@U?$pair@$$CBV?$basic_string@DU?$char_traits@D@std@@V?$allocator@D@2@@std@@VPortInfo@BT@@@std@@@std@@@std@@@std@@@std@@QEAA@AEBV?$allocator@U?$pair@$$CBV?$basic_string@DU?$char_traits@D@std@@V?$allocator@D@2@@std@@VPortInfo@BT@@@std@@@1@@Z
	??$?0U_Exact_args_t@std@@$0A@@?$tuple@$$V@std@@QEAA@U_Exact_args_t@1@@Z
	??$?0U_Exact_args_t@std@@AEAVTreeNode@BT@@$$V$0A@@?$tuple@AEAVTreeNode@BT@@@std@@QEAA@U_Exact_args_t@1@AEAVTreeNode@BT@@@Z
	??$?0U_Exact_args_t@std@@PEAVGripperInterface@DummyNodes@@$$V$0A@@?$tuple@PEAVGripperInterface@DummyNodes@@@std@@QEAA@U_Exact_args_t@1@$$QEAPEAVGripperInterface@DummyNodes@@@Z
	??$?0U_Zero_then_variadic_args_t@std@@M@?$_Compressed_pair@U?$hash@V?$basic_string@DU?$char_traits@D@std@@V?$allocator@D@2@@std@@@std@@V?$_Compressed_pair@U?$equal_to@V?$basic_string@DU?$char_traits@D@std@@V?$allocator@D@2@@std@@@std@@M$00@2@$00@std@@QEAA@U_Zero_then_variadic_args_t@1@$$QEAU21@$$QEAM@Z
	??$?0V<lambda_57296cd0c6c71135b50e4592291d978e>@@$0A@@?$_Func_impl_no_alloc@V<lambda_57296cd0c6c71135b50e4592291d978e>@@VAny@BT@@V?$basic_string_view@DU?$char_traits@D@std@@@std@@@std@@QEAA@$$QEAV<lambda_57296cd0c6c71135b50e4592291d978e>@@@Z
	??$?0V<lambda_57296cd0c6c71135b50e4592291d978e>@@$0A@@?$function@$$A6A?AVAny@BT@@V?$basic_string_view@DU?$char_traits@D@std@@@std@@@Z@std@@QEAA@V<lambda_57296cd0c6c71135b50e4592291d978e>@@@Z
	??$?0V<lambda_a95bbca0faf915955c95630ee1c00895>@@$0A@@?$_Func_impl_no_alloc@V<lambda_a95bbca0faf915955c95630ee1c00895>@@V?$unique_ptr@VTreeNode@BT@@U?$default_delete@VTreeNode@BT@@@std@@@std@@AEBV?$basic_string@DU?$char_traits@D@std@@V?$allocator@D@2@@3@AEBUNodeConfig@BT@@@std@@QEAA@$$QEAV<lambda_a95bbca0faf915955c95630ee1c00895>@@@Z
	??$?0V<lambda_a95bbca0faf915955c95630ee1c00895>@@$0A@@?$function@$$A6A?AV?$unique_ptr@VTreeNode@BT@@U?$default_delete@VTreeNode@BT@@@std@@@std@@AEBV?$basic_string@DU?$char_traits@D@std@@V?$allocator@D@2@@2@AEBUNodeConfig@BT@@@Z@std@@QEAA@V<lambda_a95bbca0faf915955c95630ee1c00895>@@@Z
	??$?0V<lambda_b01c296c30d9c3eb21471946df8728d5>@@$0A@@?$_Func_impl_no_alloc@V<lambda_b01c296c30d9c3eb21471946df8728d5>@@V?$unique_ptr@VTreeNode@BT@@U?$default_delete@VTreeNode@BT@@@std@@@std@@AEBV?$basic_string@DU?$char_traits@D@std@@V?$allocator@D@2@@3@AEBUNodeConfig@BT@@@std@@QEAA@$$QEAV<lambda_b01c296c30d9c3eb21471946df8728d5>@@@Z
	??$?0V<lambda_b01c296c30d9c3eb21471946df8728d5>@@$0A@@?$function@$$A6A?AV?$unique_ptr@VTreeNode@BT@@U?$default_delete@VTreeNode@BT@@@std@@@std@@AEBV?$basic_string@DU?$char_traits@D@std@@V?$allocator@D@2@@2@AEBUNodeConfig@BT@@@Z@std@@QEAA@V<lambda_b01c296c30d9c3eb21471946df8728d5>@@@Z
	??$?0V?$_Binder@U_Unforced@std@@A6A?AW4NodeStatus@BT@@XZ$$V@std@@$0A@@?$_Func_impl_no_alloc@V?$_Binder@U_Unforced@std@@A6A?AW4NodeStatus@BT@@XZ$$V@std@@W4NodeStatus@BT@@AEAVTreeNode@4@@std@@QEAA@$$QEAV?$_Binder@U_Unforced@std@@A6A?AW4NodeStatus@BT@@XZ$$V@1@@Z
	??$?0V?$_Binder@U_Unforced@std@@A6A?AW4NodeStatus@BT@@XZ$$V@std@@$0A@@?$function@$$A6A?AW4NodeStatus@BT@@AEAVTreeNode@2@@Z@std@@QEAA@V?$_Binder@U_Unforced@std@@A6A?AW4NodeStatus@BT@@XZ$$V@1@@Z
	??$?0V?$_Binder@U_Unforced@std@@P8GripperInterface@DummyNodes@@EAA?AW4NodeStatus@BT@@XZPEAV34@@std@@$0A@@?$_Func_impl_no_alloc@V?$_Binder@U_Unforced@std@@P8GripperInterface@DummyNodes@@EAA?AW4NodeStatus@BT@@XZPEAV34@@std@@W4NodeStatus@BT@@AEAVTreeNode@4@@std@@QEAA@$$QEAV?$_Binder@U_Unforced@std@@P8GripperInterface@DummyNodes@@EAA?AW4NodeStatus@BT@@XZPEAV34@@1@@Z
	??$?0V?$_Binder@U_Unforced@std@@P8GripperInterface@DummyNodes@@EAA?AW4NodeStatus@BT@@XZPEAV34@@std@@$0A@@?$function@$$A6A?AW4NodeStatus@BT@@AEAVTreeNode@2@@Z@std@@QEAA@V?$_Binder@U_Unforced@std@@P8GripperInterface@DummyNodes@@EAA?AW4NodeStatus@BT@@XZPEAV34@@1@@Z
	??$?0V?$_List_iterator@V?$_List_val@U?$_List_simple_types@U?$pair@$$CBV?$basic_string@DU?$char_traits@D@std@@V?$allocator@D@2@@std@@VPortInfo@BT@@@std@@@std@@@std@@@std@@_N$0A@@?$pair@V?$_List_iterator@V?$_List_val@U?$_List_simple_types@U?$pair@$$CBV?$basic_string@DU?$char_traits@D@std@@V?$allocator@D@2@@std@@VPortInfo@BT@@@std@@@std@@@std@@@std@@_N@std@@QEAA@$$QEAV?$_List_iterator@V?$_List_val@U?$_List_simple_types@U?$pair@$$CBV?$basic_string@DU?$char_traits@D@std@@V?$allocator@D@2@@std@@VPortInfo@BT@@@std@@@std@@@std@@@1@$$QEA_N@Z
	??$?0V?$allocator@D@std@@$$V@?$_Compressed_pair@V?$allocator@D@std@@V?$_String_val@U?$_Simple_types@D@std@@@2@$00@std@@QEAA@U_One_then_variadic_args_t@1@$$QEAV?$allocator@D@1@@Z
	??$?0V?$allocator@U?$_List_node@U?$pair@$$CBV?$basic_string@DU?$char_traits@D@std@@V?$allocator@D@2@@std@@VPortInfo@BT@@@std@@PEAX@std@@@std@@@?$_Hash@V?$_Umap_traits@V?$basic_string@DU?$char_traits@D@std@@V?$allocator@D@2@@std@@VPortInfo@BT@@V?$_Uhash_compare@V?$basic_string@DU?$char_traits@D@std@@V?$allocator@D@2@@std@@U?$hash@V?$basic_string@DU?$char_traits@D@std@@V?$allocator@D@2@@std@@@2@U?$equal_to@V?$basic_string@DU?$char_traits@D@std@@V?$allocator@D@2@@std@@@2@@2@V?$allocator@U?$pair@$$CBV?$basic_string@DU?$char_traits@D@std@@V?$allocator@D@2@@std@@VPortInfo@BT@@@std@@@2@$0A@@std@@@std@@IEAA@AEBV01@AEBV?$allocator@U?$_List_node@U?$pair@$$CBV?$basic_string@DU?$char_traits@D@std@@V?$allocator@D@2@@std@@VPortInfo@BT@@@std@@PEAX@std@@@1@@Z
	??$?0V?$basic_string@DU?$char_traits@D@std@@V?$allocator@D@2@@std@@$0A@@?$expected@Umonostate@std@@V?$basic_string@DU?$char_traits@D@std@@V?$allocator@D@2@@2@@expected_lite@nonstd@@QEAA@$$QEAV?$unexpected_type@V?$basic_string@DU?$char_traits@D@std@@V?$allocator@D@2@@std@@@12@@Z
	??$?0V?$basic_string@DU?$char_traits@D@std@@V?$allocator@D@2@@std@@$0A@@?$expected@V?$basic_string@DU?$char_traits@D@std@@V?$allocator@D@2@@std@@V12@@expected_lite@nonstd@@QEAA@$$QEAV?$basic_string@DU?$char_traits@D@std@@V?$allocator@D@2@@std@@@Z
	??$?0V?$basic_string@DU?$char_traits@D@std@@V?$allocator@D@2@@std@@$0A@@?$expected@V?$basic_string@DU?$char_traits@D@std@@V?$allocator@D@2@@std@@V12@@expected_lite@nonstd@@QEAA@$$QEAV?$unexpected_type@V?$basic_string@DU?$char_traits@D@std@@V?$allocator@D@2@@std@@@12@@Z
	??$?0V?$basic_string@DU?$char_traits@D@std@@V?$allocator@D@2@@std@@$0A@@?$unexpected_type@V?$basic_string@DU?$char_traits@D@std@@V?$allocator@D@2@@std@@@expected_lite@nonstd@@QEAA@$$QEAV?$basic_string@DU?$char_traits@D@std@@V?$allocator@D@2@@std@@@Z
	??$?0V?$basic_string@DU?$char_traits@D@std@@V?$allocator@D@2@@std@@VPortInfo@BT@@$0A@@?$pair@$$CBV?$basic_string@DU?$char_traits@D@std@@V?$allocator@D@2@@std@@VPortInfo@BT@@@std@@QEAA@$$QEAU?$pair@V?$basic_string@DU?$char_traits@D@std@@V?$allocator@D@2@@std@@VPortInfo@BT@@@1@@Z
	??$?0V?$basic_string@DU?$char_traits@D@std@@V?$allocator@D@2@@std@@VPortInfo@BT@@$0A@@?$pair@V?$basic_string@DU?$char_traits@D@std@@V?$allocator@D@2@@std@@VPortInfo@BT@@@std@@QEAA@XZ
	??$?0V?$basic_string_view@DU?$char_traits@D@std@@@std@@$0A@@?$basic_string@DU?$char_traits@D@std@@V?$allocator@D@2@@std@@QEAA@AEBV?$basic_string_view@DU?$char_traits@D@std@@@1@AEBV?$allocator@D@1@@Z
	??$?0VApproachObject@DummyNodes@@$0A@@?$default_delete@VTreeNode@BT@@@std@@QEAA@AEBU?$default_delete@VApproachObject@DummyNodes@@@1@@Z
	??$?0VApproachObject@DummyNodes@@U?$default_delete@VApproachObject@DummyNodes@@@std@@$0A@@?$unique_ptr@VTreeNode@BT@@U?$default_delete@VTreeNode@BT@@@std@@@std@@QEAA@$$QEAV?$unique_ptr@VApproachObject@DummyNodes@@U?$default_delete@VApproachObject@DummyNodes@@@std@@@1@@Z
	??$?0VSaySomething@DummyNodes@@$0A@@?$default_delete@VTreeNode@BT@@@std@@QEAA@AEBU?$default_delete@VSaySomething@DummyNodes@@@1@@Z
	??$?0VSaySomething@DummyNodes@@U?$default_delete@VSaySomething@DummyNodes@@@std@@$0A@@?$unique_ptr@VTreeNode@BT@@U?$default_delete@VTreeNode@BT@@@std@@@std@@QEAA@$$QEAV?$unique_ptr@VSaySomething@DummyNodes@@U?$default_delete@VSaySomething@DummyNodes@@@std@@@1@@Z
	??$?0VSimpleString@SafeAny@@X@any@linb@@QEAA@$$QEAVSimpleString@SafeAny@@@Z
	??$?4$$CBV?$basic_string@DU?$char_traits@D@std@@V?$allocator@D@2@@std@@V01@$0A@@?$pair@V?$basic_string@DU?$char_traits@D@std@@V?$allocator@D@2@@std@@V12@@std@@QEAAAEAU01@AEBU?$pair@$$CBV?$basic_string@DU?$char_traits@D@std@@V?$allocator@D@2@@std@@V12@@1@@Z
	??$?4U?$pair@V?$basic_string@DU?$char_traits@D@std@@V?$allocator@D@2@@std@@VPortInfo@BT@@@std@@$0A@@?$pair@V?$basic_string@DU?$char_traits@D@std@@V?$allocator@D@2@@std@@VPortInfo@BT@@@std@@QEAAAEAU01@$$QEAU01@@Z
	??$?6DU?$char_traits@D@std@@V?$allocator@D@1@@std@@YAAEAV?$basic_ostream@DU?$char_traits@D@std@@@0@AEAV10@AEBV?$basic_string@DU?$char_traits@D@std@@V?$allocator@D@2@@0@@Z
	??$?6U?$char_traits@D@std@@@std@@YAAEAV?$basic_ostream@DU?$char_traits@D@std@@@0@AEAV10@PEBD@Z
	??$?8DU?$char_traits@D@std@@V?$allocator@D@1@@std@@YA_NAEBV?$basic_string@DU?$char_traits@D@std@@V?$allocator@D@2@@0@0@Z
	??$?CVBlackboard@BT@@$0A@@?$shared_ptr@VBlackboard@BT@@@std@@QEBAPEAVBlackboard@BT@@XZ
	??$?RAEAVTreeNode@BT@@@?$_Binder@U_Unforced@std@@A6A?AW4NodeStatus@BT@@XZ$$V@std@@QEAA?AW4NodeStatus@BT@@AEAVTreeNode@3@@Z
	??$?RAEAVTreeNode@BT@@@?$_Binder@U_Unforced@std@@P8GripperInterface@DummyNodes@@EAA?AW4NodeStatus@BT@@XZPEAV34@@std@@QEAA?AW4NodeStatus@BT@@AEAVTreeNode@3@@Z
	??$?RV?$basic_string@DU?$char_traits@D@std@@V?$allocator@D@2@@std@@@?$_Uhash_compare@V?$basic_string@DU?$char_traits@D@std@@V?$allocator@D@2@@std@@U?$hash@V?$basic_string@DU?$char_traits@D@std@@V?$allocator@D@2@@std@@@2@U?$equal_to@V?$basic_string@DU?$char_traits@D@std@@V?$allocator@D@2@@std@@@2@@std@@QEBA_KAEBV?$basic_string@DU?$char_traits@D@std@@V?$allocator@D@2@@1@@Z
	??$?RV?$basic_string@DU?$char_traits@D@std@@V?$allocator@D@2@@std@@V01@@?$_Uhash_compare@V?$basic_string@DU?$char_traits@D@std@@V?$allocator@D@2@@std@@U?$hash@V?$basic_string@DU?$char_traits@D@std@@V?$allocator@D@2@@std@@@2@U?$equal_to@V?$basic_string@DU?$char_traits@D@std@@V?$allocator@D@2@@std@@@2@@std@@QEBA_NAEBV?$basic_string@DU?$char_traits@D@std@@V?$allocator@D@2@@1@0@Z
	??$CreateBuilder@VApproachObject@DummyNodes@@$$V@BT@@YA?AV?$function@$$A6A?AV?$unique_ptr@VTreeNode@BT@@U?$default_delete@VTreeNode@BT@@@std@@@std@@AEBV?$basic_string@DU?$char_traits@D@std@@V?$allocator@D@2@@2@AEBUNodeConfig@BT@@@Z@std@@XZ
	??$CreateBuilder@VSaySomething@DummyNodes@@$$V@BT@@YA?AV?$function@$$A6A?AV?$unique_ptr@VTreeNode@BT@@U?$default_delete@VTreeNode@BT@@@std@@@std@@AEBV?$basic_string@DU?$char_traits@D@std@@V?$allocator@D@2@@2@AEBUNodeConfig@BT@@@Z@std@@XZ
	??$CreateManifest@VApproachObject@DummyNodes@@@BT@@YA?AUTreeNodeManifest@0@AEBV?$basic_string@DU?$char_traits@D@std@@V?$allocator@D@2@@std@@V?$unordered_map@V?$basic_string@DU?$char_traits@D@std@@V?$allocator@D@2@@std@@VPortInfo@BT@@U?$hash@V?$basic_string@DU?$char_traits@D@std@@V?$allocator@D@2@@std@@@2@U?$equal_to@V?$basic_string@DU?$char_traits@D@std@@V?$allocator@D@2@@std@@@2@V?$allocator@U?$pair@$$CBV?$basic_string@DU?$char_traits@D@std@@V?$allocator@D@2@@std@@VPortInfo@BT@@@std@@@2@@3@@Z
	??$CreateManifest@VSaySomething@DummyNodes@@@BT@@YA?AUTreeNodeManifest@0@AEBV?$basic_string@DU?$char_traits@D@std@@V?$allocator@D@2@@std@@V?$unordered_map@V?$basic_string@DU?$char_traits@D@std@@V?$allocator@D@2@@std@@VPortInfo@BT@@U?$hash@V?$basic_string@DU?$char_traits@D@std@@V?$allocator@D@2@@std@@@2@U?$equal_to@V?$basic_string@DU?$char_traits@D@std@@V?$allocator@D@2@@std@@@2@V?$allocator@U?$pair@$$CBV?$basic_string@DU?$char_traits@D@std@@V?$allocator@D@2@@std@@VPortInfo@BT@@@std@@@2@@3@@Z
	??$CreatePort@V?$basic_string@DU?$char_traits@D@std@@V?$allocator@D@2@@std@@@BT@@YA?AU?$pair@V?$basic_string@DU?$char_traits@D@std@@V?$allocator@D@2@@std@@VPortInfo@BT@@@std@@W4PortDirection@0@V?$basic_string_view@DU?$char_traits@D@std@@@2@1@Z
	??$GetAnyFromStringFunctor@V?$basic_string@DU?$char_traits@D@std@@V?$allocator@D@2@@std@@@BT@@YA?AV?$function@$$A6A?AVAny@BT@@V?$basic_string_view@DU?$char_traits@D@std@@@std@@@Z@std@@XZ
	??$InputPort@V?$basic_string@DU?$char_traits@D@std@@V?$allocator@D@2@@std@@@BT@@YA?AU?$pair@V?$basic_string@DU?$char_traits@D@std@@V?$allocator@D@2@@std@@VPortInfo@BT@@@std@@V?$basic_string_view@DU?$char_traits@D@std@@@2@0@Z
	??$Instantiate@VApproachObject@DummyNodes@@$$V@TreeNode@BT@@SA?AV?$unique_ptr@VTreeNode@BT@@U?$default_delete@VTreeNode@BT@@@std@@@std@@AEBV?$basic_string@DU?$char_traits@D@std@@V?$allocator@D@2@@3@AEBUNodeConfig@1@@Z
	??$Instantiate@VSaySomething@DummyNodes@@$$V@TreeNode@BT@@SA?AV?$unique_ptr@VTreeNode@BT@@U?$default_delete@VTreeNode@BT@@@std@@@std@@AEBV?$basic_string@DU?$char_traits@D@std@@V?$allocator@D@2@@3@AEBUNodeConfig@1@@Z
	??$StrCat@$$BY01D@BT@@YA?AV?$basic_string@DU?$char_traits@D@std@@V?$allocator@D@2@@std@@AEBV?$basic_string_view@DU?$char_traits@D@std@@@2@000AEAY01$$CBD@Z
	??$_Adl_verify_range@PEADPEAD@std@@YAXAEBQEAD0@Z
	??$_Adl_verify_range@PEAV?$_List_unchecked_iterator@V?$_List_val@U?$_List_simple_types@U?$pair@$$CBV?$basic_string@DU?$char_traits@D@std@@V?$allocator@D@2@@std@@V12@@std@@@std@@@std@@@std@@PEAV12@@std@@YAXAEBQEAV?$_List_unchecked_iterator@V?$_List_val@U?$_List_simple_types@U?$pair@$$CBV?$basic_string@DU?$char_traits@D@std@@V?$allocator@D@2@@std@@V12@@std@@@std@@@std@@@0@0@Z
	??$_Adl_verify_range@PEAV?$_List_unchecked_iterator@V?$_List_val@U?$_List_simple_types@U?$pair@$$CBV?$basic_string@DU?$char_traits@D@std@@V?$allocator@D@2@@std@@VPortInfo@BT@@@std@@@std@@@std@@@std@@PEAV12@@std@@YAXAEBQEAV?$_List_unchecked_iterator@V?$_List_val@U?$_List_simple_types@U?$pair@$$CBV?$basic_string@DU?$char_traits@D@std@@V?$allocator@D@2@@std@@VPortInfo@BT@@@std@@@std@@@std@@@0@0@Z
	??$_Adl_verify_range@PEBU?$pair@$$CBV?$basic_string@DU?$char_traits@D@std@@V?$allocator@D@2@@std@@VPortInfo@BT@@@std@@PEBU12@@std@@YAXAEBQEBU?$pair@$$CBV?$basic_string@DU?$char_traits@D@std@@V?$allocator@D@2@@std@@VPortInfo@BT@@@0@0@Z
	??$_Adl_verify_range@V?$_List_unchecked_const_iterator@V?$_List_val@U?$_List_simple_types@U?$pair@$$CBV?$basic_string@DU?$char_traits@D@std@@V?$allocator@D@2@@std@@VPortInfo@BT@@@std@@@std@@@std@@U_Iterator_base0@2@@std@@V12@@std@@YAXAEBV?$_List_unchecked_const_iterator@V?$_List_val@U?$_List_simple_types@U?$pair@$$CBV?$basic_string@DU?$char_traits@D@std@@V?$allocator@D@2@@std@@VPortInfo@BT@@@std@@@std@@@std@@U_Iterator_base0@2@@0@0@Z
	??$_Allocate@$0BA@U_Default_allocate_traits@std@@$0A@@std@@YAPEAX_K@Z
	??$_Allocate_manually_vector_aligned@U_Default_allocate_traits@std@@@std@@YAPEAX_K@Z
	??$_Append_range_unchecked@V?$_List_unchecked_const_iterator@V?$_List_val@U?$_List_simple_types@U?$pair@$$CBV?$basic_string@DU?$char_traits@D@std@@V?$allocator@D@2@@std@@V12@@std@@@std@@@std@@U_Iterator_base0@2@@std@@V12@@?$_List_node_insert_op2@V?$allocator@U?$_List_node@U?$pair@$$CBV?$basic_string@DU?$char_traits@D@std@@V?$allocator@D@2@@std@@V12@@std@@PEAX@std@@@std@@@std@@QEAAXV?$_List_unchecked_const_iterator@V?$_List_val@U?$_List_simple_types@U?$pair@$$CBV?$basic_string@DU?$char_traits@D@std@@V?$allocator@D@2@@std@@V12@@std@@@std@@@std@@U_Iterator_base0@2@@1@V21@@Z
	??$_Assign_cast@AEAU?$pair@V?$basic_string@DU?$char_traits@D@std@@V?$allocator@D@2@@std@@V12@@std@@V?$_List_unchecked_const_iterator@V?$_List_val@U?$_List_simple_types@U?$pair@$$CBV?$basic_string@DU?$char_traits@D@std@@V?$allocator@D@2@@std@@V12@@std@@@std@@@std@@U_Iterator_base0@2@@2@@?$list@U?$pair@$$CBV?$basic_string@DU?$char_traits@D@std@@V?$allocator@D@2@@std@@V12@@std@@V?$allocator@U?$pair@$$CBV?$basic_string@DU?$char_traits@D@std@@V?$allocator@D@2@@std@@V12@@std@@@2@@std@@AEAAXV?$_List_unchecked_const_iterator@V?$_List_val@U?$_List_simple_types@U?$pair@$$CBV?$basic_string@DU?$char_traits@D@std@@V?$allocator@D@2@@std@@V12@@std@@@std@@@std@@U_Iterator_base0@2@@1@V21@@Z
	??$_Attach_at_end@U?$_List_simple_types@U?$pair@$$CBV?$basic_string@DU?$char_traits@D@std@@V?$allocator@D@2@@std@@V12@@std@@@std@@@?$_List_node_insert_op2@V?$allocator@U?$_List_node@U?$pair@$$CBV?$basic_string@DU?$char_traits@D@std@@V?$allocator@D@2@@std@@V12@@std@@PEAX@std@@@std@@@std@@QEAAXAEAV?$_List_val@U?$_List_simple_types@U?$pair@$$CBV?$basic_string@DU?$char_traits@D@std@@V?$allocator@D@2@@std@@V12@@std@@@std@@@1@@Z
	??$_Attach_before@U?$_List_simple_types@U?$pair@$$CBV?$basic_string@DU?$char_traits@D@std@@V?$allocator@D@2@@std@@V12@@std@@@std@@@?$_List_node_insert_op2@V?$allocator@U?$_List_node@U?$pair@$$CBV?$basic_string@DU?$char_traits@D@std@@V?$allocator@D@2@@std@@V12@@std@@PEAX@std@@@std@@@std@@QEAAPEAU?$_List_node@U?$pair@$$CBV?$basic_string@DU?$char_traits@D@std@@V?$allocator@D@2@@std@@V12@@std@@PEAX@1@AEAV?$_List_val@U?$_List_simple_types@U?$pair@$$CBV?$basic_string@DU?$char_traits@D@std@@V?$allocator@D@2@@std@@V12@@std@@@std@@@1@QEAU21@@Z
	??$_Buyheadnode@V?$allocator@U?$_Tree_node@U?$pair@$$CBW4PostCond@BT@@V?$basic_string@DU?$char_traits@D@std@@V?$allocator@D@2@@std@@@std@@PEAX@std@@@std@@@?$_Tree_node@U?$pair@$$CBW4PostCond@BT@@V?$basic_string@DU?$char_traits@D@std@@V?$allocator@D@2@@std@@@std@@PEAX@std@@SAPEAU01@AEAV?$allocator@U?$_Tree_node@U?$pair@$$CBW4PostCond@BT@@V?$basic_string@DU?$char_traits@D@std@@V?$allocator@D@2@@std@@@std@@PEAX@std@@@1@@Z
	??$_Buyheadnode@V?$allocator@U?$_Tree_node@U?$pair@$$CBW4PreCond@BT@@V?$basic_string@DU?$char_traits@D@std@@V?$allocator@D@2@@std@@@std@@PEAX@std@@@std@@@?$_Tree_node@U?$pair@$$CBW4PreCond@BT@@V?$basic_string@DU?$char_traits@D@std@@V?$allocator@D@2@@std@@@std@@PEAX@std@@SAPEAU01@AEAV?$allocator@U?$_Tree_node@U?$pair@$$CBW4PreCond@BT@@V?$basic_string@DU?$char_traits@D@std@@V?$allocator@D@2@@std@@@std@@PEAX@std@@@1@@Z
	??$_Buynode@AEAU?$pair@$$CBW4PostCond@BT@@V?$basic_string@DU?$char_traits@D@std@@V?$allocator@D@2@@std@@@std@@@?$_Tree@V?$_Tmap_traits@W4PostCond@BT@@V?$basic_string@DU?$char_traits@D@std@@V?$allocator@D@2@@std@@U?$less@W4PostCond@BT@@@4@V?$allocator@U?$pair@$$CBW4PostCond@BT@@V?$basic_string@DU?$char_traits@D@std@@V?$allocator@D@2@@std@@@std@@@4@$0A@@std@@@std@@IEAAPEAU?$_Tree_node@U?$pair@$$CBW4PostCond@BT@@V?$basic_string@DU?$char_traits@D@std@@V?$allocator@D@2@@std@@@std@@PEAX@1@AEAU?$pair@$$CBW4PostCond@BT@@V?$basic_string@DU?$char_traits@D@std@@V?$allocator@D@2@@std@@@1@@Z
	??$_Buynode@AEAU?$pair@$$CBW4PreCond@BT@@V?$basic_string@DU?$char_traits@D@std@@V?$allocator@D@2@@std@@@std@@@?$_Tree@V?$_Tmap_traits@W4PreCond@BT@@V?$basic_string@DU?$char_traits@D@std@@V?$allocator@D@2@@std@@U?$less@W4PreCond@BT@@@4@V?$allocator@U?$pair@$$CBW4PreCond@BT@@V?$basic_string@DU?$char_traits@D@std@@V?$allocator@D@2@@std@@@std@@@4@$0A@@std@@@std@@IEAAPEAU?$_Tree_node@U?$pair@$$CBW4PreCond@BT@@V?$basic_string@DU?$char_traits@D@std@@V?$allocator@D@2@@std@@@std@@PEAX@1@AEAU?$pair@$$CBW4PreCond@BT@@V?$basic_string@DU?$char_traits@D@std@@V?$allocator@D@2@@std@@@1@@Z
	??$_Buynode@V?$allocator@U?$_Tree_node@U?$pair@$$CBW4PostCond@BT@@V?$basic_string@DU?$char_traits@D@std@@V?$allocator@D@2@@std@@@std@@PEAX@std@@@std@@AEAU?$pair@$$CBW4PostCond@BT@@V?$basic_string@DU?$char_traits@D@std@@V?$allocator@D@2@@std@@@2@@?$_Tree_node@U?$pair@$$CBW4PostCond@BT@@V?$basic_string@DU?$char_traits@D@std@@V?$allocator@D@2@@std@@@std@@PEAX@std@@SAPEAU01@AEAV?$allocator@U?$_Tree_node@U?$pair@$$CBW4PostCond@BT@@V?$basic_string@DU?$char_traits@D@std@@V?$allocator@D@2@@std@@@std@@PEAX@std@@@1@PEAU01@AEAU?$pair@$$CBW4PostCond@BT@@V?$basic_string@DU?$char_traits@D@std@@V?$allocator@D@2@@std@@@1@@Z
	??$_Buynode@V?$allocator@U?$_Tree_node@U?$pair@$$CBW4PreCond@BT@@V?$basic_string@DU?$char_traits@D@std@@V?$allocator@D@2@@std@@@std@@PEAX@std@@@std@@AEAU?$pair@$$CBW4PreCond@BT@@V?$basic_string@DU?$char_traits@D@std@@V?$allocator@D@2@@std@@@2@@?$_Tree_node@U?$pair@$$CBW4PreCond@BT@@V?$basic_string@DU?$char_traits@D@std@@V?$allocator@D@2@@std@@@std@@PEAX@std@@SAPEAU01@AEAV?$allocator@U?$_Tree_node@U?$pair@$$CBW4PreCond@BT@@V?$basic_string@DU?$char_traits@D@std@@V?$allocator@D@2@@std@@@std@@PEAX@std@@@1@PEAU01@AEAU?$pair@$$CBW4PreCond@BT@@V?$basic_string@DU?$char_traits@D@std@@V?$allocator@D@2@@std@@@1@@Z
	??$_Call@AEAP6A?AW4NodeStatus@BT@@XZ$$V@?$_Invoker_ret@U_Unforced@std@@$0A@@std@@SA?AW4NodeStatus@BT@@AEAP6A?AW423@XZ@Z
	??$_Call@AEAP8GripperInterface@DummyNodes@@EAA?AW4NodeStatus@BT@@XZAEAPEAV12@@?$_Invoker_ret@U_Unforced@std@@$0A@@std@@SA?AW4NodeStatus@BT@@AEAP8GripperInterface@DummyNodes@@EAA?AW423@XZAEAPEAV45@@Z
	??$_Call@AEAV<lambda_57296cd0c6c71135b50e4592291d978e>@@V?$basic_string_view@DU?$char_traits@D@std@@@std@@@?$_Invoker_ret@VAny@BT@@$0A@@std@@SA?AVAny@BT@@AEAV<lambda_57296cd0c6c71135b50e4592291d978e>@@$$QEAV?$basic_string_view@DU?$char_traits@D@std@@@1@@Z
	??$_Call@AEAV<lambda_a95bbca0faf915955c95630ee1c00895>@@AEBV?$basic_string@DU?$char_traits@D@std@@V?$allocator@D@2@@std@@AEBUNodeConfig@BT@@@?$_Invoker_ret@V?$unique_ptr@VTreeNode@BT@@U?$default_delete@VTreeNode@BT@@@std@@@std@@$0A@@std@@SA?AV?$unique_ptr@VTreeNode@BT@@U?$default_delete@VTreeNode@BT@@@std@@@1@AEAV<lambda_a95bbca0faf915955c95630ee1c00895>@@AEBV?$basic_string@DU?$char_traits@D@std@@V?$allocator@D@2@@1@AEBUNodeConfig@BT@@@Z
	??$_Call@AEAV<lambda_b01c296c30d9c3eb21471946df8728d5>@@AEBV?$basic_string@DU?$char_traits@D@std@@V?$allocator@D@2@@std@@AEBUNodeConfig@BT@@@?$_Invoker_ret@V?$unique_ptr@VTreeNode@BT@@U?$default_delete@VTreeNode@BT@@@std@@@std@@$0A@@std@@SA?AV?$unique_ptr@VTreeNode@BT@@U?$default_delete@VTreeNode@BT@@@std@@@1@AEAV<lambda_b01c296c30d9c3eb21471946df8728d5>@@AEBV?$basic_string@DU?$char_traits@D@std@@V?$allocator@D@2@@1@AEBUNodeConfig@BT@@@Z
	??$_Call@AEAV?$_Binder@U_Unforced@std@@A6A?AW4NodeStatus@BT@@XZ$$V@std@@AEAVTreeNode@BT@@@?$_Invoker_ret@W4NodeStatus@BT@@$0A@@std@@SA?AW4NodeStatus@BT@@AEAV?$_Binder@U_Unforced@std@@A6A?AW4NodeStatus@BT@@XZ$$V@1@AEAVTreeNode@3@@Z
	??$_Call@AEAV?$_Binder@U_Unforced@std@@P8GripperInterface@DummyNodes@@EAA?AW4NodeStatus@BT@@XZPEAV34@@std@@AEAVTreeNode@BT@@@?$_Invoker_ret@W4NodeStatus@BT@@$0A@@std@@SA?AW4NodeStatus@BT@@AEAV?$_Binder@U_Unforced@std@@P8GripperInterface@DummyNodes@@EAA?AW4NodeStatus@BT@@XZPEAV34@@1@AEAVTreeNode@3@@Z
	??$_Call_binder@U_Unforced@std@@$0A@P8GripperInterface@DummyNodes@@EAA?AW4NodeStatus@BT@@XZV?$tuple@PEAVGripperInterface@DummyNodes@@@2@V?$tuple@AEAVTreeNode@BT@@@2@@std@@YA?AW4NodeStatus@BT@@U?$_Invoker_ret@U_Unforced@std@@$0A@@0@U?$integer_sequence@_K$0A@@0@AEAP8GripperInterface@DummyNodes@@EAA?AW412@XZAEAV?$tuple@PEAVGripperInterface@DummyNodes@@@0@$$QEAV?$tuple@AEAVTreeNode@BT@@@0@@Z
	??$_Call_binder@U_Unforced@std@@$SP6A?AW4NodeStatus@BT@@XZV?$tuple@$$V@2@V?$tuple@AEAVTreeNode@BT@@@2@@std@@YA?AW4NodeStatus@BT@@U?$_Invoker_ret@U_Unforced@std@@$0A@@0@U?$integer_sequence@_K$S@0@AEAP6A?AW412@XZAEAV?$tuple@$$V@0@$$QEAV?$tuple@AEAVTreeNode@BT@@@0@@Z
	??$_Construct_from_weak@VBlackboard@BT@@@?$_Ptr_base@VBlackboard@BT@@@std@@IEAA_NAEBV?$weak_ptr@VBlackboard@BT@@@1@@Z
	??$_Construct_in_place@PEADAEAPEAD@std@@YAXAEAPEAD0@Z
	??$_Construct_in_place@PEADAEBQEAD@std@@YAXAEAPEADAEBQEAD@Z
	??$_Construct_in_place@PEAU?$_List_node@U?$pair@$$CBV?$basic_string@DU?$char_traits@D@std@@V?$allocator@D@2@@std@@V12@@std@@PEAX@std@@AEAPEAU12@@std@@YAXAEAPEAU?$_List_node@U?$pair@$$CBV?$basic_string@DU?$char_traits@D@std@@V?$allocator@D@2@@std@@V12@@std@@PEAX@0@0@Z
	??$_Construct_in_place@PEAU?$_List_node@U?$pair@$$CBV?$basic_string@DU?$char_traits@D@std@@V?$allocator@D@2@@std@@V12@@std@@PEAX@std@@AEBQEAU12@@std@@YAXAEAPEAU?$_List_node@U?$pair@$$CBV?$basic_string@DU?$char_traits@D@std@@V?$allocator@D@2@@std@@V12@@std@@PEAX@0@AEBQEAU10@@Z
	??$_Construct_in_place@PEAU?$_List_node@U?$pair@$$CBV?$basic_string@DU?$char_traits@D@std@@V?$allocator@D@2@@std@@V12@@std@@PEAX@std@@PEAU12@@std@@YAXAEAPEAU?$_List_node@U?$pair@$$CBV?$basic_string@DU?$char_traits@D@std@@V?$allocator@D@2@@std@@V12@@std@@PEAX@0@$$QEAPEAU10@@Z
	??$_Construct_in_place@PEAU?$_List_node@U?$pair@$$CBV?$basic_string@DU?$char_traits@D@std@@V?$allocator@D@2@@std@@VPortInfo@BT@@@std@@PEAX@std@@AEAPEAU12@@std@@YAXAEAPEAU?$_List_node@U?$pair@$$CBV?$basic_string@DU?$char_traits@D@std@@V?$allocator@D@2@@std@@VPortInfo@BT@@@std@@PEAX@0@0@Z
	??$_Construct_in_place@PEAU?$_List_node@U?$pair@$$CBV?$basic_string@DU?$char_traits@D@std@@V?$allocator@D@2@@std@@VPortInfo@BT@@@std@@PEAX@std@@AEBQEAU12@@std@@YAXAEAPEAU?$_List_node@U?$pair@$$CBV?$basic_string@DU?$char_traits@D@std@@V?$allocator@D@2@@std@@VPortInfo@BT@@@std@@PEAX@0@AEBQEAU10@@Z
	??$_Construct_in_place@PEAU?$_Tree_node@U?$pair@$$CBW4PostCond@BT@@V?$basic_string@DU?$char_traits@D@std@@V?$allocator@D@2@@std@@@std@@PEAX@std@@AEAPEAU12@@std@@YAXAEAPEAU?$_Tree_node@U?$pair@$$CBW4PostCond@BT@@V?$basic_string@DU?$char_traits@D@std@@V?$allocator@D@2@@std@@@std@@PEAX@0@0@Z
	??$_Construct_in_place@PEAU?$_Tree_node@U?$pair@$$CBW4PostCond@BT@@V?$basic_string@DU?$char_traits@D@std@@V?$allocator@D@2@@std@@@std@@PEAX@std@@AEBQEAU12@@std@@YAXAEAPEAU?$_Tree_node@U?$pair@$$CBW4PostCond@BT@@V?$basic_string@DU?$char_traits@D@std@@V?$allocator@D@2@@std@@@std@@PEAX@0@AEBQEAU10@@Z
	??$_Construct_in_place@PEAU?$_Tree_node@U?$pair@$$CBW4PreCond@BT@@V?$basic_string@DU?$char_traits@D@std@@V?$allocator@D@2@@std@@@std@@PEAX@std@@AEAPEAU12@@std@@YAXAEAPEAU?$_Tree_node@U?$pair@$$CBW4PreCond@BT@@V?$basic_string@DU?$char_traits@D@std@@V?$allocator@D@2@@std@@@std@@PEAX@0@0@Z
	??$_Construct_in_place@PEAU?$_Tree_node@U?$pair@$$CBW4PreCond@BT@@V?$basic_string@DU?$char_traits@D@std@@V?$allocator@D@2@@std@@@std@@PEAX@std@@AEBQEAU12@@std@@YAXAEAPEAU?$_Tree_node@U?$pair@$$CBW4PreCond@BT@@V?$basic_string@DU?$char_traits@D@std@@V?$allocator@D@2@@std@@@std@@PEAX@0@AEBQEAU10@@Z
	??$_Construct_in_place@V?$_List_unchecked_iterator@V?$_List_val@U?$_List_simple_types@U?$pair@$$CBV?$basic_string@DU?$char_traits@D@std@@V?$allocator@D@2@@std@@V12@@std@@@std@@@std@@@std@@AEBV12@@std@@YAXAEAV?$_List_unchecked_iterator@V?$_List_val@U?$_List_simple_types@U?$pair@$$CBV?$basic_string@DU?$char_traits@D@std@@V?$allocator@D@2@@std@@V12@@std@@@std@@@std@@@0@AEBV10@@Z
	??$_Construct_in_place@V?$_List_unchecked_iterator@V?$_List_val@U?$_List_simple_types@U?$pair@$$CBV?$basic_string@DU?$char_traits@D@std@@V?$allocator@D@2@@std@@VPortInfo@BT@@@std@@@std@@@std@@@std@@AEBV12@@std@@YAXAEAV?$_List_unchecked_iterator@V?$_List_val@U?$_List_simple_types@U?$pair@$$CBV?$basic_string@DU?$char_traits@D@std@@V?$allocator@D@2@@std@@VPortInfo@BT@@@std@@@std@@@std@@@0@AEBV10@@Z
	??$_Convert_size@_K@std@@YA_K_K@Z
	??$_Copy@U_Copy_tag@?$_Tree@V?$_Tmap_traits@W4PostCond@BT@@V?$basic_string@DU?$char_traits@D@std@@V?$allocator@D@2@@std@@U?$less@W4PostCond@BT@@@4@V?$allocator@U?$pair@$$CBW4PostCond@BT@@V?$basic_string@DU?$char_traits@D@std@@V?$allocator@D@2@@std@@@std@@@4@$0A@@std@@@std@@@?$_Tree@V?$_Tmap_traits@W4PostCond@BT@@V?$basic_string@DU?$char_traits@D@std@@V?$allocator@D@2@@std@@U?$less@W4PostCond@BT@@@4@V?$allocator@U?$pair@$$CBW4PostCond@BT@@V?$basic_string@DU?$char_traits@D@std@@V?$allocator@D@2@@std@@@std@@@4@$0A@@std@@@std@@IEAAXAEBV01@U_Copy_tag@01@@Z
	??$_Copy@U_Copy_tag@?$_Tree@V?$_Tmap_traits@W4PreCond@BT@@V?$basic_string@DU?$char_traits@D@std@@V?$allocator@D@2@@std@@U?$less@W4PreCond@BT@@@4@V?$allocator@U?$pair@$$CBW4PreCond@BT@@V?$basic_string@DU?$char_traits@D@std@@V?$allocator@D@2@@std@@@std@@@4@$0A@@std@@@std@@@?$_Tree@V?$_Tmap_traits@W4PreCond@BT@@V?$basic_string@DU?$char_traits@D@std@@V?$allocator@D@2@@std@@U?$less@W4PreCond@BT@@@4@V?$allocator@U?$pair@$$CBW4PreCond@BT@@V?$basic_string@DU?$char_traits@D@std@@V?$allocator@D@2@@std@@@std@@@4@$0A@@std@@@std@@IEAAXAEBV01@U_Copy_tag@01@@Z
	??$_Copy_construct_from@V?$unordered_map@V?$basic_string@DU?$char_traits@D@std@@V?$allocator@D@2@@std@@HU?$hash@V?$basic_string@DU?$char_traits@D@std@@V?$allocator@D@2@@std@@@2@U?$equal_to@V?$basic_string@DU?$char_traits@D@std@@V?$allocator@D@2@@std@@@2@V?$allocator@U?$pair@$$CBV?$basic_string@DU?$char_traits@D@std@@V?$allocator@D@2@@std@@H@std@@@2@@std@@@?$_Ptr_base@V?$unordered_map@V?$basic_string@DU?$char_traits@D@std@@V?$allocator@D@2@@std@@HU?$hash@V?$basic_string@DU?$char_traits@D@std@@V?$allocator@D@2@@std@@@2@U?$equal_to@V?$basic_string@DU?$char_traits@D@std@@V?$allocator@D@2@@std@@@2@V?$allocator@U?$pair@$$CBV?$basic_string@DU?$char_traits@D@std@@V?$allocator@D@2@@std@@H@std@@@2@@std@@@std@@IEAAXAEBV?$shared_ptr@V?$unordered_map@V?$basic_string@DU?$char_traits@D@std@@V?$allocator@D@2@@std@@HU?$hash@V?$basic_string@DU?$char_traits@D@std@@V?$allocator@D@2@@std@@@2@U?$equal_to@V?$basic_string@DU?$char_traits@D@std@@V?$allocator@D@2@@std@@@2@V?$allocator@U?$pair@$$CBV?$basic_string@DU?$char_traits@D@std@@V?$allocator@D@2@@std@@H@std@@@2@@std@@@1@@Z
	??$_Copy_construct_from@VBlackboard@BT@@@?$_Ptr_base@VBlackboard@BT@@@std@@IEAAXAEBV?$shared_ptr@VBlackboard@BT@@@1@@Z
	??$_Copy_nodes@U_Copy_tag@?$_Tree@V?$_Tmap_traits@W4PostCond@BT@@V?$basic_string@DU?$char_traits@D@std@@V?$allocator@D@2@@std@@U?$less@W4PostCond@BT@@@4@V?$allocator@U?$pair@$$CBW4PostCond@BT@@V?$basic_string@DU?$char_traits@D@std@@V?$allocator@D@2@@std@@@std@@@4@$0A@@std@@@std@@@?$_Tree@V?$_Tmap_traits@W4PostCond@BT@@V?$basic_string@DU?$char_traits@D@std@@V?$allocator@D@2@@std@@U?$less@W4PostCond@BT@@@4@V?$allocator@U?$pair@$$CBW4PostCond@BT@@V?$basic_string@DU?$char_traits@D@std@@V?$allocator@D@2@@std@@@std@@@4@$0A@@std@@@std@@IEAAPEAU?$_Tree_node@U?$pair@$$CBW4PostCond@BT@@V?$basic_string@DU?$char_traits@D@std@@V?$allocator@D@2@@std@@@std@@PEAX@1@PEAU21@0U_Copy_tag@01@@Z
	??$_Copy_nodes@U_Copy_tag@?$_Tree@V?$_Tmap_traits@W4PreCond@BT@@V?$basic_string@DU?$char_traits@D@std@@V?$allocator@D@2@@std@@U?$less@W4PreCond@BT@@@4@V?$allocator@U?$pair@$$CBW4PreCond@BT@@V?$basic_string@DU?$char_traits@D@std@@V?$allocator@D@2@@std@@@std@@@4@$0A@@std@@@std@@@?$_Tree@V?$_Tmap_traits@W4PreCond@BT@@V?$basic_string@DU?$char_traits@D@std@@V?$allocator@D@2@@std@@U?$less@W4PreCond@BT@@@4@V?$allocator@U?$pair@$$CBW4PreCond@BT@@V?$basic_string@DU?$char_traits@D@std@@V?$allocator@D@2@@std@@@std@@@4@$0A@@std@@@std@@IEAAPEAU?$_Tree_node@U?$pair@$$CBW4PreCond@BT@@V?$basic_string@DU?$char_traits@D@std@@V?$allocator@D@2@@std@@@std@@PEAX@1@PEAU21@0U_Copy_tag@01@@Z
	??$_Copy_or_move@U?$pair@$$CBW4PostCond@BT@@V?$basic_string@DU?$char_traits@D@std@@V?$allocator@D@2@@std@@@std@@U?$integral_constant@_N$0A@@2@@?$_Tree@V?$_Tmap_traits@W4PostCond@BT@@V?$basic_string@DU?$char_traits@D@std@@V?$allocator@D@2@@std@@U?$less@W4PostCond@BT@@@4@V?$allocator@U?$pair@$$CBW4PostCond@BT@@V?$basic_string@DU?$char_traits@D@std@@V?$allocator@D@2@@std@@@std@@@4@$0A@@std@@@std@@IEAAPEAU?$_Tree_node@U?$pair@$$CBW4PostCond@BT@@V?$basic_string@DU?$char_traits@D@std@@V?$allocator@D@2@@std@@@std@@PEAX@1@AEAU?$pair@$$CBW4PostCond@BT@@V?$basic_string@DU?$char_traits@D@std@@V?$allocator@D@2@@std@@@1@U_Copy_tag@01@U?$integral_constant@_N$0A@@1@@Z
	??$_Copy_or_move@U?$pair@$$CBW4PreCond@BT@@V?$basic_string@DU?$char_traits@D@std@@V?$allocator@D@2@@std@@@std@@U?$integral_constant@_N$0A@@2@@?$_Tree@V?$_Tmap_traits@W4PreCond@BT@@V?$basic_string@DU?$char_traits@D@std@@V?$allocator@D@2@@std@@U?$less@W4PreCond@BT@@@4@V?$allocator@U?$pair@$$CBW4PreCond@BT@@V?$basic_string@DU?$char_traits@D@std@@V?$allocator@D@2@@std@@@std@@@4@$0A@@std@@@std@@IEAAPEAU?$_Tree_node@U?$pair@$$CBW4PreCond@BT@@V?$basic_string@DU?$char_traits@D@std@@V?$allocator@D@2@@std@@@std@@PEAX@1@AEAU?$pair@$$CBW4PreCond@BT@@V?$basic_string@DU?$char_traits@D@std@@V?$allocator@D@2@@std@@@1@U_Copy_tag@01@U?$integral_constant@_N$0A@@1@@Z
	??$_Deallocate@$07$0A@@std@@YAXPEAX_K@Z
	??$_Deallocate@$0BA@$0A@@std@@YAXPEAX_K@Z
	??$_Destroy_in_place@PEAD@std@@YAXAEAPEAD@Z
	??$_Destroy_in_place@PEAU?$_List_node@U?$pair@$$CBV?$basic_string@DU?$char_traits@D@std@@V?$allocator@D@2@@std@@V12@@std@@PEAX@std@@@std@@YAXAEAPEAU?$_List_node@U?$pair@$$CBV?$basic_string@DU?$char_traits@D@std@@V?$allocator@D@2@@std@@V12@@std@@PEAX@0@@Z
	??$_Destroy_in_place@PEAU?$_List_node@U?$pair@$$CBV?$basic_string@DU?$char_traits@D@std@@V?$allocator@D@2@@std@@VPortInfo@BT@@@std@@PEAX@std@@@std@@YAXAEAPEAU?$_List_node@U?$pair@$$CBV?$basic_string@DU?$char_traits@D@std@@V?$allocator@D@2@@std@@VPortInfo@BT@@@std@@PEAX@0@@Z
	??$_Destroy_in_place@PEAU?$_Tree_node@U?$pair@$$CBW4PostCond@BT@@V?$basic_string@DU?$char_traits@D@std@@V?$allocator@D@2@@std@@@std@@PEAX@std@@@std@@YAXAEAPEAU?$_Tree_node@U?$pair@$$CBW4PostCond@BT@@V?$basic_string@DU?$char_traits@D@std@@V?$allocator@D@2@@std@@@std@@PEAX@0@@Z
	??$_Destroy_in_place@PEAU?$_Tree_node@U?$pair@$$CBW4PreCond@BT@@V?$basic_string@DU?$char_traits@D@std@@V?$allocator@D@2@@std@@@std@@PEAX@std@@@std@@YAXAEAPEAU?$_Tree_node@U?$pair@$$CBW4PreCond@BT@@V?$basic_string@DU?$char_traits@D@std@@V?$allocator@D@2@@std@@@std@@PEAX@0@@Z
	??$_Destroy_range@PEAV?$_List_unchecked_iterator@V?$_List_val@U?$_List_simple_types@U?$pair@$$CBV?$basic_string@DU?$char_traits@D@std@@V?$allocator@D@2@@std@@V12@@std@@@std@@@std@@@std@@PEAV12@@std@@YAXPEAV?$_List_unchecked_iterator@V?$_List_val@U?$_List_simple_types@U?$pair@$$CBV?$basic_string@DU?$char_traits@D@std@@V?$allocator@D@2@@std@@V12@@std@@@std@@@std@@@0@QEAV10@@Z
	??$_Destroy_range@PEAV?$_List_unchecked_iterator@V?$_List_val@U?$_List_simple_types@U?$pair@$$CBV?$basic_string@DU?$char_traits@D@std@@V?$allocator@D@2@@std@@VPortInfo@BT@@@std@@@std@@@std@@@std@@PEAV12@@std@@YAXPEAV?$_List_unchecked_iterator@V?$_List_val@U?$_List_simple_types@U?$pair@$$CBV?$basic_string@DU?$char_traits@D@std@@V?$allocator@D@2@@std@@VPortInfo@BT@@@std@@@std@@@std@@@0@QEAV10@@Z
	??$_Destroy_range@V?$allocator@V?$weak_ptr@V?$function@$$A6AXV?$time_point@Usteady_clock@chrono@std@@V?$duration@_JU?$ratio@$00$0DLJKMKAA@@std@@@23@@chrono@std@@AEBVTreeNode@BT@@W4NodeStatus@5@2@Z@std@@@std@@@std@@@std@@YAXPEAV?$weak_ptr@V?$function@$$A6AXV?$time_point@Usteady_clock@chrono@std@@V?$duration@_JU?$ratio@$00$0DLJKMKAA@@std@@@23@@chrono@std@@AEBVTreeNode@BT@@W4NodeStatus@5@2@Z@std@@@0@QEAV10@AEAV?$allocator@V?$weak_ptr@V?$function@$$A6AXV?$time_point@Usteady_clock@chrono@std@@V?$duration@_JU?$ratio@$00$0DLJKMKAA@@std@@@23@@chrono@std@@AEBVTreeNode@BT@@W4NodeStatus@5@2@Z@std@@@std@@@0@@Z
	??$_Emplace_back@AEBV?$_List_unchecked_iterator@V?$_List_val@U?$_List_simple_types@U?$pair@$$CBV?$basic_string@DU?$char_traits@D@std@@V?$allocator@D@2@@std@@V12@@std@@@std@@@std@@@std@@@?$_Uninitialized_backout@PEAV?$_List_unchecked_iterator@V?$_List_val@U?$_List_simple_types@U?$pair@$$CBV?$basic_string@DU?$char_traits@D@std@@V?$allocator@D@2@@std@@V12@@std@@@std@@@std@@@std@@@std@@QEAAXAEBV?$_List_unchecked_iterator@V?$_List_val@U?$_List_simple_types@U?$pair@$$CBV?$basic_string@DU?$char_traits@D@std@@V?$allocator@D@2@@std@@V12@@std@@@std@@@std@@@1@@Z
	??$_Emplace_back@AEBV?$_List_unchecked_iterator@V?$_List_val@U?$_List_simple_types@U?$pair@$$CBV?$basic_string@DU?$char_traits@D@std@@V?$allocator@D@2@@std@@VPortInfo@BT@@@std@@@std@@@std@@@std@@@?$_Uninitialized_backout@PEAV?$_List_unchecked_iterator@V?$_List_val@U?$_List_simple_types@U?$pair@$$CBV?$basic_string@DU?$char_traits@D@std@@V?$allocator@D@2@@std@@VPortInfo@BT@@@std@@@std@@@std@@@std@@@std@@QEAAXAEBV?$_List_unchecked_iterator@V?$_List_val@U?$_List_simple_types@U?$pair@$$CBV?$basic_string@DU?$char_traits@D@std@@V?$allocator@D@2@@std@@VPortInfo@BT@@@std@@@std@@@std@@@1@@Z
	??$_Erase_head@V?$allocator@U?$_Tree_node@U?$pair@$$CBW4PostCond@BT@@V?$basic_string@DU?$char_traits@D@std@@V?$allocator@D@2@@std@@@std@@PEAX@std@@@std@@@?$_Tree_val@U?$_Tree_simple_types@U?$pair@$$CBW4PostCond@BT@@V?$basic_string@DU?$char_traits@D@std@@V?$allocator@D@2@@std@@@std@@@std@@@std@@QEAAXAEAV?$allocator@U?$_Tree_node@U?$pair@$$CBW4PostCond@BT@@V?$basic_string@DU?$char_traits@D@std@@V?$allocator@D@2@@std@@@std@@PEAX@std@@@1@@Z
	??$_Erase_head@V?$allocator@U?$_Tree_node@U?$pair@$$CBW4PreCond@BT@@V?$basic_string@DU?$char_traits@D@std@@V?$allocator@D@2@@std@@@std@@PEAX@std@@@std@@@?$_Tree_val@U?$_Tree_simple_types@U?$pair@$$CBW4PreCond@BT@@V?$basic_string@DU?$char_traits@D@std@@V?$allocator@D@2@@std@@@std@@@std@@@std@@QEAAXAEAV?$allocator@U?$_Tree_node@U?$pair@$$CBW4PreCond@BT@@V?$basic_string@DU?$char_traits@D@std@@V?$allocator@D@2@@std@@@std@@PEAX@std@@@1@@Z
	??$_Erase_tree@V?$allocator@U?$_Tree_node@U?$pair@$$CBW4PostCond@BT@@V?$basic_string@DU?$char_traits@D@std@@V?$allocator@D@2@@std@@@std@@PEAX@std@@@std@@@?$_Tree_val@U?$_Tree_simple_types@U?$pair@$$CBW4PostCond@BT@@V?$basic_string@DU?$char_traits@D@std@@V?$allocator@D@2@@std@@@std@@@std@@@std@@QEAAXAEAV?$allocator@U?$_Tree_node@U?$pair@$$CBW4PostCond@BT@@V?$basic_string@DU?$char_traits@D@std@@V?$allocator@D@2@@std@@@std@@PEAX@std@@@1@PEAU?$_Tree_node@U?$pair@$$CBW4PostCond@BT@@V?$basic_string@DU?$char_traits@D@std@@V?$allocator@D@2@@std@@@std@@PEAX@1@@Z
	??$_Erase_tree@V?$allocator@U?$_Tree_node@U?$pair@$$CBW4PreCond@BT@@V?$basic_string@DU?$char_traits@D@std@@V?$allocator@D@2@@std@@@std@@PEAX@std@@@std@@@?$_Tree_val@U?$_Tree_simple_types@U?$pair@$$CBW4PreCond@BT@@V?$basic_string@DU?$char_traits@D@std@@V?$allocator@D@2@@std@@@std@@@std@@@std@@QEAAXAEAV?$allocator@U?$_Tree_node@U?$pair@$$CBW4PreCond@BT@@V?$basic_string@DU?$char_traits@D@std@@V?$allocator@D@2@@std@@@std@@PEAX@std@@@1@PEAU?$_Tree_node@U?$pair@$$CBW4PreCond@BT@@V?$basic_string@DU?$char_traits@D@std@@V?$allocator@D@2@@std@@@std@@PEAX@1@@Z
	??$_Erase_tree_and_orphan@V?$allocator@U?$_Tree_node@U?$pair@$$CBW4PostCond@BT@@V?$basic_string@DU?$char_traits@D@std@@V?$allocator@D@2@@std@@@std@@PEAX@std@@@std@@@?$_Tree_val@U?$_Tree_simple_types@U?$pair@$$CBW4PostCond@BT@@V?$basic_string@DU?$char_traits@D@std@@V?$allocator@D@2@@std@@@std@@@std@@@std@@QEAAXAEAV?$allocator@U?$_Tree_node@U?$pair@$$CBW4PostCond@BT@@V?$basic_string@DU?$char_traits@D@std@@V?$allocator@D@2@@std@@@std@@PEAX@std@@@1@PEAU?$_Tree_node@U?$pair@$$CBW4PostCond@BT@@V?$basic_string@DU?$char_traits@D@std@@V?$allocator@D@2@@std@@@std@@PEAX@1@@Z
	??$_Erase_tree_and_orphan@V?$allocator@U?$_Tree_node@U?$pair@$$CBW4PreCond@BT@@V?$basic_string@DU?$char_traits@D@std@@V?$allocator@D@2@@std@@@std@@PEAX@std@@@std@@@?$_Tree_val@U?$_Tree_simple_types@U?$pair@$$CBW4PreCond@BT@@V?$basic_string@DU?$char_traits@D@std@@V?$allocator@D@2@@std@@@std@@@std@@@std@@QEAAXAEAV?$allocator@U?$_Tree_node@U?$pair@$$CBW4PreCond@BT@@V?$basic_string@DU?$char_traits@D@std@@V?$allocator@D@2@@std@@@std@@PEAX@std@@@1@PEAU?$_Tree_node@U?$pair@$$CBW4PreCond@BT@@V?$basic_string@DU?$char_traits@D@std@@V?$allocator@D@2@@std@@@std@@PEAX@1@@Z
	??$_Find@V?$basic_string@DU?$char_traits@D@std@@V?$allocator@D@2@@std@@@?$_Hash@V?$_Umap_traits@V?$basic_string@DU?$char_traits@D@std@@V?$allocator@D@2@@std@@UEntry@Blackboard@BT@@V?$_Uhash_compare@V?$basic_string@DU?$char_traits@D@std@@V?$allocator@D@2@@std@@U?$hash@V?$basic_string@DU?$char_traits@D@std@@V?$allocator@D@2@@std@@@2@U?$equal_to@V?$basic_string@DU?$char_traits@D@std@@V?$allocator@D@2@@std@@@2@@2@V?$allocator@U?$pair@$$CBV?$basic_string@DU?$char_traits@D@std@@V?$allocator@D@2@@std@@UEntry@Blackboard@BT@@@std@@@2@$0A@@std@@@std@@AEBAPEAU?$_List_node@U?$pair@$$CBV?$basic_string@DU?$char_traits@D@std@@V?$allocator@D@2@@std@@UEntry@Blackboard@BT@@@std@@PEAX@1@AEBV?$basic_string@DU?$char_traits@D@std@@V?$allocator@D@2@@1@_K@Z
	??$_Find@V?$basic_string@DU?$char_traits@D@std@@V?$allocator@D@2@@std@@@?$_Hash@V?$_Umap_traits@V?$basic_string@DU?$char_traits@D@std@@V?$allocator@D@2@@std@@V12@V?$_Uhash_compare@V?$basic_string@DU?$char_traits@D@std@@V?$allocator@D@2@@std@@U?$hash@V?$basic_string@DU?$char_traits@D@std@@V?$allocator@D@2@@std@@@2@U?$equal_to@V?$basic_string@DU?$char_traits@D@std@@V?$allocator@D@2@@std@@@2@@2@V?$allocator@U?$pair@$$CBV?$basic_string@DU?$char_traits@D@std@@V?$allocator@D@2@@std@@V12@@std@@@2@$0A@@std@@@std@@AEBAPEAU?$_List_node@U?$pair@$$CBV?$basic_string@DU?$char_traits@D@std@@V?$allocator@D@2@@std@@V12@@std@@PEAX@1@AEBV?$basic_string@DU?$char_traits@D@std@@V?$allocator@D@2@@1@_K@Z
	??$_Find_last@V?$basic_string@DU?$char_traits@D@std@@V?$allocator@D@2@@std@@@?$_Hash@V?$_Umap_traits@V?$basic_string@DU?$char_traits@D@std@@V?$allocator@D@2@@std@@UEntry@Blackboard@BT@@V?$_Uhash_compare@V?$basic_string@DU?$char_traits@D@std@@V?$allocator@D@2@@std@@U?$hash@V?$basic_string@DU?$char_traits@D@std@@V?$allocator@D@2@@std@@@2@U?$equal_to@V?$basic_string@DU?$char_traits@D@std@@V?$allocator@D@2@@std@@@2@@2@V?$allocator@U?$pair@$$CBV?$basic_string@DU?$char_traits@D@std@@V?$allocator@D@2@@std@@UEntry@Blackboard@BT@@@std@@@2@$0A@@std@@@std@@IEBA?AU?$_Hash_find_last_result@PEAU?$_List_node@U?$pair@$$CBV?$basic_string@DU?$char_traits@D@std@@V?$allocator@D@2@@std@@UEntry@Blackboard@BT@@@std@@PEAX@std@@@1@AEBV?$basic_string@DU?$char_traits@D@std@@V?$allocator@D@2@@1@_K@Z
	??$_Find_last@V?$basic_string@DU?$char_traits@D@std@@V?$allocator@D@2@@std@@@?$_Hash@V?$_Umap_traits@V?$basic_string@DU?$char_traits@D@std@@V?$allocator@D@2@@std@@V12@V?$_Uhash_compare@V?$basic_string@DU?$char_traits@D@std@@V?$allocator@D@2@@std@@U?$hash@V?$basic_string@DU?$char_traits@D@std@@V?$allocator@D@2@@std@@@2@U?$equal_to@V?$basic_string@DU?$char_traits@D@std@@V?$allocator@D@2@@std@@@2@@2@V?$allocator@U?$pair@$$CBV?$basic_string@DU?$char_traits@D@std@@V?$allocator@D@2@@std@@V12@@std@@@2@$0A@@std@@@std@@IEBA?AU?$_Hash_find_last_result@PEAU?$_List_node@U?$pair@$$CBV?$basic_string@DU?$char_traits@D@std@@V?$allocator@D@2@@std@@V12@@std@@PEAX@std@@@1@AEBV?$basic_string@DU?$char_traits@D@std@@V?$allocator@D@2@@1@_K@Z
	??$_Find_last@V?$basic_string@DU?$char_traits@D@std@@V?$allocator@D@2@@std@@@?$_Hash@V?$_Umap_traits@V?$basic_string@DU?$char_traits@D@std@@V?$allocator@D@2@@std@@VPortInfo@BT@@V?$_Uhash_compare@V?$basic_string@DU?$char_traits@D@std@@V?$allocator@D@2@@std@@U?$hash@V?$basic_string@DU?$char_traits@D@std@@V?$allocator@D@2@@std@@@2@U?$equal_to@V?$basic_string@DU?$char_traits@D@std@@V?$allocator@D@2@@std@@@2@@2@V?$allocator@U?$pair@$$CBV?$basic_string@DU?$char_traits@D@std@@V?$allocator@D@2@@std@@VPortInfo@BT@@@std@@@2@$0A@@std@@@std@@IEBA?AU?$_Hash_find_last_result@PEAU?$_List_node@U?$pair@$$CBV?$basic_string@DU?$char_traits@D@std@@V?$allocator@D@2@@std@@VPortInfo@BT@@@std@@PEAX@std@@@1@AEBV?$basic_string@DU?$char_traits@D@std@@V?$allocator@D@2@@1@_K@Z
	??$_Fix@V?$tuple@AEAVTreeNode@BT@@@std@@@?$_Select_fixer@PEAVGripperInterface@DummyNodes@@$0A@$0A@$0A@@std@@SAAEAPEAVGripperInterface@DummyNodes@@AEAPEAV23@$$QEAV?$tuple@AEAVTreeNode@BT@@@1@@Z
	??$_Fix_arg@PEAVGripperInterface@DummyNodes@@V?$tuple@AEAVTreeNode@BT@@@std@@@std@@YAAEAPEAVGripperInterface@DummyNodes@@AEAPEAV12@$$QEAV?$tuple@AEAVTreeNode@BT@@@0@@Z
	??$_Free_non_head@V?$allocator@U?$_List_node@U?$pair@$$CBV?$basic_string@DU?$char_traits@D@std@@V?$allocator@D@2@@std@@V12@@std@@PEAX@std@@@std@@@?$_List_node@U?$pair@$$CBV?$basic_string@DU?$char_traits@D@std@@V?$allocator@D@2@@std@@V12@@std@@PEAX@std@@SAXAEAV?$allocator@U?$_List_node@U?$pair@$$CBV?$basic_string@DU?$char_traits@D@std@@V?$allocator@D@2@@std@@V12@@std@@PEAX@std@@@1@PEAU01@@Z
	??$_Free_non_head@V?$allocator@U?$_List_node@U?$pair@$$CBV?$basic_string@DU?$char_traits@D@std@@V?$allocator@D@2@@std@@VPortInfo@BT@@@std@@PEAX@std@@@std@@@?$_List_node@U?$pair@$$CBV?$basic_string@DU?$char_traits@D@std@@V?$allocator@D@2@@std@@VPortInfo@BT@@@std@@PEAX@std@@SAXAEAV?$allocator@U?$_List_node@U?$pair@$$CBV?$basic_string@DU?$char_traits@D@std@@V?$allocator@D@2@@std@@VPortInfo@BT@@@std@@PEAX@std@@@1@PEAU01@@Z
	??$_Freenode0@V?$allocator@U?$_List_node@U?$pair@$$CBV?$basic_string@DU?$char_traits@D@std@@V?$allocator@D@2@@std@@V12@@std@@PEAX@std@@@std@@@?$_List_node@U?$pair@$$CBV?$basic_string@DU?$char_traits@D@std@@V?$allocator@D@2@@std@@V12@@std@@PEAX@std@@SAXAEAV?$allocator@U?$_List_node@U?$pair@$$CBV?$basic_string@DU?$char_traits@D@std@@V?$allocator@D@2@@std@@V12@@std@@PEAX@std@@@1@PEAU01@@Z
	??$_Freenode0@V?$allocator@U?$_List_node@U?$pair@$$CBV?$basic_string@DU?$char_traits@D@std@@V?$allocator@D@2@@std@@VPortInfo@BT@@@std@@PEAX@std@@@std@@@?$_List_node@U?$pair@$$CBV?$basic_string@DU?$char_traits@D@std@@V?$allocator@D@2@@std@@VPortInfo@BT@@@std@@PEAX@std@@SAXAEAV?$allocator@U?$_List_node@U?$pair@$$CBV?$basic_string@DU?$char_traits@D@std@@V?$allocator@D@2@@std@@VPortInfo@BT@@@std@@PEAX@std@@@1@PEAU01@@Z
	??$_Freenode0@V?$allocator@U?$_Tree_node@U?$pair@$$CBW4PostCond@BT@@V?$basic_string@DU?$char_traits@D@std@@V?$allocator@D@2@@std@@@std@@PEAX@std@@@std@@@?$_Tree_node@U?$pair@$$CBW4PostCond@BT@@V?$basic_string@DU?$char_traits@D@std@@V?$allocator@D@2@@std@@@std@@PEAX@std@@SAXAEAV?$allocator@U?$_Tree_node@U?$pair@$$CBW4PostCond@BT@@V?$basic_string@DU?$char_traits@D@std@@V?$allocator@D@2@@std@@@std@@PEAX@std@@@1@PEAU01@@Z
	??$_Freenode0@V?$allocator@U?$_Tree_node@U?$pair@$$CBW4PreCond@BT@@V?$basic_string@DU?$char_traits@D@std@@V?$allocator@D@2@@std@@@std@@PEAX@std@@@std@@@?$_Tree_node@U?$pair@$$CBW4PreCond@BT@@V?$basic_string@DU?$char_traits@D@std@@V?$allocator@D@2@@std@@@std@@PEAX@std@@SAXAEAV?$allocator@U?$_Tree_node@U?$pair@$$CBW4PreCond@BT@@V?$basic_string@DU?$char_traits@D@std@@V?$allocator@D@2@@std@@@std@@PEAX@std@@@1@PEAU01@@Z
	??$_Freenode@V?$allocator@U?$_List_node@U?$pair@$$CBV?$basic_string@DU?$char_traits@D@std@@V?$allocator@D@2@@std@@V12@@std@@PEAX@std@@@std@@@?$_List_node@U?$pair@$$CBV?$basic_string@DU?$char_traits@D@std@@V?$allocator@D@2@@std@@V12@@std@@PEAX@std@@SAXAEAV?$allocator@U?$_List_node@U?$pair@$$CBV?$basic_string@DU?$char_traits@D@std@@V?$allocator@D@2@@std@@V12@@std@@PEAX@std@@@1@PEAU01@@Z
	??$_Freenode@V?$allocator@U?$_List_node@U?$pair@$$CBV?$basic_string@DU?$char_traits@D@std@@V?$allocator@D@2@@std@@VPortInfo@BT@@@std@@PEAX@std@@@std@@@?$_List_node@U?$pair@$$CBV?$basic_string@DU?$char_traits@D@std@@V?$allocator@D@2@@std@@VPortInfo@BT@@@std@@PEAX@std@@SAXAEAV?$allocator@U?$_List_node@U?$pair@$$CBV?$basic_string@DU?$char_traits@D@std@@V?$allocator@D@2@@std@@VPortInfo@BT@@@std@@PEAX@std@@@1@PEAU01@@Z
	??$_Freenode@V?$allocator@U?$_Tree_node@U?$pair@$$CBW4PostCond@BT@@V?$basic_string@DU?$char_traits@D@std@@V?$allocator@D@2@@std@@@std@@PEAX@std@@@std@@@?$_Tree_node@U?$pair@$$CBW4PostCond@BT@@V?$basic_string@DU?$char_traits@D@std@@V?$allocator@D@2@@std@@@std@@PEAX@std@@SAXAEAV?$allocator@U?$_Tree_node@U?$pair@$$CBW4PostCond@BT@@V?$basic_string@DU?$char_traits@D@std@@V?$allocator@D@2@@std@@@std@@PEAX@std@@@1@PEAU01@@Z
	??$_Freenode@V?$allocator@U?$_Tree_node@U?$pair@$$CBW4PreCond@BT@@V?$basic_string@DU?$char_traits@D@std@@V?$allocator@D@2@@std@@@std@@PEAX@std@@@std@@@?$_Tree_node@U?$pair@$$CBW4PreCond@BT@@V?$basic_string@DU?$char_traits@D@std@@V?$allocator@D@2@@std@@@std@@PEAX@std@@SAXAEAV?$allocator@U?$_Tree_node@U?$pair@$$CBW4PreCond@BT@@V?$basic_string@DU?$char_traits@D@std@@V?$allocator@D@2@@std@@@std@@PEAX@std@@@1@PEAU01@@Z
	??$_Get_size_of_n@$00@std@@YA_K_K@Z
	??$_Get_size_of_n@$07@std@@YA_K_K@Z
	??$_Get_size_of_n@$0EI@@std@@YA_K_K@Z
	??$_Get_size_of_n@$0FA@@std@@YA_K_K@Z
	??$_Get_size_of_n@$0MA@@std@@YA_K_K@Z
	??$_Get_unwrapped@AEAPEAD@std@@YA?A_TAEAPEAD@Z
	??$_Get_unwrapped@AEAPEBU?$pair@$$CBV?$basic_string@DU?$char_traits@D@std@@V?$allocator@D@2@@std@@VPortInfo@BT@@@std@@@std@@YA?A_TAEAPEBU?$pair@$$CBV?$basic_string@DU?$char_traits@D@std@@V?$allocator@D@2@@std@@VPortInfo@BT@@@0@@Z
	??$_Get_unwrapped@AEAV?$_List_unchecked_const_iterator@V?$_List_val@U?$_List_simple_types@U?$pair@$$CBV?$basic_string@DU?$char_traits@D@std@@V?$allocator@D@2@@std@@VPortInfo@BT@@@std@@@std@@@std@@U_Iterator_base0@2@@std@@@std@@YA?A_TAEAV?$_List_unchecked_const_iterator@V?$_List_val@U?$_List_simple_types@U?$pair@$$CBV?$basic_string@DU?$char_traits@D@std@@V?$allocator@D@2@@std@@VPortInfo@BT@@@std@@@std@@@std@@U_Iterator_base0@2@@0@@Z
	??$_Get_unwrapped@AEBQEAV?$_List_unchecked_iterator@V?$_List_val@U?$_List_simple_types@U?$pair@$$CBV?$basic_string@DU?$char_traits@D@std@@V?$allocator@D@2@@std@@V12@@std@@@std@@@std@@@std@@@std@@YA?A_TAEBQEAV?$_List_unchecked_iterator@V?$_List_val@U?$_List_simple_types@U?$pair@$$CBV?$basic_string@DU?$char_traits@D@std@@V?$allocator@D@2@@std@@V12@@std@@@std@@@std@@@0@@Z
	??$_Get_unwrapped@AEBQEAV?$_List_unchecked_iterator@V?$_List_val@U?$_List_simple_types@U?$pair@$$CBV?$basic_string@DU?$char_traits@D@std@@V?$allocator@D@2@@std@@VPortInfo@BT@@@std@@@std@@@std@@@std@@@std@@YA?A_TAEBQEAV?$_List_unchecked_iterator@V?$_List_val@U?$_List_simple_types@U?$pair@$$CBV?$basic_string@DU?$char_traits@D@std@@V?$allocator@D@2@@std@@VPortInfo@BT@@@std@@@std@@@std@@@0@@Z
	??$_Hash_array_representation@D@std@@YA_KQEBD_K@Z
	??$_Insert_string@DU?$char_traits@D@std@@_K@std@@YAAEAV?$basic_ostream@DU?$char_traits@D@std@@@0@AEAV10@QEBD_K@Z
	??$_Integral_to_string@D_J@std@@YA?AV?$basic_string@DU?$char_traits@D@std@@V?$allocator@D@2@@0@_J@Z
	??$_Kfn@$$CBV?$basic_string@DU?$char_traits@D@std@@V?$allocator@D@2@@std@@UEntry@Blackboard@BT@@@?$_Umap_traits@V?$basic_string@DU?$char_traits@D@std@@V?$allocator@D@2@@std@@UEntry@Blackboard@BT@@V?$_Uhash_compare@V?$basic_string@DU?$char_traits@D@std@@V?$allocator@D@2@@std@@U?$hash@V?$basic_string@DU?$char_traits@D@std@@V?$allocator@D@2@@std@@@2@U?$equal_to@V?$basic_string@DU?$char_traits@D@std@@V?$allocator@D@2@@std@@@2@@2@V?$allocator@U?$pair@$$CBV?$basic_string@DU?$char_traits@D@std@@V?$allocator@D@2@@std@@UEntry@Blackboard@BT@@@std@@@2@$0A@@std@@SAAEBV?$basic_string@DU?$char_traits@D@std@@V?$allocator@D@2@@1@AEBU?$pair@$$CBV?$basic_string@DU?$char_traits@D@std@@V?$allocator@D@2@@std@@UEntry@Blackboard@BT@@@1@@Z
	??$_Kfn@$$CBV?$basic_string@DU?$char_traits@D@std@@V?$allocator@D@2@@std@@V12@@?$_Umap_traits@V?$basic_string@DU?$char_traits@D@std@@V?$allocator@D@2@@std@@V12@V?$_Uhash_compare@V?$basic_string@DU?$char_traits@D@std@@V?$allocator@D@2@@std@@U?$hash@V?$basic_string@DU?$char_traits@D@std@@V?$allocator@D@2@@std@@@2@U?$equal_to@V?$basic_string@DU?$char_traits@D@std@@V?$allocator@D@2@@std@@@2@@2@V?$allocator@U?$pair@$$CBV?$basic_string@DU?$char_traits@D@std@@V?$allocator@D@2@@std@@V12@@std@@@2@$0A@@std@@SAAEBV?$basic_string@DU?$char_traits@D@std@@V?$allocator@D@2@@1@AEBU?$pair@$$CBV?$basic_string@DU?$char_traits@D@std@@V?$allocator@D@2@@std@@V12@@1@@Z
	??$_Kfn@$$CBV?$basic_string@DU?$char_traits@D@std@@V?$allocator@D@2@@std@@VPortInfo@BT@@@?$_Umap_traits@V?$basic_string@DU?$char_traits@D@std@@V?$allocator@D@2@@std@@VPortInfo@BT@@V?$_Uhash_compare@V?$basic_string@DU?$char_traits@D@std@@V?$allocator@D@2@@std@@U?$hash@V?$basic_string@DU?$char_traits@D@std@@V?$allocator@D@2@@std@@@2@U?$equal_to@V?$basic_string@DU?$char_traits@D@std@@V?$allocator@D@2@@std@@@2@@2@V?$allocator@U?$pair@$$CBV?$basic_string@DU?$char_traits@D@std@@V?$allocator@D@2@@std@@VPortInfo@BT@@@std@@@2@$0A@@std@@SAAEBV?$basic_string@DU?$char_traits@D@std@@V?$allocator@D@2@@1@AEBU?$pair@$$CBV?$basic_string@DU?$char_traits@D@std@@V?$allocator@D@2@@std@@VPortInfo@BT@@@1@@Z
	??$_Move_construct_from@VBlackboard@BT@@@?$_Ptr_base@VBlackboard@BT@@@std@@IEAAX$$QEAV01@@Z
	??$_Pocca@V?$allocator@D@std@@@std@@YAXAEAV?$allocator@D@0@AEBV10@@Z
	??$_Pocca@V?$allocator@U?$_List_node@U?$pair@$$CBV?$basic_string@DU?$char_traits@D@std@@V?$allocator@D@2@@std@@V12@@std@@PEAX@std@@@std@@@std@@YAXAEAV?$allocator@U?$_List_node@U?$pair@$$CBV?$basic_string@DU?$char_traits@D@std@@V?$allocator@D@2@@std@@V12@@std@@PEAX@std@@@0@AEBV10@@Z
	??$_Pocca@V?$allocator@U?$_Tree_node@U?$pair@$$CBW4PostCond@BT@@V?$basic_string@DU?$char_traits@D@std@@V?$allocator@D@2@@std@@@std@@PEAX@std@@@std@@@std@@YAXAEAV?$allocator@U?$_Tree_node@U?$pair@$$CBW4PostCond@BT@@V?$basic_string@DU?$char_traits@D@std@@V?$allocator@D@2@@std@@@std@@PEAX@std@@@0@AEBV10@@Z
	??$_Pocca@V?$allocator@U?$_Tree_node@U?$pair@$$CBW4PreCond@BT@@V?$basic_string@DU?$char_traits@D@std@@V?$allocator@D@2@@std@@@std@@PEAX@std@@@std@@@std@@YAXAEAV?$allocator@U?$_Tree_node@U?$pair@$$CBW4PreCond@BT@@V?$basic_string@DU?$char_traits@D@std@@V?$allocator@D@2@@std@@@std@@PEAX@std@@@0@AEBV10@@Z
	??$_Pocca@V?$allocator@V?$_List_unchecked_iterator@V?$_List_val@U?$_List_simple_types@U?$pair@$$CBV?$basic_string@DU?$char_traits@D@std@@V?$allocator@D@2@@std@@V12@@std@@@std@@@std@@@std@@@std@@@std@@YAXAEAV?$allocator@V?$_List_unchecked_iterator@V?$_List_val@U?$_List_simple_types@U?$pair@$$CBV?$basic_string@DU?$char_traits@D@std@@V?$allocator@D@2@@std@@V12@@std@@@std@@@std@@@std@@@0@AEBV10@@Z
	??$_Pocma@V?$allocator@D@std@@@std@@YAXAEAV?$allocator@D@0@0@Z
	??$_Reallocate_for@V<lambda_138c3d7c38c85abb84c7fc7bfe5747b7>@@D@?$basic_string@DU?$char_traits@D@std@@V?$allocator@D@2@@std@@AEAAAEAV01@_KV<lambda_138c3d7c38c85abb84c7fc7bfe5747b7>@@D@Z
	??$_Reallocate_for@V<lambda_66f57f934f28d61049862f64df852ff0>@@PEBD@?$basic_string@DU?$char_traits@D@std@@V?$allocator@D@2@@std@@AEAAAEAV01@_KV<lambda_66f57f934f28d61049862f64df852ff0>@@PEBD@Z
	??$_Reallocate_grow_by@V<lambda_65e615be2a453ca0576c979606f46740>@@PEBD_K@?$basic_string@DU?$char_traits@D@std@@V?$allocator@D@2@@std@@AEAAAEAV01@_KV<lambda_65e615be2a453ca0576c979606f46740>@@PEBD_K@Z
	??$_Reallocate_grow_by@V<lambda_9013ee9e23efe4882b67eff5b0ecf103>@@$$V@?$basic_string@DU?$char_traits@D@std@@V?$allocator@D@2@@std@@AEAAAEAV01@_KV<lambda_9013ee9e23efe4882b67eff5b0ecf103>@@@Z
	??$_Reset@V<lambda_57296cd0c6c71135b50e4592291d978e>@@@?$_Func_class@VAny@BT@@V?$basic_string_view@DU?$char_traits@D@std@@@std@@@std@@IEAAX$$QEAV<lambda_57296cd0c6c71135b50e4592291d978e>@@@Z
	??$_Reset@V<lambda_a95bbca0faf915955c95630ee1c00895>@@@?$_Func_class@V?$unique_ptr@VTreeNode@BT@@U?$default_delete@VTreeNode@BT@@@std@@@std@@AEBV?$basic_string@DU?$char_traits@D@std@@V?$allocator@D@2@@2@AEBUNodeConfig@BT@@@std@@IEAAX$$QEAV<lambda_a95bbca0faf915955c95630ee1c00895>@@@Z
	??$_Reset@V<lambda_b01c296c30d9c3eb21471946df8728d5>@@@?$_Func_class@V?$unique_ptr@VTreeNode@BT@@U?$default_delete@VTreeNode@BT@@@std@@@std@@AEBV?$basic_string@DU?$char_traits@D@std@@V?$allocator@D@2@@2@AEBUNodeConfig@BT@@@std@@IEAAX$$QEAV<lambda_b01c296c30d9c3eb21471946df8728d5>@@@Z
	??$_Reset@V?$_Binder@U_Unforced@std@@A6A?AW4NodeStatus@BT@@XZ$$V@std@@@?$_Func_class@W4NodeStatus@BT@@AEAVTreeNode@2@@std@@IEAAX$$QEAV?$_Binder@U_Unforced@std@@A6A?AW4NodeStatus@BT@@XZ$$V@1@@Z
	??$_Reset@V?$_Binder@U_Unforced@std@@P8GripperInterface@DummyNodes@@EAA?AW4NodeStatus@BT@@XZPEAV34@@std@@@?$_Func_class@W4NodeStatus@BT@@AEAVTreeNode@2@@std@@IEAAX$$QEAV?$_Binder@U_Unforced@std@@P8GripperInterface@DummyNodes@@EAA?AW4NodeStatus@BT@@XZPEAV34@@1@@Z
	??$_Test_callable@V<lambda_57296cd0c6c71135b50e4592291d978e>@@@std@@YA_NAEBV<lambda_57296cd0c6c71135b50e4592291d978e>@@@Z
	??$_Test_callable@V<lambda_a95bbca0faf915955c95630ee1c00895>@@@std@@YA_NAEBV<lambda_a95bbca0faf915955c95630ee1c00895>@@@Z
	??$_Test_callable@V<lambda_b01c296c30d9c3eb21471946df8728d5>@@@std@@YA_NAEBV<lambda_b01c296c30d9c3eb21471946df8728d5>@@@Z
	??$_Test_callable@V?$_Binder@U_Unforced@std@@A6A?AW4NodeStatus@BT@@XZ$$V@std@@@std@@YA_NAEBV?$_Binder@U_Unforced@std@@A6A?AW4NodeStatus@BT@@XZ$$V@0@@Z
	??$_Test_callable@V?$_Binder@U_Unforced@std@@P8GripperInterface@DummyNodes@@EAA?AW4NodeStatus@BT@@XZPEAV34@@std@@@std@@YA_NAEBV?$_Binder@U_Unforced@std@@P8GripperInterface@DummyNodes@@EAA?AW4NodeStatus@BT@@XZPEAV34@@0@@Z
	??$_Traits_equal@U?$char_traits@D@std@@@std@@YA_NQEBD_K01@Z
	??$_UIntegral_to_buff@D_K@std@@YAPEADPEAD_K@Z
	??$_UIntegral_to_string@D_K@std@@YA?AV?$basic_string@DU?$char_traits@D@std@@V?$allocator@D@2@@0@_K@Z
	??$_Unfancy@D@std@@YAPEADPEAD@Z
	??$_Unfancy@V?$weak_ptr@V?$function@$$A6AXV?$time_point@Usteady_clock@chrono@std@@V?$duration@_JU?$ratio@$00$0DLJKMKAA@@std@@@23@@chrono@std@@AEBVTreeNode@BT@@W4NodeStatus@5@2@Z@std@@@std@@@std@@YAPEAV?$weak_ptr@V?$function@$$A6AXV?$time_point@Usteady_clock@chrono@std@@V?$duration@_JU?$ratio@$00$0DLJKMKAA@@std@@@23@@chrono@std@@AEBVTreeNode@BT@@W4NodeStatus@5@2@Z@std@@@0@PEAV10@@Z
	??$_Voidify_iter@PEAPEAD@std@@YAPEAXPEAPEAD@Z
	??$_Voidify_iter@PEAPEAU?$_List_node@U?$pair@$$CBV?$basic_string@DU?$char_traits@D@std@@V?$allocator@D@2@@std@@V12@@std@@PEAX@std@@@std@@YAPEAXPEAPEAU?$_List_node@U?$pair@$$CBV?$basic_string@DU?$char_traits@D@std@@V?$allocator@D@2@@std@@V12@@std@@PEAX@0@@Z
	??$_Voidify_iter@PEAPEAU?$_List_node@U?$pair@$$CBV?$basic_string@DU?$char_traits@D@std@@V?$allocator@D@2@@std@@VPortInfo@BT@@@std@@PEAX@std@@@std@@YAPEAXPEAPEAU?$_List_node@U?$pair@$$CBV?$basic_string@DU?$char_traits@D@std@@V?$allocator@D@2@@std@@VPortInfo@BT@@@std@@PEAX@0@@Z
	??$_Voidify_iter@PEAPEAU?$_Tree_node@U?$pair@$$CBW4PostCond@BT@@V?$basic_string@DU?$char_traits@D@std@@V?$allocator@D@2@@std@@@std@@PEAX@std@@@std@@YAPEAXPEAPEAU?$_Tree_node@U?$pair@$$CBW4PostCond@BT@@V?$basic_string@DU?$char_traits@D@std@@V?$allocator@D@2@@std@@@std@@PEAX@0@@Z
	??$_Voidify_iter@PEAPEAU?$_Tree_node@U?$pair@$$CBW4PreCond@BT@@V?$basic_string@DU?$char_traits@D@std@@V?$allocator@D@2@@std@@@std@@PEAX@std@@@std@@YAPEAXPEAPEAU?$_Tree_node@U?$pair@$$CBW4PreCond@BT@@V?$basic_string@DU?$char_traits@D@std@@V?$allocator@D@2@@std@@@std@@PEAX@0@@Z
	??$_Voidify_iter@PEAU?$pair@$$CBV?$basic_string@DU?$char_traits@D@std@@V?$allocator@D@2@@std@@V12@@std@@@std@@YAPEAXPEAU?$pair@$$CBV?$basic_string@DU?$char_traits@D@std@@V?$allocator@D@2@@std@@V12@@0@@Z
	??$_Voidify_iter@PEAU?$pair@$$CBV?$basic_string@DU?$char_traits@D@std@@V?$allocator@D@2@@std@@VPortInfo@BT@@@std@@@std@@YAPEAXPEAU?$pair@$$CBV?$basic_string@DU?$char_traits@D@std@@V?$allocator@D@2@@std@@VPortInfo@BT@@@0@@Z
	??$_Voidify_iter@PEAU?$pair@$$CBW4PostCond@BT@@V?$basic_string@DU?$char_traits@D@std@@V?$allocator@D@2@@std@@@std@@@std@@YAPEAXPEAU?$pair@$$CBW4PostCond@BT@@V?$basic_string@DU?$char_traits@D@std@@V?$allocator@D@2@@std@@@0@@Z
	??$_Voidify_iter@PEAU?$pair@$$CBW4PreCond@BT@@V?$basic_string@DU?$char_traits@D@std@@V?$allocator@D@2@@std@@@std@@@std@@YAPEAXPEAU?$pair@$$CBW4PreCond@BT@@V?$basic_string@DU?$char_traits@D@std@@V?$allocator@D@2@@std@@@0@@Z
	??$_Voidify_iter@PEAV?$_List_unchecked_iterator@V?$_List_val@U?$_List_simple_types@U?$pair@$$CBV?$basic_string@DU?$char_traits@D@std@@V?$allocator@D@2@@std@@V12@@std@@@std@@@std@@@std@@@std@@YAPEAXPEAV?$_List_unchecked_iterator@V?$_List_val@U?$_List_simple_types@U?$pair@$$CBV?$basic_string@DU?$char_traits@D@std@@V?$allocator@D@2@@std@@V12@@std@@@std@@@std@@@0@@Z
	??$_Voidify_iter@PEAV?$_List_unchecked_iterator@V?$_List_val@U?$_List_simple_types@U?$pair@$$CBV?$basic_string@DU?$char_traits@D@std@@V?$allocator@D@2@@std@@VPortInfo@BT@@@std@@@std@@@std@@@std@@@std@@YAPEAXPEAV?$_List_unchecked_iterator@V?$_List_val@U?$_List_simple_types@U?$pair@$$CBV?$basic_string@DU?$char_traits@D@std@@V?$allocator@D@2@@std@@VPortInfo@BT@@@std@@@std@@@std@@@0@@Z
	??$addressof@$$CBU?$pair@$$CBV?$basic_string@DU?$char_traits@D@std@@V?$allocator@D@2@@std@@V12@@std@@@std@@YAPEBU?$pair@$$CBV?$basic_string@DU?$char_traits@D@std@@V?$allocator@D@2@@std@@V12@@0@AEBU10@@Z
	??$addressof@$$CBV<lambda_57296cd0c6c71135b50e4592291d978e>@@@std@@YAPEBV<lambda_57296cd0c6c71135b50e4592291d978e>@@AEBV1@@Z
	??$addressof@$$CBV<lambda_a95bbca0faf915955c95630ee1c00895>@@@std@@YAPEBV<lambda_a95bbca0faf915955c95630ee1c00895>@@AEBV1@@Z
	??$addressof@$$CBV<lambda_b01c296c30d9c3eb21471946df8728d5>@@@std@@YAPEBV<lambda_b01c296c30d9c3eb21471946df8728d5>@@AEBV1@@Z
	??$addressof@$$CBV?$_Binder@U_Unforced@std@@A6A?AW4NodeStatus@BT@@XZ$$V@std@@@std@@YAPEBV?$_Binder@U_Unforced@std@@A6A?AW4NodeStatus@BT@@XZ$$V@0@AEBV10@@Z
	??$addressof@$$CBV?$_Binder@U_Unforced@std@@P8GripperInterface@DummyNodes@@EAA?AW4NodeStatus@BT@@XZPEAV34@@std@@@std@@YAPEBV?$_Binder@U_Unforced@std@@P8GripperInterface@DummyNodes@@EAA?AW4NodeStatus@BT@@XZPEAV34@@0@AEBV10@@Z
	??$addressof@$$CBV?$_Hash@V?$_Umap_traits@V?$basic_string@DU?$char_traits@D@std@@V?$allocator@D@2@@std@@V12@V?$_Uhash_compare@V?$basic_string@DU?$char_traits@D@std@@V?$allocator@D@2@@std@@U?$hash@V?$basic_string@DU?$char_traits@D@std@@V?$allocator@D@2@@std@@@2@U?$equal_to@V?$basic_string@DU?$char_traits@D@std@@V?$allocator@D@2@@std@@@2@@2@V?$allocator@U?$pair@$$CBV?$basic_string@DU?$char_traits@D@std@@V?$allocator@D@2@@std@@V12@@std@@@2@$0A@@std@@@std@@@std@@YAPEBV?$_Hash@V?$_Umap_traits@V?$basic_string@DU?$char_traits@D@std@@V?$allocator@D@2@@std@@V12@V?$_Uhash_compare@V?$basic_string@DU?$char_traits@D@std@@V?$allocator@D@2@@std@@U?$hash@V?$basic_string@DU?$char_traits@D@std@@V?$allocator@D@2@@std@@@2@U?$equal_to@V?$basic_string@DU?$char_traits@D@std@@V?$allocator@D@2@@std@@@2@@2@V?$allocator@U?$pair@$$CBV?$basic_string@DU?$char_traits@D@std@@V?$allocator@D@2@@std@@V12@@std@@@2@$0A@@std@@@0@AEBV10@@Z
	??$addressof@$$CBV?$_List_val@U?$_List_simple_types@U?$pair@$$CBV?$basic_string@DU?$char_traits@D@std@@V?$allocator@D@2@@std@@UEntry@Blackboard@BT@@@std@@@std@@@std@@@std@@YAPEBV?$_List_val@U?$_List_simple_types@U?$pair@$$CBV?$basic_string@DU?$char_traits@D@std@@V?$allocator@D@2@@std@@UEntry@Blackboard@BT@@@std@@@std@@@0@AEBV10@@Z
	??$addressof@$$CBV?$_List_val@U?$_List_simple_types@U?$pair@$$CBV?$basic_string@DU?$char_traits@D@std@@V?$allocator@D@2@@std@@V12@@std@@@std@@@std@@@std@@YAPEBV?$_List_val@U?$_List_simple_types@U?$pair@$$CBV?$basic_string@DU?$char_traits@D@std@@V?$allocator@D@2@@std@@V12@@std@@@std@@@0@AEBV10@@Z
	??$addressof@$$CBV?$_List_val@U?$_List_simple_types@U?$pair@$$CBV?$basic_string@DU?$char_traits@D@std@@V?$allocator@D@2@@std@@VPortInfo@BT@@@std@@@std@@@std@@@std@@YAPEBV?$_List_val@U?$_List_simple_types@U?$pair@$$CBV?$basic_string@DU?$char_traits@D@std@@V?$allocator@D@2@@std@@VPortInfo@BT@@@std@@@std@@@0@AEBV10@@Z
	??$addressof@$$CBV?$_String_val@U?$_Simple_types@D@std@@@std@@@std@@YAPEBV?$_String_val@U?$_Simple_types@D@std@@@0@AEBV10@@Z
	??$addressof@$$CBV?$_Tree@V?$_Tmap_traits@W4PostCond@BT@@V?$basic_string@DU?$char_traits@D@std@@V?$allocator@D@2@@std@@U?$less@W4PostCond@BT@@@4@V?$allocator@U?$pair@$$CBW4PostCond@BT@@V?$basic_string@DU?$char_traits@D@std@@V?$allocator@D@2@@std@@@std@@@4@$0A@@std@@@std@@@std@@YAPEBV?$_Tree@V?$_Tmap_traits@W4PostCond@BT@@V?$basic_string@DU?$char_traits@D@std@@V?$allocator@D@2@@std@@U?$less@W4PostCond@BT@@@4@V?$allocator@U?$pair@$$CBW4PostCond@BT@@V?$basic_string@DU?$char_traits@D@std@@V?$allocator@D@2@@std@@@std@@@4@$0A@@std@@@0@AEBV10@@Z
	??$addressof@$$CBV?$_Tree@V?$_Tmap_traits@W4PreCond@BT@@V?$basic_string@DU?$char_traits@D@std@@V?$allocator@D@2@@std@@U?$less@W4PreCond@BT@@@4@V?$allocator@U?$pair@$$CBW4PreCond@BT@@V?$basic_string@DU?$char_traits@D@std@@V?$allocator@D@2@@std@@@std@@@4@$0A@@std@@@std@@@std@@YAPEBV?$_Tree@V?$_Tmap_traits@W4PreCond@BT@@V?$basic_string@DU?$char_traits@D@std@@V?$allocator@D@2@@std@@U?$less@W4PreCond@BT@@@4@V?$allocator@U?$pair@$$CBW4PreCond@BT@@V?$basic_string@DU?$char_traits@D@std@@V?$allocator@D@2@@std@@@std@@@4@$0A@@std@@@0@AEBV10@@Z
	??$addressof@$$CBV?$_Tree_val@U?$_Tree_simple_types@U?$pair@$$CBW4PostCond@BT@@V?$basic_string@DU?$char_traits@D@std@@V?$allocator@D@2@@std@@@std@@@std@@@std@@@std@@YAPEBV?$_Tree_val@U?$_Tree_simple_types@U?$pair@$$CBW4PostCond@BT@@V?$basic_string@DU?$char_traits@D@std@@V?$allocator@D@2@@std@@@std@@@std@@@0@AEBV10@@Z
	??$addressof@$$CBV?$_Tree_val@U?$_Tree_simple_types@U?$pair@$$CBW4PreCond@BT@@V?$basic_string@DU?$char_traits@D@std@@V?$allocator@D@2@@std@@@std@@@std@@@std@@@std@@YAPEBV?$_Tree_val@U?$_Tree_simple_types@U?$pair@$$CBW4PreCond@BT@@V?$basic_string@DU?$char_traits@D@std@@V?$allocator@D@2@@std@@@std@@@std@@@0@AEBV10@@Z
	??$addressof@$$CBV?$basic_string@DU?$char_traits@D@std@@V?$allocator@D@2@@std@@@std@@YAPEBV?$basic_string@DU?$char_traits@D@std@@V?$allocator@D@2@@0@AEBV10@@Z
	??$addressof@PEAD@std@@YAPEAPEADAEAPEAD@Z
	??$addressof@PEAU?$_List_node@U?$pair@$$CBV?$basic_string@DU?$char_traits@D@std@@V?$allocator@D@2@@std@@V12@@std@@PEAX@std@@@std@@YAPEAPEAU?$_List_node@U?$pair@$$CBV?$basic_string@DU?$char_traits@D@std@@V?$allocator@D@2@@std@@V12@@std@@PEAX@0@AEAPEAU10@@Z
	??$addressof@PEAU?$_List_node@U?$pair@$$CBV?$basic_string@DU?$char_traits@D@std@@V?$allocator@D@2@@std@@VPortInfo@BT@@@std@@PEAX@std@@@std@@YAPEAPEAU?$_List_node@U?$pair@$$CBV?$basic_string@DU?$char_traits@D@std@@V?$allocator@D@2@@std@@VPortInfo@BT@@@std@@PEAX@0@AEAPEAU10@@Z
	??$addressof@PEAU?$_Tree_node@U?$pair@$$CBW4PostCond@BT@@V?$basic_string@DU?$char_traits@D@std@@V?$allocator@D@2@@std@@@std@@PEAX@std@@@std@@YAPEAPEAU?$_Tree_node@U?$pair@$$CBW4PostCond@BT@@V?$basic_string@DU?$char_traits@D@std@@V?$allocator@D@2@@std@@@std@@PEAX@0@AEAPEAU10@@Z
	??$addressof@PEAU?$_Tree_node@U?$pair@$$CBW4PreCond@BT@@V?$basic_string@DU?$char_traits@D@std@@V?$allocator@D@2@@std@@@std@@PEAX@std@@@std@@YAPEAPEAU?$_Tree_node@U?$pair@$$CBW4PreCond@BT@@V?$basic_string@DU?$char_traits@D@std@@V?$allocator@D@2@@std@@@std@@PEAX@0@AEAPEAU10@@Z
	??$addressof@U?$pair@$$CBV?$basic_string@DU?$char_traits@D@std@@V?$allocator@D@2@@std@@UEntry@Blackboard@BT@@@std@@@std@@YAPEAU?$pair@$$CBV?$basic_string@DU?$char_traits@D@std@@V?$allocator@D@2@@std@@UEntry@Blackboard@BT@@@0@AEAU10@@Z
	??$addressof@U?$pair@$$CBV?$basic_string@DU?$char_traits@D@std@@V?$allocator@D@2@@std@@V12@@std@@@std@@YAPEAU?$pair@$$CBV?$basic_string@DU?$char_traits@D@std@@V?$allocator@D@2@@std@@V12@@0@AEAU10@@Z
	??$addressof@U?$pair@$$CBV?$basic_string@DU?$char_traits@D@std@@V?$allocator@D@2@@std@@VPortInfo@BT@@@std@@@std@@YAPEAU?$pair@$$CBV?$basic_string@DU?$char_traits@D@std@@V?$allocator@D@2@@std@@VPortInfo@BT@@@0@AEAU10@@Z
	??$addressof@U?$pair@$$CBW4PostCond@BT@@V?$basic_string@DU?$char_traits@D@std@@V?$allocator@D@2@@std@@@std@@@std@@YAPEAU?$pair@$$CBW4PostCond@BT@@V?$basic_string@DU?$char_traits@D@std@@V?$allocator@D@2@@std@@@0@AEAU10@@Z
	??$addressof@U?$pair@$$CBW4PreCond@BT@@V?$basic_string@DU?$char_traits@D@std@@V?$allocator@D@2@@std@@@std@@@std@@YAPEAU?$pair@$$CBW4PreCond@BT@@V?$basic_string@DU?$char_traits@D@std@@V?$allocator@D@2@@std@@@0@AEAU10@@Z
	??$addressof@V?$_List_unchecked_iterator@V?$_List_val@U?$_List_simple_types@U?$pair@$$CBV?$basic_string@DU?$char_traits@D@std@@V?$allocator@D@2@@std@@V12@@std@@@std@@@std@@@std@@@std@@YAPEAV?$_List_unchecked_iterator@V?$_List_val@U?$_List_simple_types@U?$pair@$$CBV?$basic_string@DU?$char_traits@D@std@@V?$allocator@D@2@@std@@V12@@std@@@std@@@std@@@0@AEAV10@@Z
	??$addressof@V?$_List_unchecked_iterator@V?$_List_val@U?$_List_simple_types@U?$pair@$$CBV?$basic_string@DU?$char_traits@D@std@@V?$allocator@D@2@@std@@VPortInfo@BT@@@std@@@std@@@std@@@std@@@std@@YAPEAV?$_List_unchecked_iterator@V?$_List_val@U?$_List_simple_types@U?$pair@$$CBV?$basic_string@DU?$char_traits@D@std@@V?$allocator@D@2@@std@@VPortInfo@BT@@@std@@@std@@@std@@@0@AEAV10@@Z
	??$addressof@V?$_List_val@U?$_List_simple_types@U?$pair@$$CBV?$basic_string@DU?$char_traits@D@std@@V?$allocator@D@2@@std@@UEntry@Blackboard@BT@@@std@@@std@@@std@@@std@@YAPEAV?$_List_val@U?$_List_simple_types@U?$pair@$$CBV?$basic_string@DU?$char_traits@D@std@@V?$allocator@D@2@@std@@UEntry@Blackboard@BT@@@std@@@std@@@0@AEAV10@@Z
	??$addressof@V?$_List_val@U?$_List_simple_types@U?$pair@$$CBV?$basic_string@DU?$char_traits@D@std@@V?$allocator@D@2@@std@@V12@@std@@@std@@@std@@@std@@YAPEAV?$_List_val@U?$_List_simple_types@U?$pair@$$CBV?$basic_string@DU?$char_traits@D@std@@V?$allocator@D@2@@std@@V12@@std@@@std@@@0@AEAV10@@Z
	??$addressof@V?$_String_val@U?$_Simple_types@D@std@@@std@@@std@@YAPEAV?$_String_val@U?$_Simple_types@D@std@@@0@AEAV10@@Z
	??$addressof@V?$_Tree_val@U?$_Tree_simple_types@U?$pair@$$CBW4PostCond@BT@@V?$basic_string@DU?$char_traits@D@std@@V?$allocator@D@2@@std@@@std@@@std@@@std@@@std@@YAPEAV?$_Tree_val@U?$_Tree_simple_types@U?$pair@$$CBW4PostCond@BT@@V?$basic_string@DU?$char_traits@D@std@@V?$allocator@D@2@@std@@@std@@@std@@@0@AEAV10@@Z
	??$addressof@V?$_Tree_val@U?$_Tree_simple_types@U?$pair@$$CBW4PreCond@BT@@V?$basic_string@DU?$char_traits@D@std@@V?$allocator@D@2@@std@@@std@@@std@@@std@@@std@@YAPEAV?$_Tree_val@U?$_Tree_simple_types@U?$pair@$$CBW4PreCond@BT@@V?$basic_string@DU?$char_traits@D@std@@V?$allocator@D@2@@std@@@std@@@std@@@0@AEAV10@@Z
	??$addressof@V?$basic_string@DU?$char_traits@D@std@@V?$allocator@D@2@@std@@@std@@YAPEAV?$basic_string@DU?$char_traits@D@std@@V?$allocator@D@2@@0@AEAV10@@Z
	??$addressof@V?$function@$$A6A?AVAny@BT@@V?$basic_string_view@DU?$char_traits@D@std@@@std@@@Z@std@@@std@@YAPEAV?$function@$$A6A?AVAny@BT@@V?$basic_string_view@DU?$char_traits@D@std@@@std@@@Z@0@AEAV10@@Z
	??$addressof@Vmutex@std@@@std@@YAPEAVmutex@0@AEAV10@@Z
	??$any_cast@$$CBN@linb@@YAPEBNPEBVany@0@@Z
	??$any_cast@$$CBV?$basic_string@DU?$char_traits@D@std@@V?$allocator@D@2@@std@@@linb@@YAPEBV?$basic_string@DU?$char_traits@D@std@@V?$allocator@D@2@@std@@PEBVany@0@@Z
	??$any_cast@$$CBVSimpleString@SafeAny@@@linb@@YAPEBVSimpleString@SafeAny@@PEBVany@0@@Z
	??$any_cast@$$CB_J@linb@@YAPEB_JPEBVany@0@@Z
	??$any_cast@$$CB_K@linb@@YAPEB_KPEBVany@0@@Z
	??$any_cast@N@linb@@YANAEBVany@0@@Z
	??$any_cast@V?$basic_string@DU?$char_traits@D@std@@V?$allocator@D@2@@std@@@linb@@YA?AV?$basic_string@DU?$char_traits@D@std@@V?$allocator@D@2@@std@@AEBVany@0@@Z
	??$any_cast@VSimpleString@SafeAny@@@linb@@YA?AVSimpleString@SafeAny@@AEBVany@0@@Z
	??$any_cast@_J@linb@@YA_JAEBVany@0@@Z
	??$any_cast@_K@linb@@YA_KAEBVany@0@@Z
	??$assign@V?$basic_string_view@DU?$char_traits@D@std@@@std@@$0A@@?$basic_string@DU?$char_traits@D@std@@V?$allocator@D@2@@std@@QEAAAEAV01@AEBV?$basic_string_view@DU?$char_traits@D@std@@@1@@Z
	??$bind@A6A?AW4NodeStatus@BT@@XZ$$V@std@@YA?AV?$_Binder@U_Unforced@std@@A6A?AW4NodeStatus@BT@@XZ$$V@0@A6A?AW4NodeStatus@BT@@XZ@Z
	??$bind@P8GripperInterface@DummyNodes@@EAA?AW4NodeStatus@BT@@XZPEAV12@@std@@YA?AV?$_Binder@U_Unforced@std@@P8GripperInterface@DummyNodes@@EAA?AW4NodeStatus@BT@@XZPEAV34@@0@$$QEAP8GripperInterface@DummyNodes@@EAA?AW4NodeStatus@BT@@XZ$$QEAPEAV23@@Z
	??$cast@$$CBN@any@linb@@IEBAPEBNXZ
	??$cast@$$CBV?$basic_string@DU?$char_traits@D@std@@V?$allocator@D@2@@std@@@any@linb@@IEBAPEBV?$basic_string@DU?$char_traits@D@std@@V?$allocator@D@2@@std@@XZ
	??$cast@$$CBVSimpleString@SafeAny@@@any@linb@@IEBAPEBVSimpleString@SafeAny@@XZ
	??$cast@$$CB_J@any@linb@@IEBAPEB_JXZ
	??$cast@$$CB_K@any@linb@@IEBAPEB_KXZ
	??$cast@V?$basic_string@DU?$char_traits@D@std@@V?$allocator@D@2@@std@@@Any@BT@@QEBA?AV?$basic_string@DU?$char_traits@D@std@@V?$allocator@D@2@@std@@XZ
	??$construct@U?$pair@$$CBV?$basic_string@DU?$char_traits@D@std@@V?$allocator@D@2@@std@@V12@@std@@AEBU12@@?$_Default_allocator_traits@V?$allocator@U?$_List_node@U?$pair@$$CBV?$basic_string@DU?$char_traits@D@std@@V?$allocator@D@2@@std@@V12@@std@@PEAX@std@@@std@@@std@@SAXAEAV?$allocator@U?$_List_node@U?$pair@$$CBV?$basic_string@DU?$char_traits@D@std@@V?$allocator@D@2@@std@@V12@@std@@PEAX@std@@@1@QEAU?$pair@$$CBV?$basic_string@DU?$char_traits@D@std@@V?$allocator@D@2@@std@@V12@@1@AEBU31@@Z
	??$construct@U?$pair@$$CBV?$basic_string@DU?$char_traits@D@std@@V?$allocator@D@2@@std@@VPortInfo@BT@@@std@@AEBU12@@?$_Default_allocator_traits@V?$allocator@U?$_List_node@U?$pair@$$CBV?$basic_string@DU?$char_traits@D@std@@V?$allocator@D@2@@std@@VPortInfo@BT@@@std@@PEAX@std@@@std@@@std@@SAXAEAV?$allocator@U?$_List_node@U?$pair@$$CBV?$basic_string@DU?$char_traits@D@std@@V?$allocator@D@2@@std@@VPortInfo@BT@@@std@@PEAX@std@@@1@QEAU?$pair@$$CBV?$basic_string@DU?$char_traits@D@std@@V?$allocator@D@2@@std@@VPortInfo@BT@@@1@AEBU31@@Z
	??$construct@U?$pair@$$CBW4PostCond@BT@@V?$basic_string@DU?$char_traits@D@std@@V?$allocator@D@2@@std@@@std@@AEAU12@@?$_Default_allocator_traits@V?$allocator@U?$_Tree_node@U?$pair@$$CBW4PostCond@BT@@V?$basic_string@DU?$char_traits@D@std@@V?$allocator@D@2@@std@@@std@@PEAX@std@@@std@@@std@@SAXAEAV?$allocator@U?$_Tree_node@U?$pair@$$CBW4PostCond@BT@@V?$basic_string@DU?$char_traits@D@std@@V?$allocator@D@2@@std@@@std@@PEAX@std@@@1@QEAU?$pair@$$CBW4PostCond@BT@@V?$basic_string@DU?$char_traits@D@std@@V?$allocator@D@2@@std@@@1@AEAU31@@Z
	??$construct@U?$pair@$$CBW4PreCond@BT@@V?$basic_string@DU?$char_traits@D@std@@V?$allocator@D@2@@std@@@std@@AEAU12@@?$_Default_allocator_traits@V?$allocator@U?$_Tree_node@U?$pair@$$CBW4PreCond@BT@@V?$basic_string@DU?$char_traits@D@std@@V?$allocator@D@2@@std@@@std@@PEAX@std@@@std@@@std@@SAXAEAV?$allocator@U?$_Tree_node@U?$pair@$$CBW4PreCond@BT@@V?$basic_string@DU?$char_traits@D@std@@V?$allocator@D@2@@std@@@std@@PEAX@std@@@1@QEAU?$pair@$$CBW4PreCond@BT@@V?$basic_string@DU?$char_traits@D@std@@V?$allocator@D@2@@std@@@1@AEAU31@@Z
	??$construct@VSimpleString@SafeAny@@@any@linb@@AEAAX$$QEAVSimpleString@SafeAny@@@Z
	??$convert@V?$basic_string@DU?$char_traits@D@std@@V?$allocator@D@2@@std@@@Any@BT@@AEBA?AV?$expected@V?$basic_string@DU?$char_traits@D@std@@V?$allocator@D@2@@std@@V12@@expected_lite@nonstd@@PEAX@Z
	??$destroy@U?$pair@$$CBV?$basic_string@DU?$char_traits@D@std@@V?$allocator@D@2@@std@@V12@@std@@@?$_Default_allocator_traits@V?$allocator@U?$_List_node@U?$pair@$$CBV?$basic_string@DU?$char_traits@D@std@@V?$allocator@D@2@@std@@V12@@std@@PEAX@std@@@std@@@std@@SAXAEAV?$allocator@U?$_List_node@U?$pair@$$CBV?$basic_string@DU?$char_traits@D@std@@V?$allocator@D@2@@std@@V12@@std@@PEAX@std@@@1@QEAU?$pair@$$CBV?$basic_string@DU?$char_traits@D@std@@V?$allocator@D@2@@std@@V12@@1@@Z
	??$destroy@U?$pair@$$CBV?$basic_string@DU?$char_traits@D@std@@V?$allocator@D@2@@std@@VPortInfo@BT@@@std@@@?$_Default_allocator_traits@V?$allocator@U?$_List_node@U?$pair@$$CBV?$basic_string@DU?$char_traits@D@std@@V?$allocator@D@2@@std@@VPortInfo@BT@@@std@@PEAX@std@@@std@@@std@@SAXAEAV?$allocator@U?$_List_node@U?$pair@$$CBV?$basic_string@DU?$char_traits@D@std@@V?$allocator@D@2@@std@@VPortInfo@BT@@@std@@PEAX@std@@@1@QEAU?$pair@$$CBV?$basic_string@DU?$char_traits@D@std@@V?$allocator@D@2@@std@@VPortInfo@BT@@@1@@Z
	??$destroy@U?$pair@$$CBW4PostCond@BT@@V?$basic_string@DU?$char_traits@D@std@@V?$allocator@D@2@@std@@@std@@@?$_Default_allocator_traits@V?$allocator@U?$_Tree_node@U?$pair@$$CBW4PostCond@BT@@V?$basic_string@DU?$char_traits@D@std@@V?$allocator@D@2@@std@@@std@@PEAX@std@@@std@@@std@@SAXAEAV?$allocator@U?$_Tree_node@U?$pair@$$CBW4PostCond@BT@@V?$basic_string@DU?$char_traits@D@std@@V?$allocator@D@2@@std@@@std@@PEAX@std@@@1@QEAU?$pair@$$CBW4PostCond@BT@@V?$basic_string@DU?$char_traits@D@std@@V?$allocator@D@2@@std@@@1@@Z
	??$destroy@U?$pair@$$CBW4PreCond@BT@@V?$basic_string@DU?$char_traits@D@std@@V?$allocator@D@2@@std@@@std@@@?$_Default_allocator_traits@V?$allocator@U?$_Tree_node@U?$pair@$$CBW4PreCond@BT@@V?$basic_string@DU?$char_traits@D@std@@V?$allocator@D@2@@std@@@std@@PEAX@std@@@std@@@std@@SAXAEAV?$allocator@U?$_Tree_node@U?$pair@$$CBW4PreCond@BT@@V?$basic_string@DU?$char_traits@D@std@@V?$allocator@D@2@@std@@@std@@PEAX@std@@@1@QEAU?$pair@$$CBW4PreCond@BT@@V?$basic_string@DU?$char_traits@D@std@@V?$allocator@D@2@@std@@@1@@Z
	??$destroy@V?$weak_ptr@V?$function@$$A6AXV?$time_point@Usteady_clock@chrono@std@@V?$duration@_JU?$ratio@$00$0DLJKMKAA@@std@@@23@@chrono@std@@AEBVTreeNode@BT@@W4NodeStatus@5@2@Z@std@@@std@@@?$_Default_allocator_traits@V?$allocator@V?$weak_ptr@V?$function@$$A6AXV?$time_point@Usteady_clock@chrono@std@@V?$duration@_JU?$ratio@$00$0DLJKMKAA@@std@@@23@@chrono@std@@AEBVTreeNode@BT@@W4NodeStatus@5@2@Z@std@@@std@@@std@@@std@@SAXAEAV?$allocator@V?$weak_ptr@V?$function@$$A6AXV?$time_point@Usteady_clock@chrono@std@@V?$duration@_JU?$ratio@$00$0DLJKMKAA@@std@@@23@@chrono@std@@AEBVTreeNode@BT@@W4NodeStatus@5@2@Z@std@@@std@@@1@QEAV?$weak_ptr@V?$function@$$A6AXV?$time_point@Usteady_clock@chrono@std@@V?$duration@_JU?$ratio@$00$0DLJKMKAA@@std@@@23@@chrono@std@@AEBVTreeNode@BT@@W4NodeStatus@5@2@Z@std@@@1@@Z
	??$do_construct@VSimpleString@SafeAny@@V12@@any@linb@@AEAAX$$QEAVSimpleString@SafeAny@@@Z
	??$emplace@AEBU?$pair@$$CBV?$basic_string@DU?$char_traits@D@std@@V?$allocator@D@2@@std@@VPortInfo@BT@@@std@@@?$_Hash@V?$_Umap_traits@V?$basic_string@DU?$char_traits@D@std@@V?$allocator@D@2@@std@@VPortInfo@BT@@V?$_Uhash_compare@V?$basic_string@DU?$char_traits@D@std@@V?$allocator@D@2@@std@@U?$hash@V?$basic_string@DU?$char_traits@D@std@@V?$allocator@D@2@@std@@@2@U?$equal_to@V?$basic_string@DU?$char_traits@D@std@@V?$allocator@D@2@@std@@@2@@2@V?$allocator@U?$pair@$$CBV?$basic_string@DU?$char_traits@D@std@@V?$allocator@D@2@@std@@VPortInfo@BT@@@std@@@2@$0A@@std@@@std@@QEAA?AU?$pair@V?$_List_iterator@V?$_List_val@U?$_List_simple_types@U?$pair@$$CBV?$basic_string@DU?$char_traits@D@std@@V?$allocator@D@2@@std@@VPortInfo@BT@@@std@@@std@@@std@@@std@@_N@1@AEBU?$pair@$$CBV?$basic_string@DU?$char_traits@D@std@@V?$allocator@D@2@@std@@VPortInfo@BT@@@1@@Z
	??$end@D$0BF@@std@@YAPEADAEAY0BF@D@Z
	??$endl@DU?$char_traits@D@std@@@std@@YAAEAV?$basic_ostream@DU?$char_traits@D@std@@@0@AEAV10@@Z
	??$errorMsg@V?$basic_string@DU?$char_traits@D@std@@V?$allocator@D@2@@std@@@Any@BT@@AEBA?AV?$basic_string@DU?$char_traits@D@std@@V?$allocator@D@2@@std@@XZ
	??$exchange@PEAU?$_List_node@U?$pair@$$CBV?$basic_string@DU?$char_traits@D@std@@V?$allocator@D@2@@std@@V12@@std@@PEAX@std@@AEAPEAU12@@std@@YAPEAU?$_List_node@U?$pair@$$CBV?$basic_string@DU?$char_traits@D@std@@V?$allocator@D@2@@std@@V12@@std@@PEAX@0@AEAPEAU10@0@Z
	??$exchange@PEAU?$_List_node@U?$pair@$$CBV?$basic_string@DU?$char_traits@D@std@@V?$allocator@D@2@@std@@V12@@std@@PEAX@std@@PEAU12@@std@@YAPEAU?$_List_node@U?$pair@$$CBV?$basic_string@DU?$char_traits@D@std@@V?$allocator@D@2@@std@@V12@@std@@PEAX@0@AEAPEAU10@$$QEAPEAU10@@Z
	??$exchange@PEAU?$_List_node@U?$pair@$$CBV?$basic_string@DU?$char_traits@D@std@@V?$allocator@D@2@@std@@VPortInfo@BT@@@std@@PEAX@std@@$$T@std@@YAPEAU?$_List_node@U?$pair@$$CBV?$basic_string@DU?$char_traits@D@std@@V?$allocator@D@2@@std@@VPortInfo@BT@@@std@@PEAX@0@AEAPEAU10@$$QEA$$T@Z
	??$exchange@PEAU?$_Tree_node@U?$pair@$$CBW4PostCond@BT@@V?$basic_string@DU?$char_traits@D@std@@V?$allocator@D@2@@std@@@std@@PEAX@std@@$$T@std@@YAPEAU?$_Tree_node@U?$pair@$$CBW4PostCond@BT@@V?$basic_string@DU?$char_traits@D@std@@V?$allocator@D@2@@std@@@std@@PEAX@0@AEAPEAU10@$$QEA$$T@Z
	??$exchange@PEAU?$_Tree_node@U?$pair@$$CBW4PostCond@BT@@V?$basic_string@DU?$char_traits@D@std@@V?$allocator@D@2@@std@@@std@@PEAX@std@@AEAPEAU12@@std@@YAPEAU?$_Tree_node@U?$pair@$$CBW4PostCond@BT@@V?$basic_string@DU?$char_traits@D@std@@V?$allocator@D@2@@std@@@std@@PEAX@0@AEAPEAU10@0@Z
	??$exchange@PEAU?$_Tree_node@U?$pair@$$CBW4PreCond@BT@@V?$basic_string@DU?$char_traits@D@std@@V?$allocator@D@2@@std@@@std@@PEAX@std@@$$T@std@@YAPEAU?$_Tree_node@U?$pair@$$CBW4PreCond@BT@@V?$basic_string@DU?$char_traits@D@std@@V?$allocator@D@2@@std@@@std@@PEAX@0@AEAPEAU10@$$QEA$$T@Z
	??$exchange@PEAU?$_Tree_node@U?$pair@$$CBW4PreCond@BT@@V?$basic_string@DU?$char_traits@D@std@@V?$allocator@D@2@@std@@@std@@PEAX@std@@AEAPEAU12@@std@@YAPEAU?$_Tree_node@U?$pair@$$CBW4PreCond@BT@@V?$basic_string@DU?$char_traits@D@std@@V?$allocator@D@2@@std@@@std@@PEAX@0@AEAPEAU10@0@Z
	??$exchange@PEAVApproachObject@DummyNodes@@$$T@std@@YAPEAVApproachObject@DummyNodes@@AEAPEAV12@$$QEA$$T@Z
	??$exchange@PEAVSaySomething@DummyNodes@@$$T@std@@YAPEAVSaySomething@DummyNodes@@AEAPEAV12@$$QEA$$T@Z
	??$fill@PEAV?$_List_unchecked_iterator@V?$_List_val@U?$_List_simple_types@U?$pair@$$CBV?$basic_string@DU?$char_traits@D@std@@V?$allocator@D@2@@std@@V12@@std@@@std@@@std@@@std@@V12@@std@@YAXQEAV?$_List_unchecked_iterator@V?$_List_val@U?$_List_simple_types@U?$pair@$$CBV?$basic_string@DU?$char_traits@D@std@@V?$allocator@D@2@@std@@V12@@std@@@std@@@std@@@0@0AEBV10@@Z
	??$fill@PEAV?$_List_unchecked_iterator@V?$_List_val@U?$_List_simple_types@U?$pair@$$CBV?$basic_string@DU?$char_traits@D@std@@V?$allocator@D@2@@std@@VPortInfo@BT@@@std@@@std@@@std@@@std@@V12@@std@@YAXQEAV?$_List_unchecked_iterator@V?$_List_val@U?$_List_simple_types@U?$pair@$$CBV?$basic_string@DU?$char_traits@D@std@@V?$allocator@D@2@@std@@VPortInfo@BT@@@std@@@std@@@std@@@0@0AEBV10@@Z
	??$find@X@?$_Hash@V?$_Umap_traits@V?$basic_string@DU?$char_traits@D@std@@V?$allocator@D@2@@std@@UEntry@Blackboard@BT@@V?$_Uhash_compare@V?$basic_string@DU?$char_traits@D@std@@V?$allocator@D@2@@std@@U?$hash@V?$basic_string@DU?$char_traits@D@std@@V?$allocator@D@2@@std@@@2@U?$equal_to@V?$basic_string@DU?$char_traits@D@std@@V?$allocator@D@2@@std@@@2@@2@V?$allocator@U?$pair@$$CBV?$basic_string@DU?$char_traits@D@std@@V?$allocator@D@2@@std@@UEntry@Blackboard@BT@@@std@@@2@$0A@@std@@@std@@QEAA?AV?$_List_iterator@V?$_List_val@U?$_List_simple_types@U?$pair@$$CBV?$basic_string@DU?$char_traits@D@std@@V?$allocator@D@2@@std@@UEntry@Blackboard@BT@@@std@@@std@@@std@@@1@AEBV?$basic_string@DU?$char_traits@D@std@@V?$allocator@D@2@@1@@Z
	??$find@X@?$_Hash@V?$_Umap_traits@V?$basic_string@DU?$char_traits@D@std@@V?$allocator@D@2@@std@@V12@V?$_Uhash_compare@V?$basic_string@DU?$char_traits@D@std@@V?$allocator@D@2@@std@@U?$hash@V?$basic_string@DU?$char_traits@D@std@@V?$allocator@D@2@@std@@@2@U?$equal_to@V?$basic_string@DU?$char_traits@D@std@@V?$allocator@D@2@@std@@@2@@2@V?$allocator@U?$pair@$$CBV?$basic_string@DU?$char_traits@D@std@@V?$allocator@D@2@@std@@V12@@std@@@2@$0A@@std@@@std@@QEAA?AV?$_List_iterator@V?$_List_val@U?$_List_simple_types@U?$pair@$$CBV?$basic_string@DU?$char_traits@D@std@@V?$allocator@D@2@@std@@V12@@std@@@std@@@std@@@1@AEBV?$basic_string@DU?$char_traits@D@std@@V?$allocator@D@2@@1@@Z
	??$find@X@?$_Hash@V?$_Umap_traits@V?$basic_string@DU?$char_traits@D@std@@V?$allocator@D@2@@std@@V12@V?$_Uhash_compare@V?$basic_string@DU?$char_traits@D@std@@V?$allocator@D@2@@std@@U?$hash@V?$basic_string@DU?$char_traits@D@std@@V?$allocator@D@2@@std@@@2@U?$equal_to@V?$basic_string@DU?$char_traits@D@std@@V?$allocator@D@2@@std@@@2@@2@V?$allocator@U?$pair@$$CBV?$basic_string@DU?$char_traits@D@std@@V?$allocator@D@2@@std@@V12@@std@@@2@$0A@@std@@@std@@QEBA?AV?$_List_const_iterator@V?$_List_val@U?$_List_simple_types@U?$pair@$$CBV?$basic_string@DU?$char_traits@D@std@@V?$allocator@D@2@@std@@V12@@std@@@std@@@std@@@1@AEBV?$basic_string@DU?$char_traits@D@std@@V?$allocator@D@2@@1@@Z
	??$forward@A6A?AW4NodeStatus@BT@@XZ@std@@YAA6A?AW4NodeStatus@BT@@XZA6A?AW412@XZ@Z
	??$forward@AEAPEAD@std@@YAAEAPEADAEAPEAD@Z
	??$forward@AEAPEAU?$_List_node@U?$pair@$$CBV?$basic_string@DU?$char_traits@D@std@@V?$allocator@D@2@@std@@V12@@std@@PEAX@std@@@std@@YAAEAPEAU?$_List_node@U?$pair@$$CBV?$basic_string@DU?$char_traits@D@std@@V?$allocator@D@2@@std@@V12@@std@@PEAX@0@AEAPEAU10@@Z
	??$forward@AEAPEAU?$_List_node@U?$pair@$$CBV?$basic_string@DU?$char_traits@D@std@@V?$allocator@D@2@@std@@VPortInfo@BT@@@std@@PEAX@std@@@std@@YAAEAPEAU?$_List_node@U?$pair@$$CBV?$basic_string@DU?$char_traits@D@std@@V?$allocator@D@2@@std@@VPortInfo@BT@@@std@@PEAX@0@AEAPEAU10@@Z
	??$forward@AEAPEAU?$_Tree_node@U?$pair@$$CBW4PostCond@BT@@V?$basic_string@DU?$char_traits@D@std@@V?$allocator@D@2@@std@@@std@@PEAX@std@@@std@@YAAEAPEAU?$_Tree_node@U?$pair@$$CBW4PostCond@BT@@V?$basic_string@DU?$char_traits@D@std@@V?$allocator@D@2@@std@@@std@@PEAX@0@AEAPEAU10@@Z
	??$forward@AEAPEAU?$_Tree_node@U?$pair@$$CBW4PreCond@BT@@V?$basic_string@DU?$char_traits@D@std@@V?$allocator@D@2@@std@@@std@@PEAX@std@@@std@@YAAEAPEAU?$_Tree_node@U?$pair@$$CBW4PreCond@BT@@V?$basic_string@DU?$char_traits@D@std@@V?$allocator@D@2@@std@@@std@@PEAX@0@AEAPEAU10@@Z
	??$forward@AEAPEAVApproachObject@DummyNodes@@@std@@YAAEAPEAVApproachObject@DummyNodes@@AEAPEAV12@@Z
	??$forward@AEAPEAVSaySomething@DummyNodes@@@std@@YAAEAPEAVSaySomething@DummyNodes@@AEAPEAV12@@Z
	??$forward@AEAU?$pair@$$CBW4PostCond@BT@@V?$basic_string@DU?$char_traits@D@std@@V?$allocator@D@2@@std@@@std@@@std@@YAAEAU?$pair@$$CBW4PostCond@BT@@V?$basic_string@DU?$char_traits@D@std@@V?$allocator@D@2@@std@@@0@AEAU10@@Z
	??$forward@AEAU?$pair@$$CBW4PreCond@BT@@V?$basic_string@DU?$char_traits@D@std@@V?$allocator@D@2@@std@@@std@@@std@@YAAEAU?$pair@$$CBW4PreCond@BT@@V?$basic_string@DU?$char_traits@D@std@@V?$allocator@D@2@@std@@@0@AEAU10@@Z
	??$forward@AEAV?$basic_string@DU?$char_traits@D@std@@V?$allocator@D@2@@std@@@std@@YAAEAV?$basic_string@DU?$char_traits@D@std@@V?$allocator@D@2@@0@AEAV10@@Z
	??$forward@AEAVTreeNode@BT@@@std@@YAAEAVTreeNode@BT@@AEAV12@@Z
	??$forward@AEAY0DD@$$CBD@std@@YAAEAY0DD@$$CBDAEAY0DD@$$CBD@Z
	??$forward@AEBQEAD@std@@YAAEBQEADAEBQEAD@Z
	??$forward@AEBQEAU?$_List_node@U?$pair@$$CBV?$basic_string@DU?$char_traits@D@std@@V?$allocator@D@2@@std@@V12@@std@@PEAX@std@@@std@@YAAEBQEAU?$_List_node@U?$pair@$$CBV?$basic_string@DU?$char_traits@D@std@@V?$allocator@D@2@@std@@V12@@std@@PEAX@0@AEBQEAU10@@Z
	??$forward@AEBQEAU?$_List_node@U?$pair@$$CBV?$basic_string@DU?$char_traits@D@std@@V?$allocator@D@2@@std@@VPortInfo@BT@@@std@@PEAX@std@@@std@@YAAEBQEAU?$_List_node@U?$pair@$$CBV?$basic_string@DU?$char_traits@D@std@@V?$allocator@D@2@@std@@VPortInfo@BT@@@std@@PEAX@0@AEBQEAU10@@Z
	??$forward@AEBQEAU?$_Tree_node@U?$pair@$$CBW4PostCond@BT@@V?$basic_string@DU?$char_traits@D@std@@V?$allocator@D@2@@std@@@std@@PEAX@std@@@std@@YAAEBQEAU?$_Tree_node@U?$pair@$$CBW4PostCond@BT@@V?$basic_string@DU?$char_traits@D@std@@V?$allocator@D@2@@std@@@std@@PEAX@0@AEBQEAU10@@Z
	??$forward@AEBQEAU?$_Tree_node@U?$pair@$$CBW4PreCond@BT@@V?$basic_string@DU?$char_traits@D@std@@V?$allocator@D@2@@std@@@std@@PEAX@std@@@std@@YAAEBQEAU?$_Tree_node@U?$pair@$$CBW4PreCond@BT@@V?$basic_string@DU?$char_traits@D@std@@V?$allocator@D@2@@std@@@std@@PEAX@0@AEBQEAU10@@Z
	??$forward@AEBU?$less@W4PostCond@BT@@@std@@@std@@YAAEBU?$less@W4PostCond@BT@@@0@AEBU10@@Z
	??$forward@AEBU?$less@W4PreCond@BT@@@std@@@std@@YAAEBU?$less@W4PreCond@BT@@@0@AEBU10@@Z
	??$forward@AEBU?$pair@$$CBV?$basic_string@DU?$char_traits@D@std@@V?$allocator@D@2@@std@@V12@@std@@@std@@YAAEBU?$pair@$$CBV?$basic_string@DU?$char_traits@D@std@@V?$allocator@D@2@@std@@V12@@0@AEBU10@@Z
	??$forward@AEBU?$pair@$$CBV?$basic_string@DU?$char_traits@D@std@@V?$allocator@D@2@@std@@VPortInfo@BT@@@std@@@std@@YAAEBU?$pair@$$CBV?$basic_string@DU?$char_traits@D@std@@V?$allocator@D@2@@std@@VPortInfo@BT@@@0@AEBU10@@Z
	??$forward@AEBUNodeConfig@BT@@@std@@YAAEBUNodeConfig@BT@@AEBU12@@Z
	??$forward@AEBV<lambda_57296cd0c6c71135b50e4592291d978e>@@@std@@YAAEBV<lambda_57296cd0c6c71135b50e4592291d978e>@@AEBV1@@Z
	??$forward@AEBV<lambda_a95bbca0faf915955c95630ee1c00895>@@@std@@YAAEBV<lambda_a95bbca0faf915955c95630ee1c00895>@@AEBV1@@Z
	??$forward@AEBV<lambda_b01c296c30d9c3eb21471946df8728d5>@@@std@@YAAEBV<lambda_b01c296c30d9c3eb21471946df8728d5>@@AEBV1@@Z
	??$forward@AEBV?$_Binder@U_Unforced@std@@A6A?AW4NodeStatus@BT@@XZ$$V@std@@@std@@YAAEBV?$_Binder@U_Unforced@std@@A6A?AW4NodeStatus@BT@@XZ$$V@0@AEBV10@@Z
	??$forward@AEBV?$_Binder@U_Unforced@std@@P8GripperInterface@DummyNodes@@EAA?AW4NodeStatus@BT@@XZPEAV34@@std@@@std@@YAAEBV?$_Binder@U_Unforced@std@@P8GripperInterface@DummyNodes@@EAA?AW4NodeStatus@BT@@XZPEAV34@@0@AEBV10@@Z
	??$forward@AEBV?$_List_unchecked_iterator@V?$_List_val@U?$_List_simple_types@U?$pair@$$CBV?$basic_string@DU?$char_traits@D@std@@V?$allocator@D@2@@std@@V12@@std@@@std@@@std@@@std@@@std@@YAAEBV?$_List_unchecked_iterator@V?$_List_val@U?$_List_simple_types@U?$pair@$$CBV?$basic_string@DU?$char_traits@D@std@@V?$allocator@D@2@@std@@V12@@std@@@std@@@std@@@0@AEBV10@@Z
	??$forward@AEBV?$_List_unchecked_iterator@V?$_List_val@U?$_List_simple_types@U?$pair@$$CBV?$basic_string@DU?$char_traits@D@std@@V?$allocator@D@2@@std@@VPortInfo@BT@@@std@@@std@@@std@@@std@@@std@@YAAEBV?$_List_unchecked_iterator@V?$_List_val@U?$_List_simple_types@U?$pair@$$CBV?$basic_string@DU?$char_traits@D@std@@V?$allocator@D@2@@std@@VPortInfo@BT@@@std@@@std@@@std@@@0@AEBV10@@Z
	??$forward@AEBV?$allocator@D@std@@@std@@YAAEBV?$allocator@D@0@AEBV10@@Z
	??$forward@AEBV?$allocator@U?$_List_node@U?$pair@$$CBV?$basic_string@DU?$char_traits@D@std@@V?$allocator@D@2@@std@@VPortInfo@BT@@@std@@PEAX@std@@@std@@@std@@YAAEBV?$allocator@U?$_List_node@U?$pair@$$CBV?$basic_string@DU?$char_traits@D@std@@V?$allocator@D@2@@std@@VPortInfo@BT@@@std@@PEAX@std@@@0@AEBV10@@Z
	??$forward@AEBV?$allocator@U?$pair@$$CBV?$basic_string@DU?$char_traits@D@std@@V?$allocator@D@2@@std@@V12@@std@@@std@@@std@@YAAEBV?$allocator@U?$pair@$$CBV?$basic_string@DU?$char_traits@D@std@@V?$allocator@D@2@@std@@V12@@std@@@0@AEBV10@@Z
	??$forward@AEBV?$allocator@U?$pair@$$CBV?$basic_string@DU?$char_traits@D@std@@V?$allocator@D@2@@std@@VPortInfo@BT@@@std@@@std@@@std@@YAAEBV?$allocator@U?$pair@$$CBV?$basic_string@DU?$char_traits@D@std@@V?$allocator@D@2@@std@@VPortInfo@BT@@@std@@@0@AEBV10@@Z
	??$forward@AEBV?$basic_string@DU?$char_traits@D@std@@V?$allocator@D@2@@std@@@std@@YAAEBV?$basic_string@DU?$char_traits@D@std@@V?$allocator@D@2@@0@AEBV10@@Z
	??$forward@M@std@@YA$$QEAMAEAM@Z
	??$forward@P8GripperInterface@DummyNodes@@EAA?AW4NodeStatus@BT@@XZ@std@@YA$$QEAP8GripperInterface@DummyNodes@@EAA?AW4NodeStatus@BT@@XZAEAP812@EAA?AW434@XZ@Z
	??$forward@PEAU?$_List_node@U?$pair@$$CBV?$basic_string@DU?$char_traits@D@std@@V?$allocator@D@2@@std@@V12@@std@@PEAX@std@@@std@@YA$$QEAPEAU?$_List_node@U?$pair@$$CBV?$basic_string@DU?$char_traits@D@std@@V?$allocator@D@2@@std@@V12@@std@@PEAX@0@AEAPEAU10@@Z
	??$forward@PEAVApproachObject@DummyNodes@@@std@@YA$$QEAPEAVApproachObject@DummyNodes@@AEAPEAV12@@Z
	??$forward@PEAVGripperInterface@DummyNodes@@@std@@YA$$QEAPEAVGripperInterface@DummyNodes@@AEAPEAV12@@Z
	??$forward@PEAVSaySomething@DummyNodes@@@std@@YA$$QEAPEAVSaySomething@DummyNodes@@AEAPEAV12@@Z
	??$forward@PEBD@std@@YA$$QEAPEBDAEAPEBD@Z
	??$forward@U?$default_delete@VApproachObject@DummyNodes@@@std@@@std@@YA$$QEAU?$default_delete@VApproachObject@DummyNodes@@@0@AEAU10@@Z
	??$forward@U?$default_delete@VSaySomething@DummyNodes@@@std@@@std@@YA$$QEAU?$default_delete@VSaySomething@DummyNodes@@@0@AEAU10@@Z
	??$forward@U_Zero_then_variadic_args_t@std@@@std@@YA$$QEAU_Zero_then_variadic_args_t@0@AEAU10@@Z
	??$forward@V<lambda_57296cd0c6c71135b50e4592291d978e>@@@std@@YA$$QEAV<lambda_57296cd0c6c71135b50e4592291d978e>@@AEAV1@@Z
	??$forward@V<lambda_a95bbca0faf915955c95630ee1c00895>@@@std@@YA$$QEAV<lambda_a95bbca0faf915955c95630ee1c00895>@@AEAV1@@Z
	??$forward@V<lambda_b01c296c30d9c3eb21471946df8728d5>@@@std@@YA$$QEAV<lambda_b01c296c30d9c3eb21471946df8728d5>@@AEAV1@@Z
	??$forward@V?$_Binder@U_Unforced@std@@A6A?AW4NodeStatus@BT@@XZ$$V@std@@@std@@YA$$QEAV?$_Binder@U_Unforced@std@@A6A?AW4NodeStatus@BT@@XZ$$V@0@AEAV10@@Z
	??$forward@V?$_Binder@U_Unforced@std@@P8GripperInterface@DummyNodes@@EAA?AW4NodeStatus@BT@@XZPEAV34@@std@@@std@@YA$$QEAV?$_Binder@U_Unforced@std@@P8GripperInterface@DummyNodes@@EAA?AW4NodeStatus@BT@@XZPEAV34@@0@AEAV10@@Z
	??$forward@V?$_List_iterator@V?$_List_val@U?$_List_simple_types@U?$pair@$$CBV?$basic_string@DU?$char_traits@D@std@@V?$allocator@D@2@@std@@VPortInfo@BT@@@std@@@std@@@std@@@std@@@std@@YA$$QEAV?$_List_iterator@V?$_List_val@U?$_List_simple_types@U?$pair@$$CBV?$basic_string@DU?$char_traits@D@std@@V?$allocator@D@2@@std@@VPortInfo@BT@@@std@@@std@@@std@@@0@AEAV10@@Z
	??$forward@V?$allocator@D@std@@@std@@YA$$QEAV?$allocator@D@0@AEAV10@@Z
	??$forward@V?$basic_string@DU?$char_traits@D@std@@V?$allocator@D@2@@std@@@std@@YA$$QEAV?$basic_string@DU?$char_traits@D@std@@V?$allocator@D@2@@0@AEAV10@@Z
	??$forward@V?$basic_string_view@DU?$char_traits@D@std@@@std@@@std@@YA$$QEAV?$basic_string_view@DU?$char_traits@D@std@@@0@AEAV10@@Z
	??$forward@VPortInfo@BT@@@std@@YA$$QEAVPortInfo@BT@@AEAV12@@Z
	??$forward@VSimpleString@SafeAny@@@std@@YA$$QEAVSimpleString@SafeAny@@AEAV12@@Z
	??$forward@_N@std@@YA$$QEA_NAEA_N@Z
	??$forward_as_tuple@AEAVTreeNode@BT@@@std@@YA?AV?$tuple@AEAVTreeNode@BT@@@0@AEAVTreeNode@BT@@@Z
	??$get@$0A@PEAVGripperInterface@DummyNodes@@@std@@YAAEAPEAVGripperInterface@DummyNodes@@AEAV?$tuple@PEAVGripperInterface@DummyNodes@@@0@@Z
	??$getInput@V?$basic_string@DU?$char_traits@D@std@@V?$allocator@D@2@@std@@@TreeNode@BT@@QEBA?AV?$expected@Umonostate@std@@V?$basic_string@DU?$char_traits@D@std@@V?$allocator@D@2@@2@@expected_lite@nonstd@@AEBV?$basic_string@DU?$char_traits@D@std@@V?$allocator@D@2@@std@@AEAV56@@Z
	??$getInput@V?$basic_string@DU?$char_traits@D@std@@V?$allocator@D@2@@std@@@TreeNode@BT@@QEBA?AV?$expected@V?$basic_string@DU?$char_traits@D@std@@V?$allocator@D@2@@std@@V12@@expected_lite@nonstd@@AEBV?$basic_string@DU?$char_traits@D@std@@V?$allocator@D@2@@std@@@Z
	??$getProvidedPorts@VApproachObject@DummyNodes@@@BT@@YA?AV?$unordered_map@V?$basic_string@DU?$char_traits@D@std@@V?$allocator@D@2@@std@@VPortInfo@BT@@U?$hash@V?$basic_string@DU?$char_traits@D@std@@V?$allocator@D@2@@std@@@2@U?$equal_to@V?$basic_string@DU?$char_traits@D@std@@V?$allocator@D@2@@std@@@2@V?$allocator@U?$pair@$$CBV?$basic_string@DU?$char_traits@D@std@@V?$allocator@D@2@@std@@VPortInfo@BT@@@std@@@2@@std@@PEAX@Z
	??$getProvidedPorts@VSaySomething@DummyNodes@@@BT@@YA?AV?$unordered_map@V?$basic_string@DU?$char_traits@D@std@@V?$allocator@D@2@@std@@VPortInfo@BT@@U?$hash@V?$basic_string@DU?$char_traits@D@std@@V?$allocator@D@2@@std@@@2@U?$equal_to@V?$basic_string@DU?$char_traits@D@std@@V?$allocator@D@2@@std@@@2@V?$allocator@U?$pair@$$CBV?$basic_string@DU?$char_traits@D@std@@V?$allocator@D@2@@std@@VPortInfo@BT@@@std@@@2@@std@@PEAX@Z
	??$getType@VApproachObject@DummyNodes@@@BT@@YA?AW4NodeType@0@XZ
	??$getType@VSaySomething@DummyNodes@@@BT@@YA?AW4NodeType@0@XZ
	??$insert@PEBU?$pair@$$CBV?$basic_string@DU?$char_traits@D@std@@V?$allocator@D@2@@std@@VPortInfo@BT@@@std@@@?$_Hash@V?$_Umap_traits@V?$basic_string@DU?$char_traits@D@std@@V?$allocator@D@2@@std@@VPortInfo@BT@@V?$_Uhash_compare@V?$basic_string@DU?$char_traits@D@std@@V?$allocator@D@2@@std@@U?$hash@V?$basic_string@DU?$char_traits@D@std@@V?$allocator@D@2@@std@@@2@U?$equal_to@V?$basic_string@DU?$char_traits@D@std@@V?$allocator@D@2@@std@@@2@@2@V?$allocator@U?$pair@$$CBV?$basic_string@DU?$char_traits@D@std@@V?$allocator@D@2@@std@@VPortInfo@BT@@@std@@@2@$0A@@std@@@std@@QEAAXPEBU?$pair@$$CBV?$basic_string@DU?$char_traits@D@std@@V?$allocator@D@2@@std@@VPortInfo@BT@@@1@0@Z
	??$insert@V?$_List_unchecked_const_iterator@V?$_List_val@U?$_List_simple_types@U?$pair@$$CBV?$basic_string@DU?$char_traits@D@std@@V?$allocator@D@2@@std@@VPortInfo@BT@@@std@@@std@@@std@@U_Iterator_base0@2@@std@@@?$_Hash@V?$_Umap_traits@V?$basic_string@DU?$char_traits@D@std@@V?$allocator@D@2@@std@@VPortInfo@BT@@V?$_Uhash_compare@V?$basic_string@DU?$char_traits@D@std@@V?$allocator@D@2@@std@@U?$hash@V?$basic_string@DU?$char_traits@D@std@@V?$allocator@D@2@@std@@@2@U?$equal_to@V?$basic_string@DU?$char_traits@D@std@@V?$allocator@D@2@@std@@@2@@2@V?$allocator@U?$pair@$$CBV?$basic_string@DU?$char_traits@D@std@@V?$allocator@D@2@@std@@VPortInfo@BT@@@std@@@2@$0A@@std@@@std@@QEAAXV?$_List_unchecked_const_iterator@V?$_List_val@U?$_List_simple_types@U?$pair@$$CBV?$basic_string@DU?$char_traits@D@std@@V?$allocator@D@2@@std@@VPortInfo@BT@@@std@@@std@@@std@@U_Iterator_base0@2@@1@0@Z
	??$invoke@AEAP6A?AW4NodeStatus@BT@@XZ@std@@YA?AW4NodeStatus@BT@@AEAP6A?AW412@XZ@Z
	??$invoke@AEAP8GripperInterface@DummyNodes@@EAA?AW4NodeStatus@BT@@XZAEAPEAV12@$$V@std@@YA?AW4NodeStatus@BT@@AEAP8GripperInterface@DummyNodes@@EAA?AW412@XZAEAPEAV34@@Z
	??$invoke@AEAV<lambda_57296cd0c6c71135b50e4592291d978e>@@V?$basic_string_view@DU?$char_traits@D@std@@@std@@$$V@std@@YA?AVAny@BT@@AEAV<lambda_57296cd0c6c71135b50e4592291d978e>@@$$QEAV?$basic_string_view@DU?$char_traits@D@std@@@0@@Z
	??$invoke@AEAV<lambda_a95bbca0faf915955c95630ee1c00895>@@AEBV?$basic_string@DU?$char_traits@D@std@@V?$allocator@D@2@@std@@AEBUNodeConfig@BT@@@std@@YA?AV?$unique_ptr@VTreeNode@BT@@U?$default_delete@VTreeNode@BT@@@std@@@0@AEAV<lambda_a95bbca0faf915955c95630ee1c00895>@@AEBV?$basic_string@DU?$char_traits@D@std@@V?$allocator@D@2@@0@AEBUNodeConfig@BT@@@Z
	??$invoke@AEAV<lambda_b01c296c30d9c3eb21471946df8728d5>@@AEBV?$basic_string@DU?$char_traits@D@std@@V?$allocator@D@2@@std@@AEBUNodeConfig@BT@@@std@@YA?AV?$unique_ptr@VTreeNode@BT@@U?$default_delete@VTreeNode@BT@@@std@@@0@AEAV<lambda_b01c296c30d9c3eb21471946df8728d5>@@AEBV?$basic_string@DU?$char_traits@D@std@@V?$allocator@D@2@@0@AEBUNodeConfig@BT@@@Z
	??$invoke@AEAV?$_Binder@U_Unforced@std@@A6A?AW4NodeStatus@BT@@XZ$$V@std@@AEAVTreeNode@BT@@$$V@std@@YA?AW4NodeStatus@BT@@AEAV?$_Binder@U_Unforced@std@@A6A?AW4NodeStatus@BT@@XZ$$V@0@AEAVTreeNode@2@@Z
	??$invoke@AEAV?$_Binder@U_Unforced@std@@P8GripperInterface@DummyNodes@@EAA?AW4NodeStatus@BT@@XZPEAV34@@std@@AEAVTreeNode@BT@@$$V@std@@YA?AW4NodeStatus@BT@@AEAV?$_Binder@U_Unforced@std@@P8GripperInterface@DummyNodes@@EAA?AW4NodeStatus@BT@@XZPEAV34@@0@AEAVTreeNode@2@@Z
	??$make_unexpected@AEAV?$basic_string@DU?$char_traits@D@std@@V?$allocator@D@2@@std@@@expected_lite@nonstd@@YA?AV?$unexpected_type@V?$basic_string@DU?$char_traits@D@std@@V?$allocator@D@2@@std@@@01@AEAV?$basic_string@DU?$char_traits@D@std@@V?$allocator@D@2@@std@@@Z
	??$make_unexpected@AEAY0DD@$$CBD@expected_lite@nonstd@@YA?AV?$unexpected_type@PEBD@01@AEAY0DD@$$CBD@Z
	??$make_unexpected@PEBD@expected_lite@nonstd@@YA?AV?$unexpected_type@PEBD@01@$$QEAPEBD@Z
	??$make_unexpected@V?$basic_string@DU?$char_traits@D@std@@V?$allocator@D@2@@std@@@expected_lite@nonstd@@YA?AV?$unexpected_type@V?$basic_string@DU?$char_traits@D@std@@V?$allocator@D@2@@std@@@01@$$QEAV?$basic_string@DU?$char_traits@D@std@@V?$allocator@D@2@@std@@@Z
	??$make_unique@VSaySomething@DummyNodes@@AEBV?$basic_string@DU?$char_traits@D@std@@V?$allocator@D@2@@std@@AEBUNodeConfig@BT@@$0A@@std@@YA?AV?$unique_ptr@VSaySomething@DummyNodes@@U?$default_delete@VSaySomething@DummyNodes@@@std@@@0@AEBV?$basic_string@DU?$char_traits@D@std@@V?$allocator@D@2@@0@AEBUNodeConfig@BT@@@Z
	??$max@_K@std@@YAAEB_KAEB_K0@Z
	??$min@_K@std@@YAAEB_KAEB_K0@Z
	??$move@AEAPEAV?$unordered_map@V?$basic_string@DU?$char_traits@D@std@@V?$allocator@D@2@@std@@HU?$hash@V?$basic_string@DU?$char_traits@D@std@@V?$allocator@D@2@@std@@@2@U?$equal_to@V?$basic_string@DU?$char_traits@D@std@@V?$allocator@D@2@@std@@@2@V?$allocator@U?$pair@$$CBV?$basic_string@DU?$char_traits@D@std@@V?$allocator@D@2@@std@@H@std@@@2@@std@@@std@@YA$$QEAPEAV?$unordered_map@V?$basic_string@DU?$char_traits@D@std@@V?$allocator@D@2@@std@@HU?$hash@V?$basic_string@DU?$char_traits@D@std@@V?$allocator@D@2@@std@@@2@U?$equal_to@V?$basic_string@DU?$char_traits@D@std@@V?$allocator@D@2@@std@@@2@V?$allocator@U?$pair@$$CBV?$basic_string@DU?$char_traits@D@std@@V?$allocator@D@2@@std@@H@std@@@2@@0@AEAPEAV10@@Z
	??$move@AEAPEAVBlackboard@BT@@@std@@YA$$QEAPEAVBlackboard@BT@@AEAPEAV12@@Z
	??$move@AEAPEAV_Ref_count_base@std@@@std@@YA$$QEAPEAV_Ref_count_base@0@AEAPEAV10@@Z
	??$move@AEAPEAX@std@@YA$$QEAPEAXAEAPEAX@Z
	??$move@AEAPEBD@std@@YA$$QEAPEBDAEAPEBD@Z
	??$move@AEAT<unnamed-type-_storage>@SimpleString@SafeAny@@@std@@YA$$QEAT<unnamed-type-_storage>@SimpleString@SafeAny@@AEAT123@@Z
	??$move@AEAUmonostate@std@@@std@@YA$$QEAUmonostate@0@AEAU10@@Z
	??$move@AEAV<lambda_57296cd0c6c71135b50e4592291d978e>@@@std@@YA$$QEAV<lambda_57296cd0c6c71135b50e4592291d978e>@@AEAV1@@Z
	??$move@AEAV<lambda_a95bbca0faf915955c95630ee1c00895>@@@std@@YA$$QEAV<lambda_a95bbca0faf915955c95630ee1c00895>@@AEAV1@@Z
	??$move@AEAV<lambda_b01c296c30d9c3eb21471946df8728d5>@@@std@@YA$$QEAV<lambda_b01c296c30d9c3eb21471946df8728d5>@@AEAV1@@Z
	??$move@AEAV?$_Binder@U_Unforced@std@@A6A?AW4NodeStatus@BT@@XZ$$V@std@@@std@@YA$$QEAV?$_Binder@U_Unforced@std@@A6A?AW4NodeStatus@BT@@XZ$$V@0@AEAV10@@Z
	??$move@AEAV?$_Binder@U_Unforced@std@@P8GripperInterface@DummyNodes@@EAA?AW4NodeStatus@BT@@XZPEAV34@@std@@@std@@YA$$QEAV?$_Binder@U_Unforced@std@@P8GripperInterface@DummyNodes@@EAA?AW4NodeStatus@BT@@XZPEAV34@@0@AEAV10@@Z
	??$move@AEAV?$allocator@D@std@@@std@@YA$$QEAV?$allocator@D@0@AEAV10@@Z
	??$move@AEAV?$basic_string@DU?$char_traits@D@std@@V?$allocator@D@2@@std@@@std@@YA$$QEAV?$basic_string@DU?$char_traits@D@std@@V?$allocator@D@2@@0@AEAV10@@Z
	??$move@AEAV?$function@$$A6A?AVAny@BT@@V?$basic_string_view@DU?$char_traits@D@std@@@std@@@Z@std@@@std@@YA$$QEAV?$function@$$A6A?AVAny@BT@@V?$basic_string_view@DU?$char_traits@D@std@@@std@@@Z@0@AEAV10@@Z
	??$move@AEAV?$initializer_list@V?$basic_string_view@DU?$char_traits@D@std@@@std@@@std@@@std@@YA$$QEAV?$initializer_list@V?$basic_string_view@DU?$char_traits@D@std@@@std@@@0@AEAV10@@Z
	??$move@AEAV?$shared_ptr@VBlackboard@BT@@@std@@@std@@YA$$QEAV?$shared_ptr@VBlackboard@BT@@@0@AEAV10@@Z
	??$move@AEAV?$tuple@AEAVTreeNode@BT@@@std@@@std@@YA$$QEAV?$tuple@AEAVTreeNode@BT@@@0@AEAV10@@Z
	??$registerNodeType@VApproachObject@DummyNodes@@$$V@BehaviorTreeFactory@BT@@QEAAXAEBV?$basic_string@DU?$char_traits@D@std@@V?$allocator@D@2@@std@@@Z
	??$registerNodeType@VApproachObject@DummyNodes@@$$V@BehaviorTreeFactory@BT@@QEAAXAEBV?$basic_string@DU?$char_traits@D@std@@V?$allocator@D@2@@std@@AEBV?$unordered_map@V?$basic_string@DU?$char_traits@D@std@@V?$allocator@D@2@@std@@VPortInfo@BT@@U?$hash@V?$basic_string@DU?$char_traits@D@std@@V?$allocator@D@2@@std@@@2@U?$equal_to@V?$basic_string@DU?$char_traits@D@std@@V?$allocator@D@2@@std@@@2@V?$allocator@U?$pair@$$CBV?$basic_string@DU?$char_traits@D@std@@V?$allocator@D@2@@std@@VPortInfo@BT@@@std@@@2@@3@@Z
	??$registerNodeType@VSaySomething@DummyNodes@@$$V@BehaviorTreeFactory@BT@@QEAAXAEBV?$basic_string@DU?$char_traits@D@std@@V?$allocator@D@2@@std@@@Z
	??$registerNodeType@VSaySomething@DummyNodes@@$$V@BehaviorTreeFactory@BT@@QEAAXAEBV?$basic_string@DU?$char_traits@D@std@@V?$allocator@D@2@@std@@AEBV?$unordered_map@V?$basic_string@DU?$char_traits@D@std@@V?$allocator@D@2@@std@@VPortInfo@BT@@U?$hash@V?$basic_string@DU?$char_traits@D@std@@V?$allocator@D@2@@std@@@2@U?$equal_to@V?$basic_string@DU?$char_traits@D@std@@V?$allocator@D@2@@std@@@2@V?$allocator@U?$pair@$$CBV?$basic_string@DU?$char_traits@D@std@@V?$allocator@D@2@@std@@VPortInfo@BT@@@std@@@2@@3@@Z
	??$swap@PEAV?$unordered_map@V?$basic_string@DU?$char_traits@D@std@@V?$allocator@D@2@@std@@HU?$hash@V?$basic_string@DU?$char_traits@D@std@@V?$allocator@D@2@@std@@@2@U?$equal_to@V?$basic_string@DU?$char_traits@D@std@@V?$allocator@D@2@@std@@@2@V?$allocator@U?$pair@$$CBV?$basic_string@DU?$char_traits@D@std@@V?$allocator@D@2@@std@@H@std@@@2@@std@@$0A@@std@@YAXAEAPEAV?$unordered_map@V?$basic_string@DU?$char_traits@D@std@@V?$allocator@D@2@@std@@HU?$hash@V?$basic_string@DU?$char_traits@D@std@@V?$allocator@D@2@@std@@@2@U?$equal_to@V?$basic_string@DU?$char_traits@D@std@@V?$allocator@D@2@@std@@@2@V?$allocator@U?$pair@$$CBV?$basic_string@DU?$char_traits@D@std@@V?$allocator@D@2@@std@@H@std@@@2@@0@0@Z
	??$swap@PEAVBlackboard@BT@@$0A@@std@@YAXAEAPEAVBlackboard@BT@@0@Z
	??$swap@PEAV_Ref_count_base@std@@$0A@@std@@YAXAEAPEAV_Ref_count_base@0@0@Z
	??$swap@PEAX$0A@@std@@YAXAEAPEAX0@Z
	??$swap@T<unnamed-type-_storage>@SimpleString@SafeAny@@$0A@@std@@YAXAEAT<unnamed-type-_storage>@SimpleString@SafeAny@@0@Z
	??$uninitialized_fill@PEAV?$_List_unchecked_iterator@V?$_List_val@U?$_List_simple_types@U?$pair@$$CBV?$basic_string@DU?$char_traits@D@std@@V?$allocator@D@2@@std@@V12@@std@@@std@@@std@@@std@@V12@@std@@YAXQEAV?$_List_unchecked_iterator@V?$_List_val@U?$_List_simple_types@U?$pair@$$CBV?$basic_string@DU?$char_traits@D@std@@V?$allocator@D@2@@std@@V12@@std@@@std@@@std@@@0@0AEBV10@@Z
	??$uninitialized_fill@PEAV?$_List_unchecked_iterator@V?$_List_val@U?$_List_simple_types@U?$pair@$$CBV?$basic_string@DU?$char_traits@D@std@@V?$allocator@D@2@@std@@VPortInfo@BT@@@std@@@std@@@std@@@std@@V12@@std@@YAXQEAV?$_List_unchecked_iterator@V?$_List_val@U?$_List_simple_types@U?$pair@$$CBV?$basic_string@DU?$char_traits@D@std@@V?$allocator@D@2@@std@@VPortInfo@BT@@@std@@@std@@@std@@@0@0AEBV10@@Z
	??$vtable_for_type@VSimpleString@SafeAny@@@any@linb@@CAPEAUvtable_type@01@XZ
	??0<lambda_aa76a4183be853015b9d628f5e5c4b8d>@@QEAA@QEBVTreeNode@BT@@@Z
	??0?$_Alloc_construct_ptr@V?$allocator@U?$_List_node@U?$pair@$$CBV?$basic_string@DU?$char_traits@D@std@@V?$allocator@D@2@@std@@V12@@std@@PEAX@std@@@std@@@std@@QEAA@AEAV?$allocator@U?$_List_node@U?$pair@$$CBV?$basic_string@DU?$char_traits@D@std@@V?$allocator@D@2@@std@@V12@@std@@PEAX@std@@@1@@Z
	??0?$_Alloc_construct_ptr@V?$allocator@U?$_List_node@U?$pair@$$CBV?$basic_string@DU?$char_traits@D@std@@V?$allocator@D@2@@std@@VPortInfo@BT@@@std@@PEAX@std@@@std@@@std@@QEAA@AEAV?$allocator@U?$_List_node@U?$pair@$$CBV?$basic_string@DU?$char_traits@D@std@@V?$allocator@D@2@@std@@VPortInfo@BT@@@std@@PEAX@std@@@1@@Z
	??0?$_Alloc_construct_ptr@V?$allocator@U?$_Tree_node@U?$pair@$$CBW4PostCond@BT@@V?$basic_string@DU?$char_traits@D@std@@V?$allocator@D@2@@std@@@std@@PEAX@std@@@std@@@std@@QEAA@AEAV?$allocator@U?$_Tree_node@U?$pair@$$CBW4PostCond@BT@@V?$basic_string@DU?$char_traits@D@std@@V?$allocator@D@2@@std@@@std@@PEAX@std@@@1@@Z
	??0?$_Alloc_construct_ptr@V?$allocator@U?$_Tree_node@U?$pair@$$CBW4PreCond@BT@@V?$basic_string@DU?$char_traits@D@std@@V?$allocator@D@2@@std@@@std@@PEAX@std@@@std@@@std@@QEAA@AEAV?$allocator@U?$_Tree_node@U?$pair@$$CBW4PreCond@BT@@V?$basic_string@DU?$char_traits@D@std@@V?$allocator@D@2@@std@@@std@@PEAX@std@@@1@@Z
	??0?$_Binder@U_Unforced@std@@A6A?AW4NodeStatus@BT@@XZ$$V@std@@QEAA@$$QEAV01@@Z
	??0?$_Binder@U_Unforced@std@@A6A?AW4NodeStatus@BT@@XZ$$V@std@@QEAA@A6A?AW4NodeStatus@BT@@XZ@Z
	??0?$_Binder@U_Unforced@std@@A6A?AW4NodeStatus@BT@@XZ$$V@std@@QEAA@AEBV01@@Z
	??0?$_Binder@U_Unforced@std@@P8GripperInterface@DummyNodes@@EAA?AW4NodeStatus@BT@@XZPEAV34@@std@@QEAA@$$QEAP8GripperInterface@DummyNodes@@EAA?AW4NodeStatus@BT@@XZ$$QEAPEAV23@@Z
	??0?$_Binder@U_Unforced@std@@P8GripperInterface@DummyNodes@@EAA?AW4NodeStatus@BT@@XZPEAV34@@std@@QEAA@$$QEAV01@@Z
	??0?$_Binder@U_Unforced@std@@P8GripperInterface@DummyNodes@@EAA?AW4NodeStatus@BT@@XZPEAV34@@std@@QEAA@AEBV01@@Z
	??0?$_Compressed_pair@P6A?AW4NodeStatus@BT@@XZV?$tuple@$$V@std@@$0A@@std@@QEAA@$$QEAV01@@Z
	??0?$_Compressed_pair@P6A?AW4NodeStatus@BT@@XZV?$tuple@$$V@std@@$0A@@std@@QEAA@AEBV01@@Z
	??0?$_Compressed_pair@P8GripperInterface@DummyNodes@@EAA?AW4NodeStatus@BT@@XZV?$tuple@PEAVGripperInterface@DummyNodes@@@std@@$0A@@std@@QEAA@$$QEAV01@@Z
	??0?$_Compressed_pair@P8GripperInterface@DummyNodes@@EAA?AW4NodeStatus@BT@@XZV?$tuple@PEAVGripperInterface@DummyNodes@@@std@@$0A@@std@@QEAA@AEBV01@@Z
	??0?$_Func_base@V?$unique_ptr@VTreeNode@BT@@U?$default_delete@VTreeNode@BT@@@std@@@std@@AEBV?$basic_string@DU?$char_traits@D@std@@V?$allocator@D@2@@2@AEBUNodeConfig@BT@@@std@@QEAA@XZ
	??0?$_Func_base@VAny@BT@@V?$basic_string_view@DU?$char_traits@D@std@@@std@@@std@@QEAA@XZ
	??0?$_Func_base@W4NodeStatus@BT@@AEAVTreeNode@2@@std@@QEAA@XZ
	??0?$_Func_class@V?$unique_ptr@VTreeNode@BT@@U?$default_delete@VTreeNode@BT@@@std@@@std@@AEBV?$basic_string@DU?$char_traits@D@std@@V?$allocator@D@2@@2@AEBUNodeConfig@BT@@@std@@QEAA@XZ
	??0?$_Func_class@VAny@BT@@V?$basic_string_view@DU?$char_traits@D@std@@@std@@@std@@QEAA@XZ
	??0?$_Func_class@W4NodeStatus@BT@@AEAVTreeNode@2@@std@@QEAA@XZ
	??0?$_Hash@V?$_Umap_traits@V?$basic_string@DU?$char_traits@D@std@@V?$allocator@D@2@@std@@V12@V?$_Uhash_compare@V?$basic_string@DU?$char_traits@D@std@@V?$allocator@D@2@@std@@U?$hash@V?$basic_string@DU?$char_traits@D@std@@V?$allocator@D@2@@std@@@2@U?$equal_to@V?$basic_string@DU?$char_traits@D@std@@V?$allocator@D@2@@std@@@2@@2@V?$allocator@U?$pair@$$CBV?$basic_string@DU?$char_traits@D@std@@V?$allocator@D@2@@std@@V12@@std@@@2@$0A@@std@@@std@@IEAA@AEBV?$_Uhash_compare@V?$basic_string@DU?$char_traits@D@std@@V?$allocator@D@2@@std@@U?$hash@V?$basic_string@DU?$char_traits@D@std@@V?$allocator@D@2@@std@@@2@U?$equal_to@V?$basic_string@DU?$char_traits@D@std@@V?$allocator@D@2@@std@@@2@@1@AEBV?$allocator@U?$pair@$$CBV?$basic_string@DU?$char_traits@D@std@@V?$allocator@D@2@@std@@V12@@std@@@1@@Z
	??0?$_Hash@V?$_Umap_traits@V?$basic_string@DU?$char_traits@D@std@@V?$allocator@D@2@@std@@VPortInfo@BT@@V?$_Uhash_compare@V?$basic_string@DU?$char_traits@D@std@@V?$allocator@D@2@@std@@U?$hash@V?$basic_string@DU?$char_traits@D@std@@V?$allocator@D@2@@std@@@2@U?$equal_to@V?$basic_string@DU?$char_traits@D@std@@V?$allocator@D@2@@std@@@2@@2@V?$allocator@U?$pair@$$CBV?$basic_string@DU?$char_traits@D@std@@V?$allocator@D@2@@std@@VPortInfo@BT@@@std@@@2@$0A@@std@@@std@@IEAA@AEBV?$_Uhash_compare@V?$basic_string@DU?$char_traits@D@std@@V?$allocator@D@2@@std@@U?$hash@V?$basic_string@DU?$char_traits@D@std@@V?$allocator@D@2@@std@@@2@U?$equal_to@V?$basic_string@DU?$char_traits@D@std@@V?$allocator@D@2@@std@@@2@@1@AEBV?$allocator@U?$pair@$$CBV?$basic_string@DU?$char_traits@D@std@@V?$allocator@D@2@@std@@VPortInfo@BT@@@std@@@1@@Z
	??0?$_List_const_iterator@V?$_List_val@U?$_List_simple_types@U?$pair@$$CBV?$basic_string@DU?$char_traits@D@std@@V?$allocator@D@2@@std@@UEntry@Blackboard@BT@@@std@@@std@@@std@@@std@@QEAA@PEAU?$_List_node@U?$pair@$$CBV?$basic_string@DU?$char_traits@D@std@@V?$allocator@D@2@@std@@UEntry@Blackboard@BT@@@std@@PEAX@1@PEBV?$_List_val@U?$_List_simple_types@U?$pair@$$CBV?$basic_string@DU?$char_traits@D@std@@V?$allocator@D@2@@std@@UEntry@Blackboard@BT@@@std@@@std@@@1@@Z
	??0?$_List_const_iterator@V?$_List_val@U?$_List_simple_types@U?$pair@$$CBV?$basic_string@DU?$char_traits@D@std@@V?$allocator@D@2@@std@@V12@@std@@@std@@@std@@@std@@QEAA@PEAU?$_List_node@U?$pair@$$CBV?$basic_string@DU?$char_traits@D@std@@V?$allocator@D@2@@std@@V12@@std@@PEAX@1@PEBV?$_List_val@U?$_List_simple_types@U?$pair@$$CBV?$basic_string@DU?$char_traits@D@std@@V?$allocator@D@2@@std@@V12@@std@@@std@@@1@@Z
	??0?$_List_const_iterator@V?$_List_val@U?$_List_simple_types@U?$pair@$$CBV?$basic_string@DU?$char_traits@D@std@@V?$allocator@D@2@@std@@VPortInfo@BT@@@std@@@std@@@std@@@std@@QEAA@PEAU?$_List_node@U?$pair@$$CBV?$basic_string@DU?$char_traits@D@std@@V?$allocator@D@2@@std@@VPortInfo@BT@@@std@@PEAX@1@PEBV?$_List_val@U?$_List_simple_types@U?$pair@$$CBV?$basic_string@DU?$char_traits@D@std@@V?$allocator@D@2@@std@@VPortInfo@BT@@@std@@@std@@@1@@Z
	??0?$_List_iterator@V?$_List_val@U?$_List_simple_types@U?$pair@$$CBV?$basic_string@DU?$char_traits@D@std@@V?$allocator@D@2@@std@@UEntry@Blackboard@BT@@@std@@@std@@@std@@@std@@QEAA@PEAU?$_List_node@U?$pair@$$CBV?$basic_string@DU?$char_traits@D@std@@V?$allocator@D@2@@std@@UEntry@Blackboard@BT@@@std@@PEAX@1@PEBV?$_List_val@U?$_List_simple_types@U?$pair@$$CBV?$basic_string@DU?$char_traits@D@std@@V?$allocator@D@2@@std@@UEntry@Blackboard@BT@@@std@@@std@@@1@@Z
	??0?$_List_iterator@V?$_List_val@U?$_List_simple_types@U?$pair@$$CBV?$basic_string@DU?$char_traits@D@std@@V?$allocator@D@2@@std@@V12@@std@@@std@@@std@@@std@@QEAA@PEAU?$_List_node@U?$pair@$$CBV?$basic_string@DU?$char_traits@D@std@@V?$allocator@D@2@@std@@V12@@std@@PEAX@1@PEBV?$_List_val@U?$_List_simple_types@U?$pair@$$CBV?$basic_string@DU?$char_traits@D@std@@V?$allocator@D@2@@std@@V12@@std@@@std@@@1@@Z
	??0?$_List_iterator@V?$_List_val@U?$_List_simple_types@U?$pair@$$CBV?$basic_string@DU?$char_traits@D@std@@V?$allocator@D@2@@std@@VPortInfo@BT@@@std@@@std@@@std@@@std@@QEAA@PEAU?$_List_node@U?$pair@$$CBV?$basic_string@DU?$char_traits@D@std@@V?$allocator@D@2@@std@@VPortInfo@BT@@@std@@PEAX@1@PEBV?$_List_val@U?$_List_simple_types@U?$pair@$$CBV?$basic_string@DU?$char_traits@D@std@@V?$allocator@D@2@@std@@VPortInfo@BT@@@std@@@std@@@1@@Z
	??0?$_List_node_insert_op2@V?$allocator@U?$_List_node@U?$pair@$$CBV?$basic_string@DU?$char_traits@D@std@@V?$allocator@D@2@@std@@V12@@std@@PEAX@std@@@std@@@std@@QEAA@AEAV?$allocator@U?$_List_node@U?$pair@$$CBV?$basic_string@DU?$char_traits@D@std@@V?$allocator@D@2@@std@@V12@@std@@PEAX@std@@@1@@Z
	??0?$_List_unchecked_const_iterator@V?$_List_val@U?$_List_simple_types@U?$pair@$$CBV?$basic_string@DU?$char_traits@D@std@@V?$allocator@D@2@@std@@UEntry@Blackboard@BT@@@std@@@std@@@std@@U_Iterator_base0@2@@std@@QEAA@PEAU?$_List_node@U?$pair@$$CBV?$basic_string@DU?$char_traits@D@std@@V?$allocator@D@2@@std@@UEntry@Blackboard@BT@@@std@@PEAX@1@PEBV?$_List_val@U?$_List_simple_types@U?$pair@$$CBV?$basic_string@DU?$char_traits@D@std@@V?$allocator@D@2@@std@@UEntry@Blackboard@BT@@@std@@@std@@@1@@Z
	??0?$_List_unchecked_const_iterator@V?$_List_val@U?$_List_simple_types@U?$pair@$$CBV?$basic_string@DU?$char_traits@D@std@@V?$allocator@D@2@@std@@V12@@std@@@std@@@std@@U_Iterator_base0@2@@std@@QEAA@PEAU?$_List_node@U?$pair@$$CBV?$basic_string@DU?$char_traits@D@std@@V?$allocator@D@2@@std@@V12@@std@@PEAX@1@PEBV?$_List_val@U?$_List_simple_types@U?$pair@$$CBV?$basic_string@DU?$char_traits@D@std@@V?$allocator@D@2@@std@@V12@@std@@@std@@@1@@Z
	??0?$_List_unchecked_const_iterator@V?$_List_val@U?$_List_simple_types@U?$pair@$$CBV?$basic_string@DU?$char_traits@D@std@@V?$allocator@D@2@@std@@VPortInfo@BT@@@std@@@std@@@std@@U_Iterator_base0@2@@std@@QEAA@PEAU?$_List_node@U?$pair@$$CBV?$basic_string@DU?$char_traits@D@std@@V?$allocator@D@2@@std@@VPortInfo@BT@@@std@@PEAX@1@PEBV?$_List_val@U?$_List_simple_types@U?$pair@$$CBV?$basic_string@DU?$char_traits@D@std@@V?$allocator@D@2@@std@@VPortInfo@BT@@@std@@@std@@@1@@Z
	??0?$_List_unchecked_iterator@V?$_List_val@U?$_List_simple_types@U?$pair@$$CBV?$basic_string@DU?$char_traits@D@std@@V?$allocator@D@2@@std@@V12@@std@@@std@@@std@@@std@@QEAA@PEAU?$_List_node@U?$pair@$$CBV?$basic_string@DU?$char_traits@D@std@@V?$allocator@D@2@@std@@V12@@std@@PEAX@1@PEBV?$_List_val@U?$_List_simple_types@U?$pair@$$CBV?$basic_string@DU?$char_traits@D@std@@V?$allocator@D@2@@std@@V12@@std@@@std@@@1@@Z
	??0?$_List_unchecked_iterator@V?$_List_val@U?$_List_simple_types@U?$pair@$$CBV?$basic_string@DU?$char_traits@D@std@@V?$allocator@D@2@@std@@VPortInfo@BT@@@std@@@std@@@std@@@std@@QEAA@PEAU?$_List_node@U?$pair@$$CBV?$basic_string@DU?$char_traits@D@std@@V?$allocator@D@2@@std@@VPortInfo@BT@@@std@@PEAX@1@PEBV?$_List_val@U?$_List_simple_types@U?$pair@$$CBV?$basic_string@DU?$char_traits@D@std@@V?$allocator@D@2@@std@@VPortInfo@BT@@@std@@@std@@@1@@Z
	??0?$_List_val@U?$_List_simple_types@U?$pair@$$CBV?$basic_string@DU?$char_traits@D@std@@V?$allocator@D@2@@std@@V12@@std@@@std@@@std@@QEAA@XZ
	??0?$_List_val@U?$_List_simple_types@U?$pair@$$CBV?$basic_string@DU?$char_traits@D@std@@V?$allocator@D@2@@std@@VPortInfo@BT@@@std@@@std@@@std@@QEAA@XZ
	??0?$_Ptr_base@V?$unordered_map@V?$basic_string@DU?$char_traits@D@std@@V?$allocator@D@2@@std@@HU?$hash@V?$basic_string@DU?$char_traits@D@std@@V?$allocator@D@2@@std@@@2@U?$equal_to@V?$basic_string@DU?$char_traits@D@std@@V?$allocator@D@2@@std@@@2@V?$allocator@U?$pair@$$CBV?$basic_string@DU?$char_traits@D@std@@V?$allocator@D@2@@std@@H@std@@@2@@std@@@std@@IEAA@XZ
	??0?$_Ptr_base@VBlackboard@BT@@@std@@IEAA@XZ
	??0?$_String_val@U?$_Simple_types@D@std@@@std@@QEAA@XZ
	??0?$_Tree@V?$_Tmap_traits@W4PostCond@BT@@V?$basic_string@DU?$char_traits@D@std@@V?$allocator@D@2@@std@@U?$less@W4PostCond@BT@@@4@V?$allocator@U?$pair@$$CBW4PostCond@BT@@V?$basic_string@DU?$char_traits@D@std@@V?$allocator@D@2@@std@@@std@@@4@$0A@@std@@@std@@QEAA@AEBU?$less@W4PostCond@BT@@@1@@Z
	??0?$_Tree@V?$_Tmap_traits@W4PreCond@BT@@V?$basic_string@DU?$char_traits@D@std@@V?$allocator@D@2@@std@@U?$less@W4PreCond@BT@@@4@V?$allocator@U?$pair@$$CBW4PreCond@BT@@V?$basic_string@DU?$char_traits@D@std@@V?$allocator@D@2@@std@@@std@@@4@$0A@@std@@@std@@QEAA@AEBU?$less@W4PreCond@BT@@@1@@Z
	??0?$_Tree_val@U?$_Tree_simple_types@U?$pair@$$CBW4PostCond@BT@@V?$basic_string@DU?$char_traits@D@std@@V?$allocator@D@2@@std@@@std@@@std@@@std@@QEAA@XZ
	??0?$_Tree_val@U?$_Tree_simple_types@U?$pair@$$CBW4PreCond@BT@@V?$basic_string@DU?$char_traits@D@std@@V?$allocator@D@2@@std@@@std@@@std@@@std@@QEAA@XZ
	??0?$_Uhash_compare@V?$basic_string@DU?$char_traits@D@std@@V?$allocator@D@2@@std@@U?$hash@V?$basic_string@DU?$char_traits@D@std@@V?$allocator@D@2@@std@@@2@U?$equal_to@V?$basic_string@DU?$char_traits@D@std@@V?$allocator@D@2@@std@@@2@@std@@QEAA@XZ
	??0?$_Umap_traits@V?$basic_string@DU?$char_traits@D@std@@V?$allocator@D@2@@std@@V12@V?$_Uhash_compare@V?$basic_string@DU?$char_traits@D@std@@V?$allocator@D@2@@std@@U?$hash@V?$basic_string@DU?$char_traits@D@std@@V?$allocator@D@2@@std@@@2@U?$equal_to@V?$basic_string@DU?$char_traits@D@std@@V?$allocator@D@2@@std@@@2@@2@V?$allocator@U?$pair@$$CBV?$basic_string@DU?$char_traits@D@std@@V?$allocator@D@2@@std@@V12@@std@@@2@$0A@@std@@QEAA@AEBV?$_Uhash_compare@V?$basic_string@DU?$char_traits@D@std@@V?$allocator@D@2@@std@@U?$hash@V?$basic_string@DU?$char_traits@D@std@@V?$allocator@D@2@@std@@@2@U?$equal_to@V?$basic_string@DU?$char_traits@D@std@@V?$allocator@D@2@@std@@@2@@1@@Z
	??0?$_Umap_traits@V?$basic_string@DU?$char_traits@D@std@@V?$allocator@D@2@@std@@VPortInfo@BT@@V?$_Uhash_compare@V?$basic_string@DU?$char_traits@D@std@@V?$allocator@D@2@@std@@U?$hash@V?$basic_string@DU?$char_traits@D@std@@V?$allocator@D@2@@std@@@2@U?$equal_to@V?$basic_string@DU?$char_traits@D@std@@V?$allocator@D@2@@std@@@2@@2@V?$allocator@U?$pair@$$CBV?$basic_string@DU?$char_traits@D@std@@V?$allocator@D@2@@std@@VPortInfo@BT@@@std@@@2@$0A@@std@@QEAA@AEBV?$_Uhash_compare@V?$basic_string@DU?$char_traits@D@std@@V?$allocator@D@2@@std@@U?$hash@V?$basic_string@DU?$char_traits@D@std@@V?$allocator@D@2@@std@@@2@U?$equal_to@V?$basic_string@DU?$char_traits@D@std@@V?$allocator@D@2@@std@@@2@@1@@Z
	??0?$_Uninitialized_backout@PEAV?$_List_unchecked_iterator@V?$_List_val@U?$_List_simple_types@U?$pair@$$CBV?$basic_string@DU?$char_traits@D@std@@V?$allocator@D@2@@std@@V12@@std@@@std@@@std@@@std@@@std@@QEAA@PEAV?$_List_unchecked_iterator@V?$_List_val@U?$_List_simple_types@U?$pair@$$CBV?$basic_string@DU?$char_traits@D@std@@V?$allocator@D@2@@std@@V12@@std@@@std@@@std@@@1@@Z
	??0?$_Uninitialized_backout@PEAV?$_List_unchecked_iterator@V?$_List_val@U?$_List_simple_types@U?$pair@$$CBV?$basic_string@DU?$char_traits@D@std@@V?$allocator@D@2@@std@@VPortInfo@BT@@@std@@@std@@@std@@@std@@@std@@QEAA@PEAV?$_List_unchecked_iterator@V?$_List_val@U?$_List_simple_types@U?$pair@$$CBV?$basic_string@DU?$char_traits@D@std@@V?$allocator@D@2@@std@@VPortInfo@BT@@@std@@@std@@@std@@@1@@Z
	??0?$_Vector_val@U?$_Simple_types@V?$_List_unchecked_iterator@V?$_List_val@U?$_List_simple_types@U?$pair@$$CBV?$basic_string@DU?$char_traits@D@std@@V?$allocator@D@2@@std@@V12@@std@@@std@@@std@@@std@@@std@@@std@@QEAA@XZ
	??0?$_Vector_val@U?$_Simple_types@V?$_List_unchecked_iterator@V?$_List_val@U?$_List_simple_types@U?$pair@$$CBV?$basic_string@DU?$char_traits@D@std@@V?$allocator@D@2@@std@@VPortInfo@BT@@@std@@@std@@@std@@@std@@@std@@@std@@QEAA@XZ
	??0?$allocator@D@std@@QEAA@XZ
	??0?$allocator@U?$_Tree_node@U?$pair@$$CBW4PostCond@BT@@V?$basic_string@DU?$char_traits@D@std@@V?$allocator@D@2@@std@@@std@@PEAX@std@@@std@@QEAA@XZ
	??0?$allocator@U?$_Tree_node@U?$pair@$$CBW4PreCond@BT@@V?$basic_string@DU?$char_traits@D@std@@V?$allocator@D@2@@std@@@std@@PEAX@std@@@std@@QEAA@XZ
	??0?$allocator@U?$pair@$$CBV?$basic_string@DU?$char_traits@D@std@@V?$allocator@D@2@@std@@V12@@std@@@std@@QEAA@XZ
	??0?$allocator@U?$pair@$$CBV?$basic_string@DU?$char_traits@D@std@@V?$allocator@D@2@@std@@VPortInfo@BT@@@std@@@std@@QEAA@XZ
	??0?$bad_expected_access@V?$basic_string@DU?$char_traits@D@std@@V?$allocator@D@2@@std@@@expected_lite@nonstd@@QEAA@AEBV012@@Z
	??0?$bad_expected_access@V?$basic_string@DU?$char_traits@D@std@@V?$allocator@D@2@@std@@@expected_lite@nonstd@@QEAA@V?$basic_string@DU?$char_traits@D@std@@V?$allocator@D@2@@std@@@Z
	??0?$bad_expected_access@X@expected_lite@nonstd@@QEAA@AEBV012@@Z
	??0?$bad_expected_access@X@expected_lite@nonstd@@QEAA@XZ
	??0?$basic_string@DU?$char_traits@D@std@@V?$allocator@D@2@@std@@QEAA@$$QEAV01@@Z
	??0?$basic_string@DU?$char_traits@D@std@@V?$allocator@D@2@@std@@QEAA@AEBV01@@Z
	??0?$basic_string@DU?$char_traits@D@std@@V?$allocator@D@2@@std@@QEAA@QEBD@Z
	??0?$basic_string@DU?$char_traits@D@std@@V?$allocator@D@2@@std@@QEAA@QEBD_K@Z
	??0?$basic_string@DU?$char_traits@D@std@@V?$allocator@D@2@@std@@QEAA@XZ
	??0?$basic_string@DU?$char_traits@D@std@@V?$allocator@D@2@@std@@QEAA@_KD@Z
	??0?$basic_string_view@DU?$char_traits@D@std@@@std@@QEAA@QEBD@Z
	??0?$basic_string_view@DU?$char_traits@D@std@@@std@@QEAA@QEBD_K@Z
	??0?$basic_string_view@DU?$char_traits@D@std@@@std@@QEAA@XZ
	??0?$expected@V?$basic_string@DU?$char_traits@D@std@@V?$allocator@D@2@@std@@V12@@expected_lite@nonstd@@QEAA@$$QEAV012@@Z
	??0?$function@$$A6A?AVAny@BT@@V?$basic_string_view@DU?$char_traits@D@std@@@std@@@Z@std@@QEAA@$$QEAV01@@Z
	??0?$function@$$A6A?AVAny@BT@@V?$basic_string_view@DU?$char_traits@D@std@@@std@@@Z@std@@QEAA@AEBV01@@Z
	??0?$function@$$A6A?AVAny@BT@@V?$basic_string_view@DU?$char_traits@D@std@@@std@@@Z@std@@QEAA@XZ
	??0?$initializer_list@U?$pair@$$CBV?$basic_string@DU?$char_traits@D@std@@V?$allocator@D@2@@std@@VPortInfo@BT@@@std@@@std@@QEAA@PEBU?$pair@$$CBV?$basic_string@DU?$char_traits@D@std@@V?$allocator@D@2@@std@@VPortInfo@BT@@@1@0@Z
	??0?$initializer_list@V?$basic_string_view@DU?$char_traits@D@std@@@std@@@std@@QEAA@PEBV?$basic_string_view@DU?$char_traits@D@std@@@1@0@Z
	??0?$list@U?$pair@$$CBV?$basic_string@DU?$char_traits@D@std@@V?$allocator@D@2@@std@@V12@@std@@V?$allocator@U?$pair@$$CBV?$basic_string@DU?$char_traits@D@std@@V?$allocator@D@2@@std@@V12@@std@@@2@@std@@QEAA@AEBV?$allocator@U?$pair@$$CBV?$basic_string@DU?$char_traits@D@std@@V?$allocator@D@2@@std@@V12@@std@@@1@@Z
	??0?$list@U?$pair@$$CBV?$basic_string@DU?$char_traits@D@std@@V?$allocator@D@2@@std@@VPortInfo@BT@@@std@@V?$allocator@U?$pair@$$CBV?$basic_string@DU?$char_traits@D@std@@V?$allocator@D@2@@std@@VPortInfo@BT@@@std@@@2@@std@@QEAA@AEBV?$allocator@U?$pair@$$CBV?$basic_string@DU?$char_traits@D@std@@V?$allocator@D@2@@std@@VPortInfo@BT@@@std@@@1@@Z
	??0?$map@W4PostCond@BT@@V?$basic_string@DU?$char_traits@D@std@@V?$allocator@D@2@@std@@U?$less@W4PostCond@BT@@@4@V?$allocator@U?$pair@$$CBW4PostCond@BT@@V?$basic_string@DU?$char_traits@D@std@@V?$allocator@D@2@@std@@@std@@@4@@std@@QEAA@XZ
	??0?$map@W4PreCond@BT@@V?$basic_string@DU?$char_traits@D@std@@V?$allocator@D@2@@std@@U?$less@W4PreCond@BT@@@4@V?$allocator@U?$pair@$$CBW4PreCond@BT@@V?$basic_string@DU?$char_traits@D@std@@V?$allocator@D@2@@std@@@std@@@4@@std@@QEAA@XZ
	??0?$pair@$$CBV?$basic_string@DU?$char_traits@D@std@@V?$allocator@D@2@@std@@V12@@std@@QEAA@AEBU01@@Z
	??0?$pair@$$CBV?$basic_string@DU?$char_traits@D@std@@V?$allocator@D@2@@std@@VPortInfo@BT@@@std@@QEAA@AEBU01@@Z
	??0?$pair@$$CBW4PostCond@BT@@V?$basic_string@DU?$char_traits@D@std@@V?$allocator@D@2@@std@@@std@@QEAA@AEBU01@@Z
	??0?$pair@$$CBW4PreCond@BT@@V?$basic_string@DU?$char_traits@D@std@@V?$allocator@D@2@@std@@@std@@QEAA@AEBU01@@Z
	??0?$pair@V?$basic_string@DU?$char_traits@D@std@@V?$allocator@D@2@@std@@VPortInfo@BT@@@std@@QEAA@$$QEAU01@@Z
	??0?$shared_ptr@V?$unordered_map@V?$basic_string@DU?$char_traits@D@std@@V?$allocator@D@2@@std@@HU?$hash@V?$basic_string@DU?$char_traits@D@std@@V?$allocator@D@2@@std@@@2@U?$equal_to@V?$basic_string@DU?$char_traits@D@std@@V?$allocator@D@2@@std@@@2@V?$allocator@U?$pair@$$CBV?$basic_string@DU?$char_traits@D@std@@V?$allocator@D@2@@std@@H@std@@@2@@std@@@std@@QEAA@AEBV01@@Z
	??0?$shared_ptr@V?$unordered_map@V?$basic_string@DU?$char_traits@D@std@@V?$allocator@D@2@@std@@HU?$hash@V?$basic_string@DU?$char_traits@D@std@@V?$allocator@D@2@@std@@@2@U?$equal_to@V?$basic_string@DU?$char_traits@D@std@@V?$allocator@D@2@@std@@@2@V?$allocator@U?$pair@$$CBV?$basic_string@DU?$char_traits@D@std@@V?$allocator@D@2@@std@@H@std@@@2@@std@@@std@@QEAA@XZ
	??0?$shared_ptr@VBlackboard@BT@@@std@@QEAA@$$QEAV01@@Z
	??0?$shared_ptr@VBlackboard@BT@@@std@@QEAA@AEBV01@@Z
	??0?$shared_ptr@VBlackboard@BT@@@std@@QEAA@XZ
	??0?$storage_t@Umonostate@std@@V?$basic_string@DU?$char_traits@D@std@@V?$allocator@D@2@@2@$00$00@detail@expected_lite@nonstd@@QEAA@_N@Z
	??0?$storage_t@V?$basic_string@DU?$char_traits@D@std@@V?$allocator@D@2@@std@@V12@$00$00@detail@expected_lite@nonstd@@QEAA@$$QEAV0123@@Z
	??0?$storage_t@V?$basic_string@DU?$char_traits@D@std@@V?$allocator@D@2@@std@@V12@$00$00@detail@expected_lite@nonstd@@QEAA@_N@Z
	??0?$storage_t_impl@Umonostate@std@@V?$basic_string@DU?$char_traits@D@std@@V?$allocator@D@2@@2@@detail@expected_lite@nonstd@@QEAA@_N@Z
	??0?$storage_t_impl@V?$basic_string@DU?$char_traits@D@std@@V?$allocator@D@2@@std@@V12@@detail@expected_lite@nonstd@@QEAA@_N@Z
	??0?$tuple@$$V@std@@QEAA@AEBV01@@Z
	??0?$tuple@PEAVGripperInterface@DummyNodes@@@std@@QEAA@$$QEAV01@@Z
	??0?$tuple@PEAVGripperInterface@DummyNodes@@@std@@QEAA@AEBV01@@Z
	??0?$unique_lock@Vmutex@std@@@std@@QEAA@AEAVmutex@1@@Z
	??0?$unordered_map@V?$basic_string@DU?$char_traits@D@std@@V?$allocator@D@2@@std@@V12@U?$hash@V?$basic_string@DU?$char_traits@D@std@@V?$allocator@D@2@@std@@@2@U?$equal_to@V?$basic_string@DU?$char_traits@D@std@@V?$allocator@D@2@@std@@@2@V?$allocator@U?$pair@$$CBV?$basic_string@DU?$char_traits@D@std@@V?$allocator@D@2@@std@@V12@@std@@@2@@std@@QEAA@XZ
	??0?$unordered_map@V?$basic_string@DU?$char_traits@D@std@@V?$allocator@D@2@@std@@VPortInfo@BT@@U?$hash@V?$basic_string@DU?$char_traits@D@std@@V?$allocator@D@2@@std@@@2@U?$equal_to@V?$basic_string@DU?$char_traits@D@std@@V?$allocator@D@2@@std@@@2@V?$allocator@U?$pair@$$CBV?$basic_string@DU?$char_traits@D@std@@V?$allocator@D@2@@std@@VPortInfo@BT@@@std@@@2@@std@@QEAA@AEBV01@@Z
	??0?$unordered_map@V?$basic_string@DU?$char_traits@D@std@@V?$allocator@D@2@@std@@VPortInfo@BT@@U?$hash@V?$basic_string@DU?$char_traits@D@std@@V?$allocator@D@2@@std@@@2@U?$equal_to@V?$basic_string@DU?$char_traits@D@std@@V?$allocator@D@2@@std@@@2@V?$allocator@U?$pair@$$CBV?$basic_string@DU?$char_traits@D@std@@V?$allocator@D@2@@std@@VPortInfo@BT@@@std@@@2@@std@@QEAA@V?$initializer_list@U?$pair@$$CBV?$basic_string@DU?$char_traits@D@std@@V?$allocator@D@2@@std@@VPortInfo@BT@@@std@@@1@@Z
	??0?$unordered_map@V?$basic_string@DU?$char_traits@D@std@@V?$allocator@D@2@@std@@VPortInfo@BT@@U?$hash@V?$basic_string@DU?$char_traits@D@std@@V?$allocator@D@2@@std@@@2@U?$equal_to@V?$basic_string@DU?$char_traits@D@std@@V?$allocator@D@2@@std@@@2@V?$allocator@U?$pair@$$CBV?$basic_string@DU?$char_traits@D@std@@V?$allocator@D@2@@std@@VPortInfo@BT@@@std@@@2@@std@@QEAA@XZ
	??0Any@BT@@QEAA@AEBV?$basic_string@DU?$char_traits@D@std@@V?$allocator@D@2@@std@@@Z
	??0ApproachObject@DummyNodes@@QEAA@AEBV?$basic_string@DU?$char_traits@D@std@@V?$allocator@D@2@@std@@@Z
	??0BehaviorTreeException@BT@@QEAA@AEBV01@@Z
	??0GripperInterface@DummyNodes@@QEAA@XZ
	??0NodeConfig@BT@@QEAA@XZ
	??0PortInfo@BT@@QEAA@$$QEAV01@@Z
	??0PortInfo@BT@@QEAA@AEBV01@@Z
	??0PortInfo@BT@@QEAA@W4PortDirection@1@@Z
	??0PortInfo@BT@@QEAA@W4PortDirection@1@Vtype_index@std@@V?$function@$$A6A?AVAny@BT@@V?$basic_string_view@DU?$char_traits@D@std@@@std@@@Z@4@@Z
	??0RuntimeError@BT@@QEAA@AEBV01@@Z
	??0SaySomething@DummyNodes@@QEAA@AEBV?$basic_string@DU?$char_traits@D@std@@V?$allocator@D@2@@std@@AEBUNodeConfig@BT@@@Z
	??0SimpleString@SafeAny@@QEAA@$$QEAV01@@Z
	??0SimpleString@SafeAny@@QEAA@AEBV01@@Z
	??0SimpleString@SafeAny@@QEAA@AEBV?$basic_string@DU?$char_traits@D@std@@V?$allocator@D@2@@std@@@Z
	??0SimpleString@SafeAny@@QEAA@PEBD_K@Z
	??0_Bxty@?$_String_val@U?$_Simple_types@D@std@@@std@@QEAA@XZ
	??0_Clear_guard@?$_Hash@V?$_Umap_traits@V?$basic_string@DU?$char_traits@D@std@@V?$allocator@D@2@@std@@V12@V?$_Uhash_compare@V?$basic_string@DU?$char_traits@D@std@@V?$allocator@D@2@@std@@U?$hash@V?$basic_string@DU?$char_traits@D@std@@V?$allocator@D@2@@std@@@2@U?$equal_to@V?$basic_string@DU?$char_traits@D@std@@V?$allocator@D@2@@std@@@2@@2@V?$allocator@U?$pair@$$CBV?$basic_string@DU?$char_traits@D@std@@V?$allocator@D@2@@std@@V12@@std@@@2@$0A@@std@@@std@@QEAA@QEAV12@@Z
	??0_Clear_guard@?$_Hash@V?$_Umap_traits@V?$basic_string@DU?$char_traits@D@std@@V?$allocator@D@2@@std@@VPortInfo@BT@@V?$_Uhash_compare@V?$basic_string@DU?$char_traits@D@std@@V?$allocator@D@2@@std@@U?$hash@V?$basic_string@DU?$char_traits@D@std@@V?$allocator@D@2@@std@@@2@U?$equal_to@V?$basic_string@DU?$char_traits@D@std@@V?$allocator@D@2@@std@@@2@@2@V?$allocator@U?$pair@$$CBV?$basic_string@DU?$char_traits@D@std@@V?$allocator@D@2@@std@@VPortInfo@BT@@@std@@@2@$0A@@std@@@std@@QEAA@QEAV12@@Z
	??0_Fake_proxy_ptr_impl@std@@QEAA@AEBU_Fake_allocator@1@AEBU_Container_base0@1@@Z
	??0_Range_eraser@?$_Hash@V?$_Umap_traits@V?$basic_string@DU?$char_traits@D@std@@V?$allocator@D@2@@std@@V12@V?$_Uhash_compare@V?$basic_string@DU?$char_traits@D@std@@V?$allocator@D@2@@std@@U?$hash@V?$basic_string@DU?$char_traits@D@std@@V?$allocator@D@2@@std@@@2@U?$equal_to@V?$basic_string@DU?$char_traits@D@std@@V?$allocator@D@2@@std@@@2@@2@V?$allocator@U?$pair@$$CBV?$basic_string@DU?$char_traits@D@std@@V?$allocator@D@2@@std@@V12@@std@@@2@$0A@@std@@@std@@QEAA@AEAV?$list@U?$pair@$$CBV?$basic_string@DU?$char_traits@D@std@@V?$allocator@D@2@@std@@V12@@std@@V?$allocator@U?$pair@$$CBV?$basic_string@DU?$char_traits@D@std@@V?$allocator@D@2@@std@@V12@@std@@@2@@2@QEAU?$_List_node@U?$pair@$$CBV?$basic_string@DU?$char_traits@D@std@@V?$allocator@D@2@@std@@V12@@std@@PEAX@2@@Z
	??0_Range_eraser@?$_Hash@V?$_Umap_traits@V?$basic_string@DU?$char_traits@D@std@@V?$allocator@D@2@@std@@VPortInfo@BT@@V?$_Uhash_compare@V?$basic_string@DU?$char_traits@D@std@@V?$allocator@D@2@@std@@U?$hash@V?$basic_string@DU?$char_traits@D@std@@V?$allocator@D@2@@std@@@2@U?$equal_to@V?$basic_string@DU?$char_traits@D@std@@V?$allocator@D@2@@std@@@2@@2@V?$allocator@U?$pair@$$CBV?$basic_string@DU?$char_traits@D@std@@V?$allocator@D@2@@std@@VPortInfo@BT@@@std@@@2@$0A@@std@@@std@@QEAA@AEAV?$list@U?$pair@$$CBV?$basic_string@DU?$char_traits@D@std@@V?$allocator@D@2@@std@@VPortInfo@BT@@@std@@V?$allocator@U?$pair@$$CBV?$basic_string@DU?$char_traits@D@std@@V?$allocator@D@2@@std@@VPortInfo@BT@@@std@@@2@@2@QEAU?$_List_node@U?$pair@$$CBV?$basic_string@DU?$char_traits@D@std@@V?$allocator@D@2@@std@@VPortInfo@BT@@@std@@PEAX@2@@Z
	??0_Sentry_base@?$basic_ostream@DU?$char_traits@D@std@@@std@@QEAA@AEAV12@@Z
	??0bad_alloc@std@@AEAA@QEBD@Z
	??0bad_alloc@std@@QEAA@AEBV01@@Z
	??0bad_any_cast@linb@@QEAA@AEBV01@@Z
	??0bad_any_cast@linb@@QEAA@XZ
	??0bad_array_new_length@std@@QEAA@AEBV01@@Z
	??0bad_array_new_length@std@@QEAA@XZ
	??0bad_cast@std@@QEAA@AEBV01@@Z
	??0bad_cast@std@@QEAA@XZ
	??0exception@std@@QEAA@AEBV01@@Z
	??0exception@std@@QEAA@QEBD@Z
	??0exception@std@@QEAA@QEBDH@Z
	??0exception@std@@QEAA@XZ
	??0runtime_error@std@@QEAA@AEBV01@@Z
	??0runtime_error@std@@QEAA@AEBV?$basic_string@DU?$char_traits@D@std@@V?$allocator@D@2@@1@@Z
	??0runtime_error@std@@QEAA@PEBD@Z
	??0scoped_demangled_name@BT@@QEAA@PEBD@Z
	??0sentry@?$basic_ostream@DU?$char_traits@D@std@@@std@@QEAA@AEAV12@@Z
	??0type_index@std@@QEAA@AEBVtype_info@@@Z
	??1?$Signal@V?$time_point@Usteady_clock@chrono@std@@V?$duration@_JU?$ratio@$00$0DLJKMKAA@@std@@@23@@chrono@std@@AEBVTreeNode@BT@@W4NodeStatus@5@W465@@BT@@QEAA@XZ
	??1?$_Alloc_construct_ptr@V?$allocator@U?$_List_node@U?$pair@$$CBV?$basic_string@DU?$char_traits@D@std@@V?$allocator@D@2@@std@@V12@@std@@PEAX@std@@@std@@@std@@QEAA@XZ
	??1?$_Alloc_construct_ptr@V?$allocator@U?$_List_node@U?$pair@$$CBV?$basic_string@DU?$char_traits@D@std@@V?$allocator@D@2@@std@@VPortInfo@BT@@@std@@PEAX@std@@@std@@@std@@QEAA@XZ
	??1?$_Alloc_construct_ptr@V?$allocator@U?$_Tree_node@U?$pair@$$CBW4PostCond@BT@@V?$basic_string@DU?$char_traits@D@std@@V?$allocator@D@2@@std@@@std@@PEAX@std@@@std@@@std@@QEAA@XZ
	??1?$_Alloc_construct_ptr@V?$allocator@U?$_Tree_node@U?$pair@$$CBW4PreCond@BT@@V?$basic_string@DU?$char_traits@D@std@@V?$allocator@D@2@@std@@@std@@PEAX@std@@@std@@@std@@QEAA@XZ
	??1?$_Compressed_pair@V?$allocator@D@std@@V?$_String_val@U?$_Simple_types@D@std@@@2@$00@std@@QEAA@XZ
	??1?$_Func_class@V?$expected@W4NodeStatus@BT@@V?$basic_string@DU?$char_traits@D@std@@V?$allocator@D@2@@std@@@expected_lite@nonstd@@AEAVTreeNode@BT@@W4NodeStatus@5@@std@@QEAA@XZ
	??1?$_Func_class@V?$expected@W4NodeStatus@BT@@V?$basic_string@DU?$char_traits@D@std@@V?$allocator@D@2@@std@@@expected_lite@nonstd@@AEAVTreeNode@BT@@W4NodeStatus@5@W465@@std@@QEAA@XZ
	??1?$_Func_class@V?$unique_ptr@VTreeNode@BT@@U?$default_delete@VTreeNode@BT@@@std@@@std@@AEBV?$basic_string@DU?$char_traits@D@std@@V?$allocator@D@2@@2@AEBUNodeConfig@BT@@@std@@QEAA@XZ
	??1?$_Func_class@VAny@BT@@AEAUEnvironment@Ast@2@@std@@QEAA@XZ
	??1?$_Func_class@VAny@BT@@V?$basic_string_view@DU?$char_traits@D@std@@@std@@@std@@QEAA@XZ
	??1?$_Func_class@W4NodeStatus@BT@@AEAVTreeNode@2@@std@@QEAA@XZ
	??1?$_Hash@V?$_Umap_traits@V?$basic_string@DU?$char_traits@D@std@@V?$allocator@D@2@@std@@V12@V?$_Uhash_compare@V?$basic_string@DU?$char_traits@D@std@@V?$allocator@D@2@@std@@U?$hash@V?$basic_string@DU?$char_traits@D@std@@V?$allocator@D@2@@std@@@2@U?$equal_to@V?$basic_string@DU?$char_traits@D@std@@V?$allocator@D@2@@std@@@2@@2@V?$allocator@U?$pair@$$CBV?$basic_string@DU?$char_traits@D@std@@V?$allocator@D@2@@std@@V12@@std@@@2@$0A@@std@@@std@@QEAA@XZ
	??1?$_Hash@V?$_Umap_traits@V?$basic_string@DU?$char_traits@D@std@@V?$allocator@D@2@@std@@VPortInfo@BT@@V?$_Uhash_compare@V?$basic_string@DU?$char_traits@D@std@@V?$allocator@D@2@@std@@U?$hash@V?$basic_string@DU?$char_traits@D@std@@V?$allocator@D@2@@std@@@2@U?$equal_to@V?$basic_string@DU?$char_traits@D@std@@V?$allocator@D@2@@std@@@2@@2@V?$allocator@U?$pair@$$CBV?$basic_string@DU?$char_traits@D@std@@V?$allocator@D@2@@std@@VPortInfo@BT@@@std@@@2@$0A@@std@@@std@@QEAA@XZ
	??1?$_Hash_vec@V?$allocator@V?$_List_unchecked_iterator@V?$_List_val@U?$_List_simple_types@U?$pair@$$CBV?$basic_string@DU?$char_traits@D@std@@V?$allocator@D@2@@std@@V12@@std@@@std@@@std@@@std@@@std@@@std@@QEAA@XZ
	??1?$_Hash_vec@V?$allocator@V?$_List_unchecked_iterator@V?$_List_val@U?$_List_simple_types@U?$pair@$$CBV?$basic_string@DU?$char_traits@D@std@@V?$allocator@D@2@@std@@VPortInfo@BT@@@std@@@std@@@std@@@std@@@std@@@std@@QEAA@XZ
	??1?$_List_node_emplace_op2@V?$allocator@U?$_List_node@U?$pair@$$CBV?$basic_string@DU?$char_traits@D@std@@V?$allocator@D@2@@std@@VPortInfo@BT@@@std@@PEAX@std@@@std@@@std@@QEAA@XZ
	??1?$_List_node_insert_op2@V?$allocator@U?$_List_node@U?$pair@$$CBV?$basic_string@DU?$char_traits@D@std@@V?$allocator@D@2@@std@@V12@@std@@PEAX@std@@@std@@@std@@QEAA@XZ
	??1?$_String_val@U?$_Simple_types@D@std@@@std@@QEAA@XZ
	??1?$_Tree@V?$_Tmap_traits@W4PostCond@BT@@V?$basic_string@DU?$char_traits@D@std@@V?$allocator@D@2@@std@@U?$less@W4PostCond@BT@@@4@V?$allocator@U?$pair@$$CBW4PostCond@BT@@V?$basic_string@DU?$char_traits@D@std@@V?$allocator@D@2@@std@@@std@@@4@$0A@@std@@@std@@QEAA@XZ
	??1?$_Tree@V?$_Tmap_traits@W4PreCond@BT@@V?$basic_string@DU?$char_traits@D@std@@V?$allocator@D@2@@std@@U?$less@W4PreCond@BT@@@4@V?$allocator@U?$pair@$$CBW4PreCond@BT@@V?$basic_string@DU?$char_traits@D@std@@V?$allocator@D@2@@std@@@std@@@4@$0A@@std@@@std@@QEAA@XZ
	??1?$_Uninitialized_backout@PEAV?$_List_unchecked_iterator@V?$_List_val@U?$_List_simple_types@U?$pair@$$CBV?$basic_string@DU?$char_traits@D@std@@V?$allocator@D@2@@std@@V12@@std@@@std@@@std@@@std@@@std@@QEAA@XZ
	??1?$_Uninitialized_backout@PEAV?$_List_unchecked_iterator@V?$_List_val@U?$_List_simple_types@U?$pair@$$CBV?$basic_string@DU?$char_traits@D@std@@V?$allocator@D@2@@std@@VPortInfo@BT@@@std@@@std@@@std@@@std@@@std@@QEAA@XZ
	??1?$array@V?$function@$$A6A?AVAny@BT@@AEAUEnvironment@Ast@2@@Z@std@@$03@std@@QEAA@XZ
	??1?$bad_expected_access@V?$basic_string@DU?$char_traits@D@std@@V?$allocator@D@2@@std@@@expected_lite@nonstd@@UEAA@XZ
	??1?$bad_expected_access@X@expected_lite@nonstd@@UEAA@XZ
	??1?$basic_string@DU?$char_traits@D@std@@V?$allocator@D@2@@std@@QEAA@XZ
	??1?$expected@Umonostate@std@@V?$basic_string@DU?$char_traits@D@std@@V?$allocator@D@2@@2@@expected_lite@nonstd@@QEAA@XZ
	??1?$expected@V?$basic_string@DU?$char_traits@D@std@@V?$allocator@D@2@@std@@V12@@expected_lite@nonstd@@QEAA@XZ
	??1?$expected@V?$basic_string_view@DU?$char_traits@D@std@@@std@@V?$basic_string@DU?$char_traits@D@std@@V?$allocator@D@2@@2@@expected_lite@nonstd@@QEAA@XZ
	??1?$function@$$A6A?AV?$expected@W4NodeStatus@BT@@V?$basic_string@DU?$char_traits@D@std@@V?$allocator@D@2@@std@@@expected_lite@nonstd@@AEAVTreeNode@BT@@W4NodeStatus@5@1@Z@std@@QEAA@XZ
	??1?$function@$$A6A?AV?$expected@W4NodeStatus@BT@@V?$basic_string@DU?$char_traits@D@std@@V?$allocator@D@2@@std@@@expected_lite@nonstd@@AEAVTreeNode@BT@@W4NodeStatus@5@@Z@std@@QEAA@XZ
	??1?$function@$$A6A?AV?$unique_ptr@VTreeNode@BT@@U?$default_delete@VTreeNode@BT@@@std@@@std@@AEBV?$basic_string@DU?$char_traits@D@std@@V?$allocator@D@2@@2@AEBUNodeConfig@BT@@@Z@std@@QEAA@XZ
	??1?$function@$$A6A?AVAny@BT@@AEAUEnvironment@Ast@2@@Z@std@@QEAA@XZ
	??1?$function@$$A6A?AVAny@BT@@V?$basic_string_view@DU?$char_traits@D@std@@@std@@@Z@std@@QEAA@XZ
	??1?$function@$$A6A?AW4NodeStatus@BT@@AEAVTreeNode@2@@Z@std@@QEAA@XZ
	??1?$list@U?$pair@$$CBV?$basic_string@DU?$char_traits@D@std@@V?$allocator@D@2@@std@@V12@@std@@V?$allocator@U?$pair@$$CBV?$basic_string@DU?$char_traits@D@std@@V?$allocator@D@2@@std@@V12@@std@@@2@@std@@QEAA@XZ
	??1?$list@U?$pair@$$CBV?$basic_string@DU?$char_traits@D@std@@V?$allocator@D@2@@std@@VPortInfo@BT@@@std@@V?$allocator@U?$pair@$$CBV?$basic_string@DU?$char_traits@D@std@@V?$allocator@D@2@@std@@VPortInfo@BT@@@std@@@2@@std@@QEAA@XZ
	??1?$map@W4PostCond@BT@@V?$basic_string@DU?$char_traits@D@std@@V?$allocator@D@2@@std@@U?$less@W4PostCond@BT@@@4@V?$allocator@U?$pair@$$CBW4PostCond@BT@@V?$basic_string@DU?$char_traits@D@std@@V?$allocator@D@2@@std@@@std@@@4@@std@@QEAA@XZ
	??1?$map@W4PreCond@BT@@V?$basic_string@DU?$char_traits@D@std@@V?$allocator@D@2@@std@@U?$less@W4PreCond@BT@@@4@V?$allocator@U?$pair@$$CBW4PreCond@BT@@V?$basic_string@DU?$char_traits@D@std@@V?$allocator@D@2@@std@@@std@@@4@@std@@QEAA@XZ
	??1?$pair@$$CBV?$basic_string@DU?$char_traits@D@std@@V?$allocator@D@2@@std@@V12@@std@@QEAA@XZ
	??1?$pair@$$CBV?$basic_string@DU?$char_traits@D@std@@V?$allocator@D@2@@std@@VPortInfo@BT@@@std@@QEAA@XZ
	??1?$pair@$$CBW4PostCond@BT@@V?$basic_string@DU?$char_traits@D@std@@V?$allocator@D@2@@std@@@std@@QEAA@XZ
	??1?$pair@$$CBW4PreCond@BT@@V?$basic_string@DU?$char_traits@D@std@@V?$allocator@D@2@@std@@@std@@QEAA@XZ
	??1?$pair@V?$basic_string@DU?$char_traits@D@std@@V?$allocator@D@2@@std@@VPortInfo@BT@@@std@@QEAA@XZ
	??1?$shared_ptr@V?$unordered_map@V?$basic_string@DU?$char_traits@D@std@@V?$allocator@D@2@@std@@HU?$hash@V?$basic_string@DU?$char_traits@D@std@@V?$allocator@D@2@@std@@@2@U?$equal_to@V?$basic_string@DU?$char_traits@D@std@@V?$allocator@D@2@@std@@@2@V?$allocator@U?$pair@$$CBV?$basic_string@DU?$char_traits@D@std@@V?$allocator@D@2@@std@@H@std@@@2@@std@@@std@@QEAA@XZ
	??1?$shared_ptr@VBlackboard@BT@@@std@@QEAA@XZ
	??1?$shared_ptr@VWakeUpSignal@BT@@@std@@QEAA@XZ
	??1?$storage_t@Umonostate@std@@V?$basic_string@DU?$char_traits@D@std@@V?$allocator@D@2@@2@$00$00@detail@expected_lite@nonstd@@QEAA@XZ
	??1?$storage_t@V?$basic_string@DU?$char_traits@D@std@@V?$allocator@D@2@@std@@V12@$00$00@detail@expected_lite@nonstd@@QEAA@XZ
	??1?$storage_t@V?$basic_string_view@DU?$char_traits@D@std@@@std@@V?$basic_string@DU?$char_traits@D@std@@V?$allocator@D@2@@2@$00$00@detail@expected_lite@nonstd@@QEAA@XZ
	??1?$storage_t_impl@Umonostate@std@@V?$basic_string@DU?$char_traits@D@std@@V?$allocator@D@2@@2@@detail@expected_lite@nonstd@@QEAA@XZ
	??1?$storage_t_impl@V?$basic_string@DU?$char_traits@D@std@@V?$allocator@D@2@@std@@V12@@detail@expected_lite@nonstd@@QEAA@XZ
	??1?$storage_t_impl@V?$basic_string_view@DU?$char_traits@D@std@@@std@@V?$basic_string@DU?$char_traits@D@std@@V?$allocator@D@2@@2@@detail@expected_lite@nonstd@@QEAA@XZ
	??1?$unexpected_type@V?$basic_string@DU?$char_traits@D@std@@V?$allocator@D@2@@std@@@expected_lite@nonstd@@QEAA@XZ
	??1?$unique_lock@Vmutex@std@@@std@@QEAA@XZ
	??1?$unique_ptr@VApproachObject@DummyNodes@@U?$default_delete@VApproachObject@DummyNodes@@@std@@@std@@QEAA@XZ
	??1?$unique_ptr@VSaySomething@DummyNodes@@U?$default_delete@VSaySomething@DummyNodes@@@std@@@std@@QEAA@XZ
	??1?$unique_ptr@VTreeNode@BT@@U?$default_delete@VTreeNode@BT@@@std@@@std@@QEAA@XZ
	??1?$unordered_map@V?$basic_string@DU?$char_traits@D@std@@V?$allocator@D@2@@std@@V12@U?$hash@V?$basic_string@DU?$char_traits@D@std@@V?$allocator@D@2@@std@@@2@U?$equal_to@V?$basic_string@DU?$char_traits@D@std@@V?$allocator@D@2@@std@@@2@V?$allocator@U?$pair@$$CBV?$basic_string@DU?$char_traits@D@std@@V?$allocator@D@2@@std@@V12@@std@@@2@@std@@QEAA@XZ
	??1?$unordered_map@V?$basic_string@DU?$char_traits@D@std@@V?$allocator@D@2@@std@@VPortInfo@BT@@U?$hash@V?$basic_string@DU?$char_traits@D@std@@V?$allocator@D@2@@std@@@2@U?$equal_to@V?$basic_string@DU?$char_traits@D@std@@V?$allocator@D@2@@std@@@2@V?$allocator@U?$pair@$$CBV?$basic_string@DU?$char_traits@D@std@@V?$allocator@D@2@@std@@VPortInfo@BT@@@std@@@2@@std@@QEAA@XZ
	??1?$vector@V?$weak_ptr@V?$function@$$A6AXV?$time_point@Usteady_clock@chrono@std@@V?$duration@_JU?$ratio@$00$0DLJKMKAA@@std@@@23@@chrono@std@@AEBVTreeNode@BT@@W4NodeStatus@5@2@Z@std@@@std@@V?$allocator@V?$weak_ptr@V?$function@$$A6AXV?$time_point@Usteady_clock@chrono@std@@V?$duration@_JU?$ratio@$00$0DLJKMKAA@@std@@@23@@chrono@std@@AEBVTreeNode@BT@@W4NodeStatus@5@2@Z@std@@@std@@@2@@std@@QEAA@XZ
	??1?$weak_ptr@V?$function@$$A6AXV?$time_point@Usteady_clock@chrono@std@@V?$duration@_JU?$ratio@$00$0DLJKMKAA@@std@@@23@@chrono@std@@AEBVTreeNode@BT@@W4NodeStatus@5@2@Z@std@@@std@@QEAA@XZ
	??1ActionNodeBase@BT@@UEAA@XZ
	??1Any@BT@@QEAA@XZ
	??1ApproachObject@DummyNodes@@UEAA@XZ
	??1BehaviorTreeException@BT@@UEAA@XZ
	??1LeafNode@BT@@UEAA@XZ
	??1NodeConfig@BT@@QEAA@XZ
	??1PortInfo@BT@@QEAA@XZ
	??1RuntimeError@BT@@UEAA@XZ
	??1SaySomething@DummyNodes@@UEAA@XZ
	??1SimpleString@SafeAny@@QEAA@XZ
	??1SyncActionNode@BT@@UEAA@XZ
	??1TreeNode@BT@@UEAA@XZ
	??1TreeNodeManifest@BT@@QEAA@XZ
	??1_Bxty@?$_String_val@U?$_Simple_types@D@std@@@std@@QEAA@XZ
	??1_Clear_guard@?$_Hash@V?$_Umap_traits@V?$basic_string@DU?$char_traits@D@std@@V?$allocator@D@2@@std@@V12@V?$_Uhash_compare@V?$basic_string@DU?$char_traits@D@std@@V?$allocator@D@2@@std@@U?$hash@V?$basic_string@DU?$char_traits@D@std@@V?$allocator@D@2@@std@@@2@U?$equal_to@V?$basic_string@DU?$char_traits@D@std@@V?$allocator@D@2@@std@@@2@@2@V?$allocator@U?$pair@$$CBV?$basic_string@DU?$char_traits@D@std@@V?$allocator@D@2@@std@@V12@@std@@@2@$0A@@std@@@std@@QEAA@XZ
	??1_Clear_guard@?$_Hash@V?$_Umap_traits@V?$basic_string@DU?$char_traits@D@std@@V?$allocator@D@2@@std@@VPortInfo@BT@@V?$_Uhash_compare@V?$basic_string@DU?$char_traits@D@std@@V?$allocator@D@2@@std@@U?$hash@V?$basic_string@DU?$char_traits@D@std@@V?$allocator@D@2@@std@@@2@U?$equal_to@V?$basic_string@DU?$char_traits@D@std@@V?$allocator@D@2@@std@@@2@@2@V?$allocator@U?$pair@$$CBV?$basic_string@DU?$char_traits@D@std@@V?$allocator@D@2@@std@@VPortInfo@BT@@@std@@@2@$0A@@std@@@std@@QEAA@XZ
	??1_Mutex_base@std@@QEAA@XZ
	??1_Range_eraser@?$_Hash@V?$_Umap_traits@V?$basic_string@DU?$char_traits@D@std@@V?$allocator@D@2@@std@@V12@V?$_Uhash_compare@V?$basic_string@DU?$char_traits@D@std@@V?$allocator@D@2@@std@@U?$hash@V?$basic_string@DU?$char_traits@D@std@@V?$allocator@D@2@@std@@@2@U?$equal_to@V?$basic_string@DU?$char_traits@D@std@@V?$allocator@D@2@@std@@@2@@2@V?$allocator@U?$pair@$$CBV?$basic_string@DU?$char_traits@D@std@@V?$allocator@D@2@@std@@V12@@std@@@2@$0A@@std@@@std@@QEAA@XZ
	??1_Range_eraser@?$_Hash@V?$_Umap_traits@V?$basic_string@DU?$char_traits@D@std@@V?$allocator@D@2@@std@@VPortInfo@BT@@V?$_Uhash_compare@V?$basic_string@DU?$char_traits@D@std@@V?$allocator@D@2@@std@@U?$hash@V?$basic_string@DU?$char_traits@D@std@@V?$allocator@D@2@@std@@@2@U?$equal_to@V?$basic_string@DU?$char_traits@D@std@@V?$allocator@D@2@@std@@@2@@2@V?$allocator@U?$pair@$$CBV?$basic_string@DU?$char_traits@D@std@@V?$allocator@D@2@@std@@VPortInfo@BT@@@std@@@2@$0A@@std@@@std@@QEAA@XZ
	??1_Sentry_base@?$basic_ostream@DU?$char_traits@D@std@@@std@@QEAA@XZ
	??1any@linb@@QEAA@XZ
	??1bad_alloc@std@@UEAA@XZ
	??1bad_any_cast@linb@@UEAA@XZ
	??1bad_array_new_length@std@@UEAA@XZ
	??1bad_cast@std@@UEAA@XZ
	??1condition_variable@std@@QEAA@XZ
	??1exception@std@@UEAA@XZ
	??1mutex@std@@QEAA@XZ
	??1runtime_error@std@@UEAA@XZ
	??1scoped_demangled_name@BT@@QEAA@XZ
	??1sentry@?$basic_ostream@DU?$char_traits@D@std@@@std@@QEAA@XZ
	??2@YAPEAX_KPEAX@Z
	??4?$_Hash@V?$_Umap_traits@V?$basic_string@DU?$char_traits@D@std@@V?$allocator@D@2@@std@@V12@V?$_Uhash_compare@V?$basic_string@DU?$char_traits@D@std@@V?$allocator@D@2@@std@@U?$hash@V?$basic_string@DU?$char_traits@D@std@@V?$allocator@D@2@@std@@@2@U?$equal_to@V?$basic_string@DU?$char_traits@D@std@@V?$allocator@D@2@@std@@@2@@2@V?$allocator@U?$pair@$$CBV?$basic_string@DU?$char_traits@D@std@@V?$allocator@D@2@@std@@V12@@std@@@2@$0A@@std@@@std@@QEAAAEAV01@AEBV01@@Z
	??4?$_Tree@V?$_Tmap_traits@W4PostCond@BT@@V?$basic_string@DU?$char_traits@D@std@@V?$allocator@D@2@@std@@U?$less@W4PostCond@BT@@@4@V?$allocator@U?$pair@$$CBW4PostCond@BT@@V?$basic_string@DU?$char_traits@D@std@@V?$allocator@D@2@@std@@@std@@@4@$0A@@std@@@std@@QEAAAEAV01@AEBV01@@Z
	??4?$_Tree@V?$_Tmap_traits@W4PreCond@BT@@V?$basic_string@DU?$char_traits@D@std@@V?$allocator@D@2@@std@@U?$less@W4PreCond@BT@@@4@V?$allocator@U?$pair@$$CBW4PreCond@BT@@V?$basic_string@DU?$char_traits@D@std@@V?$allocator@D@2@@std@@@std@@@4@$0A@@std@@@std@@QEAAAEAV01@AEBV01@@Z
	??4?$basic_string@DU?$char_traits@D@std@@V?$allocator@D@2@@std@@QEAAAEAV01@$$QEAV01@@Z
	??4?$basic_string@DU?$char_traits@D@std@@V?$allocator@D@2@@std@@QEAAAEAV01@AEBV01@@Z
	??4?$function@$$A6A?AVAny@BT@@V?$basic_string_view@DU?$char_traits@D@std@@@std@@@Z@std@@QEAAAEAV01@$$QEAV01@@Z
	??4?$map@W4PostCond@BT@@V?$basic_string@DU?$char_traits@D@std@@V?$allocator@D@2@@std@@U?$less@W4PostCond@BT@@@4@V?$allocator@U?$pair@$$CBW4PostCond@BT@@V?$basic_string@DU?$char_traits@D@std@@V?$allocator@D@2@@std@@@std@@@4@@std@@QEAAAEAV01@AEBV01@@Z
	??4?$map@W4PreCond@BT@@V?$basic_string@DU?$char_traits@D@std@@V?$allocator@D@2@@std@@U?$less@W4PreCond@BT@@@4@V?$allocator@U?$pair@$$CBW4PreCond@BT@@V?$basic_string@DU?$char_traits@D@std@@V?$allocator@D@2@@std@@@std@@@4@@std@@QEAAAEAV01@AEBV01@@Z
	??4?$shared_ptr@V?$unordered_map@V?$basic_string@DU?$char_traits@D@std@@V?$allocator@D@2@@std@@HU?$hash@V?$basic_string@DU?$char_traits@D@std@@V?$allocator@D@2@@std@@@2@U?$equal_to@V?$basic_string@DU?$char_traits@D@std@@V?$allocator@D@2@@std@@@2@V?$allocator@U?$pair@$$CBV?$basic_string@DU?$char_traits@D@std@@V?$allocator@D@2@@std@@H@std@@@2@@std@@@std@@QEAAAEAV01@AEBV01@@Z
	??4?$shared_ptr@VBlackboard@BT@@@std@@QEAAAEAV01@AEBV01@@Z
	??4?$unordered_map@V?$basic_string@DU?$char_traits@D@std@@V?$allocator@D@2@@std@@V12@U?$hash@V?$basic_string@DU?$char_traits@D@std@@V?$allocator@D@2@@std@@@2@U?$equal_to@V?$basic_string@DU?$char_traits@D@std@@V?$allocator@D@2@@std@@@2@V?$allocator@U?$pair@$$CBV?$basic_string@DU?$char_traits@D@std@@V?$allocator@D@2@@std@@V12@@std@@@2@@std@@QEAAAEAV01@AEBV01@@Z
	??4NodeConfig@BT@@QEAAAEAU01@AEBU01@@Z
	??4PortInfo@BT@@QEAAAEAV01@$$QEAV01@@Z
	??8?$_List_const_iterator@V?$_List_val@U?$_List_simple_types@U?$pair@$$CBV?$basic_string@DU?$char_traits@D@std@@V?$allocator@D@2@@std@@UEntry@Blackboard@BT@@@std@@@std@@@std@@@std@@QEBA_NAEBV01@@Z
	??8?$_List_const_iterator@V?$_List_val@U?$_List_simple_types@U?$pair@$$CBV?$basic_string@DU?$char_traits@D@std@@V?$allocator@D@2@@std@@V12@@std@@@std@@@std@@@std@@QEBA_NAEBV01@@Z
	??8?$_List_unchecked_const_iterator@V?$_List_val@U?$_List_simple_types@U?$pair@$$CBV?$basic_string@DU?$char_traits@D@std@@V?$allocator@D@2@@std@@V12@@std@@@std@@@std@@U_Iterator_base0@2@@std@@QEBA_NAEBV01@@Z
	??8?$_List_unchecked_const_iterator@V?$_List_val@U?$_List_simple_types@U?$pair@$$CBV?$basic_string@DU?$char_traits@D@std@@V?$allocator@D@2@@std@@VPortInfo@BT@@@std@@@std@@@std@@U_Iterator_base0@2@@std@@QEBA_NAEBV01@@Z
	??8type_info@@QEBA_NAEBV0@@Z
	??9?$_List_const_iterator@V?$_List_val@U?$_List_simple_types@U?$pair@$$CBV?$basic_string@DU?$char_traits@D@std@@V?$allocator@D@2@@std@@V12@@std@@@std@@@std@@@std@@QEBA_NAEBV01@@Z
	??9?$_List_unchecked_const_iterator@V?$_List_val@U?$_List_simple_types@U?$pair@$$CBV?$basic_string@DU?$char_traits@D@std@@V?$allocator@D@2@@std@@V12@@std@@@std@@@std@@U_Iterator_base0@2@@std@@QEBA_NAEBV01@@Z
	??9?$_List_unchecked_const_iterator@V?$_List_val@U?$_List_simple_types@U?$pair@$$CBV?$basic_string@DU?$char_traits@D@std@@V?$allocator@D@2@@std@@VPortInfo@BT@@@std@@@std@@@std@@U_Iterator_base0@2@@std@@QEBA_NAEBV01@@Z
	??A?$basic_string@DU?$char_traits@D@std@@V?$allocator@D@2@@std@@QEAAAEAD_K@Z
	??B?$basic_string@DU?$char_traits@D@std@@V?$allocator@D@2@@std@@QEBA?AV?$basic_string_view@DU?$char_traits@D@std@@@1@XZ
	??B?$expected@Umonostate@std@@V?$basic_string@DU?$char_traits@D@std@@V?$allocator@D@2@@2@@expected_lite@nonstd@@QEBA_NXZ
	??B?$expected@V?$basic_string@DU?$char_traits@D@std@@V?$allocator@D@2@@std@@V12@@expected_lite@nonstd@@QEBA_NXZ
	??B?$expected@V?$basic_string_view@DU?$char_traits@D@std@@@std@@V?$basic_string@DU?$char_traits@D@std@@V?$allocator@D@2@@2@@expected_lite@nonstd@@QEBA_NXZ
	??B?$shared_ptr@VBlackboard@BT@@@std@@QEBA_NXZ
	??Bsentry@?$basic_ostream@DU?$char_traits@D@std@@@std@@QEBA_NXZ
	??C?$_List_const_iterator@V?$_List_val@U?$_List_simple_types@U?$pair@$$CBV?$basic_string@DU?$char_traits@D@std@@V?$allocator@D@2@@std@@V12@@std@@@std@@@std@@@std@@QEBAPEBU?$pair@$$CBV?$basic_string@DU?$char_traits@D@std@@V?$allocator@D@2@@std@@V12@@1@XZ
	??C?$_List_iterator@V?$_List_val@U?$_List_simple_types@U?$pair@$$CBV?$basic_string@DU?$char_traits@D@std@@V?$allocator@D@2@@std@@UEntry@Blackboard@BT@@@std@@@std@@@std@@@std@@QEBAPEAU?$pair@$$CBV?$basic_string@DU?$char_traits@D@std@@V?$allocator@D@2@@std@@UEntry@Blackboard@BT@@@1@XZ
	??C?$_List_iterator@V?$_List_val@U?$_List_simple_types@U?$pair@$$CBV?$basic_string@DU?$char_traits@D@std@@V?$allocator@D@2@@std@@V12@@std@@@std@@@std@@@std@@QEBAPEAU?$pair@$$CBV?$basic_string@DU?$char_traits@D@std@@V?$allocator@D@2@@std@@V12@@1@XZ
	??D?$_List_const_iterator@V?$_List_val@U?$_List_simple_types@U?$pair@$$CBV?$basic_string@DU?$char_traits@D@std@@V?$allocator@D@2@@std@@UEntry@Blackboard@BT@@@std@@@std@@@std@@@std@@QEBAAEBU?$pair@$$CBV?$basic_string@DU?$char_traits@D@std@@V?$allocator@D@2@@std@@UEntry@Blackboard@BT@@@1@XZ
	??D?$_List_const_iterator@V?$_List_val@U?$_List_simple_types@U?$pair@$$CBV?$basic_string@DU?$char_traits@D@std@@V?$allocator@D@2@@std@@V12@@std@@@std@@@std@@@std@@QEBAAEBU?$pair@$$CBV?$basic_string@DU?$char_traits@D@std@@V?$allocator@D@2@@std@@V12@@1@XZ
	??D?$_List_iterator@V?$_List_val@U?$_List_simple_types@U?$pair@$$CBV?$basic_string@DU?$char_traits@D@std@@V?$allocator@D@2@@std@@UEntry@Blackboard@BT@@@std@@@std@@@std@@@std@@QEBAAEAU?$pair@$$CBV?$basic_string@DU?$char_traits@D@std@@V?$allocator@D@2@@std@@UEntry@Blackboard@BT@@@1@XZ
	??D?$_List_iterator@V?$_List_val@U?$_List_simple_types@U?$pair@$$CBV?$basic_string@DU?$char_traits@D@std@@V?$allocator@D@2@@std@@V12@@std@@@std@@@std@@@std@@QEBAAEAU?$pair@$$CBV?$basic_string@DU?$char_traits@D@std@@V?$allocator@D@2@@std@@V12@@1@XZ
	??D?$_List_unchecked_const_iterator@V?$_List_val@U?$_List_simple_types@U?$pair@$$CBV?$basic_string@DU?$char_traits@D@std@@V?$allocator@D@2@@std@@V12@@std@@@std@@@std@@U_Iterator_base0@2@@std@@QEBAAEBU?$pair@$$CBV?$basic_string@DU?$char_traits@D@std@@V?$allocator@D@2@@std@@V12@@1@XZ
	??D?$_List_unchecked_const_iterator@V?$_List_val@U?$_List_simple_types@U?$pair@$$CBV?$basic_string@DU?$char_traits@D@std@@V?$allocator@D@2@@std@@VPortInfo@BT@@@std@@@std@@@std@@U_Iterator_base0@2@@std@@QEBAAEBU?$pair@$$CBV?$basic_string@DU?$char_traits@D@std@@V?$allocator@D@2@@std@@VPortInfo@BT@@@1@XZ
	??D?$_List_unchecked_iterator@V?$_List_val@U?$_List_simple_types@U?$pair@$$CBV?$basic_string@DU?$char_traits@D@std@@V?$allocator@D@2@@std@@V12@@std@@@std@@@std@@@std@@QEBAAEAU?$pair@$$CBV?$basic_string@DU?$char_traits@D@std@@V?$allocator@D@2@@std@@V12@@1@XZ
	??D?$_List_unchecked_iterator@V?$_List_val@U?$_List_simple_types@U?$pair@$$CBV?$basic_string@DU?$char_traits@D@std@@V?$allocator@D@2@@std@@VPortInfo@BT@@@std@@@std@@@std@@@std@@QEBAAEAU?$pair@$$CBV?$basic_string@DU?$char_traits@D@std@@V?$allocator@D@2@@std@@VPortInfo@BT@@@1@XZ
	??E?$_List_unchecked_const_iterator@V?$_List_val@U?$_List_simple_types@U?$pair@$$CBV?$basic_string@DU?$char_traits@D@std@@V?$allocator@D@2@@std@@V12@@std@@@std@@@std@@U_Iterator_base0@2@@std@@QEAAAEAV01@XZ
	??E?$_List_unchecked_const_iterator@V?$_List_val@U?$_List_simple_types@U?$pair@$$CBV?$basic_string@DU?$char_traits@D@std@@V?$allocator@D@2@@std@@VPortInfo@BT@@@std@@@std@@@std@@U_Iterator_base0@2@@std@@QEAAAEAV01@XZ
	??E?$_List_unchecked_iterator@V?$_List_val@U?$_List_simple_types@U?$pair@$$CBV?$basic_string@DU?$char_traits@D@std@@V?$allocator@D@2@@std@@V12@@std@@@std@@@std@@@std@@QEAAAEAV01@XZ
	??E?$_List_unchecked_iterator@V?$_List_val@U?$_List_simple_types@U?$pair@$$CBV?$basic_string@DU?$char_traits@D@std@@V?$allocator@D@2@@std@@VPortInfo@BT@@@std@@@std@@@std@@@std@@QEAAAEAV01@XZ
	??F?$_List_unchecked_const_iterator@V?$_List_val@U?$_List_simple_types@U?$pair@$$CBV?$basic_string@DU?$char_traits@D@std@@V?$allocator@D@2@@std@@V12@@std@@@std@@@std@@U_Iterator_base0@2@@std@@QEAAAEAV01@XZ
	??F?$_List_unchecked_const_iterator@V?$_List_val@U?$_List_simple_types@U?$pair@$$CBV?$basic_string@DU?$char_traits@D@std@@V?$allocator@D@2@@std@@VPortInfo@BT@@@std@@@std@@@std@@U_Iterator_base0@2@@std@@QEAAAEAV01@XZ
	??R<lambda_138c3d7c38c85abb84c7fc7bfe5747b7>@@QEBA@QEAD_KD@Z
	??R<lambda_57296cd0c6c71135b50e4592291d978e>@@QEBA@V?$basic_string_view@DU?$char_traits@D@std@@@std@@@Z
	??R<lambda_65e615be2a453ca0576c979606f46740>@@QEBA@QEADQEBD_K12@Z
	??R<lambda_66f57f934f28d61049862f64df852ff0>@@QEBA@QEAD_KQEBD@Z
	??R<lambda_9013ee9e23efe4882b67eff5b0ecf103>@@QEBA@QEADQEBD_K@Z
	??R<lambda_a95bbca0faf915955c95630ee1c00895>@@QEBA@AEBV?$basic_string@DU?$char_traits@D@std@@V?$allocator@D@2@@std@@AEBUNodeConfig@BT@@@Z
	??R<lambda_aa76a4183be853015b9d628f5e5c4b8d>@@QEBA?AV?$basic_string@DU?$char_traits@D@std@@V?$allocator@D@2@@std@@AEBV12@@Z
	??R<lambda_b01c296c30d9c3eb21471946df8728d5>@@QEBA@AEBV?$basic_string@DU?$char_traits@D@std@@V?$allocator@D@2@@std@@AEBUNodeConfig@BT@@@Z
	??R?$default_delete@VApproachObject@DummyNodes@@@std@@QEBAXPEAVApproachObject@DummyNodes@@@Z
	??R?$default_delete@VSaySomething@DummyNodes@@@std@@QEBAXPEAVSaySomething@DummyNodes@@@Z
	??R?$default_delete@VTreeNode@BT@@@std@@QEBAXPEAVTreeNode@BT@@@Z
	??R?$equal_to@V?$basic_string@DU?$char_traits@D@std@@V?$allocator@D@2@@std@@@std@@QEBA_NAEBV?$basic_string@DU?$char_traits@D@std@@V?$allocator@D@2@@1@0@Z
	??R?$hash@V?$basic_string@DU?$char_traits@D@std@@V?$allocator@D@2@@std@@@std@@QEBA_KAEBV?$basic_string@DU?$char_traits@D@std@@V?$allocator@D@2@@1@@Z
	??_7?$_Func_impl_no_alloc@V<lambda_57296cd0c6c71135b50e4592291d978e>@@VAny@BT@@V?$basic_string_view@DU?$char_traits@D@std@@@std@@@std@@6B@
	??_7?$_Func_impl_no_alloc@V<lambda_a95bbca0faf915955c95630ee1c00895>@@V?$unique_ptr@VTreeNode@BT@@U?$default_delete@VTreeNode@BT@@@std@@@std@@AEBV?$basic_string@DU?$char_traits@D@std@@V?$allocator@D@2@@3@AEBUNodeConfig@BT@@@std@@6B@
	??_7?$_Func_impl_no_alloc@V<lambda_b01c296c30d9c3eb21471946df8728d5>@@V?$unique_ptr@VTreeNode@BT@@U?$default_delete@VTreeNode@BT@@@std@@@std@@AEBV?$basic_string@DU?$char_traits@D@std@@V?$allocator@D@2@@3@AEBUNodeConfig@BT@@@std@@6B@
	??_7?$_Func_impl_no_alloc@V?$_Binder@U_Unforced@std@@A6A?AW4NodeStatus@BT@@XZ$$V@std@@W4NodeStatus@BT@@AEAVTreeNode@4@@std@@6B@
	??_7?$_Func_impl_no_alloc@V?$_Binder@U_Unforced@std@@P8GripperInterface@DummyNodes@@EAA?AW4NodeStatus@BT@@XZPEAV34@@std@@W4NodeStatus@BT@@AEAVTreeNode@4@@std@@6B@
	??_7?$bad_expected_access@V?$basic_string@DU?$char_traits@D@std@@V?$allocator@D@2@@std@@@expected_lite@nonstd@@6B@
	??_7?$bad_expected_access@X@expected_lite@nonstd@@6B@
	??_7ApproachObject@DummyNodes@@6B@
	??_7BehaviorTreeException@BT@@6B@
	??_7RuntimeError@BT@@6B@
	??_7SaySomething@DummyNodes@@6B@
	??_7bad_alloc@std@@6B@
	??_7bad_any_cast@linb@@6B@
	??_7bad_array_new_length@std@@6B@
	??_7bad_cast@std@@6B@
	??_7exception@std@@6B@
	??_7runtime_error@std@@6B@
	?AppendPieces@strings_internal@BT@@YAXPEAV?$basic_string@DU?$char_traits@D@std@@V?$allocator@D@2@@std@@V?$initializer_list@V?$basic_string_view@DU?$char_traits@D@std@@@std@@@4@@Z
	?CatPieces@strings_internal@BT@@YA?AV?$basic_string@DU?$char_traits@D@std@@V?$allocator@D@2@@std@@V?$initializer_list@V?$basic_string_view@DU?$char_traits@D@std@@@std@@@4@@Z
	?CheckBattery@DummyNodes@@YA?AW4NodeStatus@BT@@XZ
	?CheckTemperature@DummyNodes@@YA?AW4NodeStatus@BT@@XZ
	?RegisterNodes@DummyNodes@@YAXAEAVBehaviorTreeFactory@BT@@@Z
	?SayHello@DummyNodes@@YA?AW4NodeStatus@BT@@XZ
	?SaySomethingSimple@DummyNodes@@YA?AW4NodeStatus@BT@@AEAVTreeNode@3@@Z
	?StrCat@BT@@YA?AV?$basic_string@DU?$char_traits@D@std@@V?$allocator@D@2@@std@@AEBV?$basic_string_view@DU?$char_traits@D@std@@@3@00@Z
	?StrCat@BT@@YA?AV?$basic_string@DU?$char_traits@D@std@@V?$allocator@D@2@@std@@AEBV?$basic_string_view@DU?$char_traits@D@std@@@3@0@Z
	?StrCat@BT@@YA?AV?$basic_string@DU?$char_traits@D@std@@V?$allocator@D@2@@std@@AEBV?$basic_string_view@DU?$char_traits@D@std@@@3@@Z
	?_Adjust_manually_vector_aligned@std@@YAXAEAPEAXAEA_K@Z
	?_Adopt@_Iterator_base0@std@@QEAAXPEBX@Z
	?_Alloc_proxy@_Container_base0@std@@QEAAXAEBU_Fake_allocator@2@@Z
	?_Alloc_sentinel_and_proxy@?$_Tree@V?$_Tmap_traits@W4PostCond@BT@@V?$basic_string@DU?$char_traits@D@std@@V?$allocator@D@2@@std@@U?$less@W4PostCond@BT@@@4@V?$allocator@U?$pair@$$CBW4PostCond@BT@@V?$basic_string@DU?$char_traits@D@std@@V?$allocator@D@2@@std@@@std@@@4@$0A@@std@@@std@@IEAAXXZ
	?_Alloc_sentinel_and_proxy@?$_Tree@V?$_Tmap_traits@W4PreCond@BT@@V?$basic_string@DU?$char_traits@D@std@@V?$allocator@D@2@@std@@U?$less@W4PreCond@BT@@@4@V?$allocator@U?$pair@$$CBW4PreCond@BT@@V?$basic_string@DU?$char_traits@D@std@@V?$allocator@D@2@@std@@@std@@@4@$0A@@std@@@std@@IEAAXXZ
	?_Alloc_sentinel_and_proxy@?$list@U?$pair@$$CBV?$basic_string@DU?$char_traits@D@std@@V?$allocator@D@2@@std@@V12@@std@@V?$allocator@U?$pair@$$CBV?$basic_string@DU?$char_traits@D@std@@V?$allocator@D@2@@std@@V12@@std@@@2@@std@@AEAAXXZ
	?_Alloc_sentinel_and_proxy@?$list@U?$pair@$$CBV?$basic_string@DU?$char_traits@D@std@@V?$allocator@D@2@@std@@VPortInfo@BT@@@std@@V?$allocator@U?$pair@$$CBV?$basic_string@DU?$char_traits@D@std@@V?$allocator@D@2@@std@@VPortInfo@BT@@@std@@@2@@std@@AEAAXXZ
	?_Allocate@?$_Alloc_construct_ptr@V?$allocator@U?$_List_node@U?$pair@$$CBV?$basic_string@DU?$char_traits@D@std@@V?$allocator@D@2@@std@@V12@@std@@PEAX@std@@@std@@@std@@QEAAXXZ
	?_Allocate@?$_Alloc_construct_ptr@V?$allocator@U?$_List_node@U?$pair@$$CBV?$basic_string@DU?$char_traits@D@std@@V?$allocator@D@2@@std@@VPortInfo@BT@@@std@@PEAX@std@@@std@@@std@@QEAAXXZ
	?_Allocate@?$_Alloc_construct_ptr@V?$allocator@U?$_Tree_node@U?$pair@$$CBW4PostCond@BT@@V?$basic_string@DU?$char_traits@D@std@@V?$allocator@D@2@@std@@@std@@PEAX@std@@@std@@@std@@QEAAXXZ
	?_Allocate@?$_Alloc_construct_ptr@V?$allocator@U?$_Tree_node@U?$pair@$$CBW4PreCond@BT@@V?$basic_string@DU?$char_traits@D@std@@V?$allocator@D@2@@std@@@std@@PEAX@std@@@std@@@std@@QEAAXXZ
	?_Allocate@_Default_allocate_traits@std@@SAPEAX_K@Z
	?_Assign_grow@?$_Hash_vec@V?$allocator@V?$_List_unchecked_iterator@V?$_List_val@U?$_List_simple_types@U?$pair@$$CBV?$basic_string@DU?$char_traits@D@std@@V?$allocator@D@2@@std@@V12@@std@@@std@@@std@@@std@@@std@@@std@@QEAAX_KV?$_List_unchecked_iterator@V?$_List_val@U?$_List_simple_types@U?$pair@$$CBV?$basic_string@DU?$char_traits@D@std@@V?$allocator@D@2@@std@@V12@@std@@@std@@@std@@@2@@Z
	?_Assign_grow@?$_Hash_vec@V?$allocator@V?$_List_unchecked_iterator@V?$_List_val@U?$_List_simple_types@U?$pair@$$CBV?$basic_string@DU?$char_traits@D@std@@V?$allocator@D@2@@std@@VPortInfo@BT@@@std@@@std@@@std@@@std@@@std@@@std@@QEAAX_KV?$_List_unchecked_iterator@V?$_List_val@U?$_List_simple_types@U?$pair@$$CBV?$basic_string@DU?$char_traits@D@std@@V?$allocator@D@2@@std@@VPortInfo@BT@@@std@@@std@@@std@@@2@@Z
	?_Become_small@?$basic_string@DU?$char_traits@D@std@@V?$allocator@D@2@@std@@AEAAXXZ
	?_Bump_erased@_Range_eraser@?$_Hash@V?$_Umap_traits@V?$basic_string@DU?$char_traits@D@std@@V?$allocator@D@2@@std@@V12@V?$_Uhash_compare@V?$basic_string@DU?$char_traits@D@std@@V?$allocator@D@2@@std@@U?$hash@V?$basic_string@DU?$char_traits@D@std@@V?$allocator@D@2@@std@@@2@U?$equal_to@V?$basic_string@DU?$char_traits@D@std@@V?$allocator@D@2@@std@@@2@@2@V?$allocator@U?$pair@$$CBV?$basic_string@DU?$char_traits@D@std@@V?$allocator@D@2@@std@@V12@@std@@@2@$0A@@std@@@std@@QEAAXXZ
	?_Bump_erased@_Range_eraser@?$_Hash@V?$_Umap_traits@V?$basic_string@DU?$char_traits@D@std@@V?$allocator@D@2@@std@@VPortInfo@BT@@V?$_Uhash_compare@V?$basic_string@DU?$char_traits@D@std@@V?$allocator@D@2@@std@@U?$hash@V?$basic_string@DU?$char_traits@D@std@@V?$allocator@D@2@@std@@@2@U?$equal_to@V?$basic_string@DU?$char_traits@D@std@@V?$allocator@D@2@@std@@@2@@2@V?$allocator@U?$pair@$$CBV?$basic_string@DU?$char_traits@D@std@@V?$allocator@D@2@@std@@VPortInfo@BT@@@std@@@2@$0A@@std@@@std@@QEAAXXZ
	?_Calculate_growth@?$basic_string@DU?$char_traits@D@std@@V?$allocator@D@2@@std@@AEBA_K_K@Z
	?_Calculate_growth@?$basic_string@DU?$char_traits@D@std@@V?$allocator@D@2@@std@@CA_K_K00@Z
	?_Ceiling_of_log_2@std@@YAK_K@Z
	?_Check_C_return@std@@YAHH@Z
	?_Check_max_size@?$_Hash@V?$_Umap_traits@V?$basic_string@DU?$char_traits@D@std@@V?$allocator@D@2@@std@@VPortInfo@BT@@V?$_Uhash_compare@V?$basic_string@DU?$char_traits@D@std@@V?$allocator@D@2@@std@@U?$hash@V?$basic_string@DU?$char_traits@D@std@@V?$allocator@D@2@@std@@@2@U?$equal_to@V?$basic_string@DU?$char_traits@D@std@@V?$allocator@D@2@@std@@@2@@2@V?$allocator@U?$pair@$$CBV?$basic_string@DU?$char_traits@D@std@@V?$allocator@D@2@@std@@VPortInfo@BT@@@std@@@2@$0A@@std@@@std@@IEBAXXZ
	?_Check_rehash_required_1@?$_Hash@V?$_Umap_traits@V?$basic_string@DU?$char_traits@D@std@@V?$allocator@D@2@@std@@VPortInfo@BT@@V?$_Uhash_compare@V?$basic_string@DU?$char_traits@D@std@@V?$allocator@D@2@@std@@U?$hash@V?$basic_string@DU?$char_traits@D@std@@V?$allocator@D@2@@std@@@2@U?$equal_to@V?$basic_string@DU?$char_traits@D@std@@V?$allocator@D@2@@std@@@2@@2@V?$allocator@U?$pair@$$CBV?$basic_string@DU?$char_traits@D@std@@V?$allocator@D@2@@std@@VPortInfo@BT@@@std@@@2@$0A@@std@@@std@@IEBA_NXZ
	?_Construct@?$basic_string@DU?$char_traits@D@std@@V?$allocator@D@2@@std@@QEAAXQEAD0Urandom_access_iterator_tag@2@@Z
	?_Construct_lv_contents@?$basic_string@DU?$char_traits@D@std@@V?$allocator@D@2@@std@@AEAAXAEBV12@@Z
	?_Copy@?$_Func_impl_no_alloc@V<lambda_57296cd0c6c71135b50e4592291d978e>@@VAny@BT@@V?$basic_string_view@DU?$char_traits@D@std@@@std@@@std@@EEBAPEAV?$_Func_base@VAny@BT@@V?$basic_string_view@DU?$char_traits@D@std@@@std@@@2@PEAX@Z
	?_Copy@?$_Func_impl_no_alloc@V<lambda_a95bbca0faf915955c95630ee1c00895>@@V?$unique_ptr@VTreeNode@BT@@U?$default_delete@VTreeNode@BT@@@std@@@std@@AEBV?$basic_string@DU?$char_traits@D@std@@V?$allocator@D@2@@3@AEBUNodeConfig@BT@@@std@@EEBAPEAV?$_Func_base@V?$unique_ptr@VTreeNode@BT@@U?$default_delete@VTreeNode@BT@@@std@@@std@@AEBV?$basic_string@DU?$char_traits@D@std@@V?$allocator@D@2@@2@AEBUNodeConfig@BT@@@2@PEAX@Z
	?_Copy@?$_Func_impl_no_alloc@V<lambda_b01c296c30d9c3eb21471946df8728d5>@@V?$unique_ptr@VTreeNode@BT@@U?$default_delete@VTreeNode@BT@@@std@@@std@@AEBV?$basic_string@DU?$char_traits@D@std@@V?$allocator@D@2@@3@AEBUNodeConfig@BT@@@std@@EEBAPEAV?$_Func_base@V?$unique_ptr@VTreeNode@BT@@U?$default_delete@VTreeNode@BT@@@std@@@std@@AEBV?$basic_string@DU?$char_traits@D@std@@V?$allocator@D@2@@2@AEBUNodeConfig@BT@@@2@PEAX@Z
	?_Copy@?$_Func_impl_no_alloc@V?$_Binder@U_Unforced@std@@A6A?AW4NodeStatus@BT@@XZ$$V@std@@W4NodeStatus@BT@@AEAVTreeNode@4@@std@@EEBAPEAV?$_Func_base@W4NodeStatus@BT@@AEAVTreeNode@2@@2@PEAX@Z
	?_Copy@?$_Func_impl_no_alloc@V?$_Binder@U_Unforced@std@@P8GripperInterface@DummyNodes@@EAA?AW4NodeStatus@BT@@XZPEAV34@@std@@W4NodeStatus@BT@@AEAVTreeNode@4@@std@@EEBAPEAV?$_Func_base@W4NodeStatus@BT@@AEAVTreeNode@2@@2@PEAX@Z
	?_Copy_assign@?$_Hash@V?$_Umap_traits@V?$basic_string@DU?$char_traits@D@std@@V?$allocator@D@2@@std@@V12@V?$_Uhash_compare@V?$basic_string@DU?$char_traits@D@std@@V?$allocator@D@2@@std@@U?$hash@V?$basic_string@DU?$char_traits@D@std@@V?$allocator@D@2@@std@@@2@U?$equal_to@V?$basic_string@DU?$char_traits@D@std@@V?$allocator@D@2@@std@@@2@@2@V?$allocator@U?$pair@$$CBV?$basic_string@DU?$char_traits@D@std@@V?$allocator@D@2@@std@@V12@@std@@@2@$0A@@std@@@std@@AEAAXAEBV12@U?$integral_constant@_N$0A@@2@@Z
	?_Copy_assign@?$_Tree@V?$_Tmap_traits@W4PostCond@BT@@V?$basic_string@DU?$char_traits@D@std@@V?$allocator@D@2@@std@@U?$less@W4PostCond@BT@@@4@V?$allocator@U?$pair@$$CBW4PostCond@BT@@V?$basic_string@DU?$char_traits@D@std@@V?$allocator@D@2@@std@@@std@@@4@$0A@@std@@@std@@AEAAXAEBV12@U?$integral_constant@_N$0A@@2@@Z
	?_Copy_assign@?$_Tree@V?$_Tmap_traits@W4PreCond@BT@@V?$basic_string@DU?$char_traits@D@std@@V?$allocator@D@2@@std@@U?$less@W4PreCond@BT@@@4@V?$allocator@U?$pair@$$CBW4PreCond@BT@@V?$basic_string@DU?$char_traits@D@std@@V?$allocator@D@2@@std@@@std@@@4@$0A@@std@@@std@@AEAAXAEBV12@U?$integral_constant@_N$0A@@2@@Z
	?_Copy_assign@?$basic_string@DU?$char_traits@D@std@@V?$allocator@D@2@@std@@AEAAXAEBV12@U?$integral_constant@_N$0A@@2@@Z
	?_Decref@?$_Ptr_base@V?$unordered_map@V?$basic_string@DU?$char_traits@D@std@@V?$allocator@D@2@@std@@HU?$hash@V?$basic_string@DU?$char_traits@D@std@@V?$allocator@D@2@@std@@@2@U?$equal_to@V?$basic_string@DU?$char_traits@D@std@@V?$allocator@D@2@@std@@@2@V?$allocator@U?$pair@$$CBV?$basic_string@DU?$char_traits@D@std@@V?$allocator@D@2@@std@@H@std@@@2@@std@@@std@@IEAAXXZ
	?_Decref@?$_Ptr_base@VBlackboard@BT@@@std@@IEAAXXZ
	?_Decref@?$_Ptr_base@VWakeUpSignal@BT@@@std@@IEAAXXZ
	?_Decref@_Ref_count_base@std@@QEAAXXZ
	?_Decwref@?$_Ptr_base@V?$function@$$A6AXV?$time_point@Usteady_clock@chrono@std@@V?$duration@_JU?$ratio@$00$0DLJKMKAA@@std@@@23@@chrono@std@@AEBVTreeNode@BT@@W4NodeStatus@5@2@Z@std@@@std@@IEAAXXZ
	?_Decwref@_Ref_count_base@std@@QEAAXXZ
	?_Delete_this@?$_Func_impl_no_alloc@V<lambda_57296cd0c6c71135b50e4592291d978e>@@VAny@BT@@V?$basic_string_view@DU?$char_traits@D@std@@@std@@@std@@EEAAX_N@Z
	?_Delete_this@?$_Func_impl_no_alloc@V<lambda_a95bbca0faf915955c95630ee1c00895>@@V?$unique_ptr@VTreeNode@BT@@U?$default_delete@VTreeNode@BT@@@std@@@std@@AEBV?$basic_string@DU?$char_traits@D@std@@V?$allocator@D@2@@3@AEBUNodeConfig@BT@@@std@@EEAAX_N@Z
	?_Delete_this@?$_Func_impl_no_alloc@V<lambda_b01c296c30d9c3eb21471946df8728d5>@@V?$unique_ptr@VTreeNode@BT@@U?$default_delete@VTreeNode@BT@@@std@@@std@@AEBV?$basic_string@DU?$char_traits@D@std@@V?$allocator@D@2@@3@AEBUNodeConfig@BT@@@std@@EEAAX_N@Z
	?_Delete_this@?$_Func_impl_no_alloc@V?$_Binder@U_Unforced@std@@A6A?AW4NodeStatus@BT@@XZ$$V@std@@W4NodeStatus@BT@@AEAVTreeNode@4@@std@@EEAAX_N@Z
	?_Delete_this@?$_Func_impl_no_alloc@V?$_Binder@U_Unforced@std@@P8GripperInterface@DummyNodes@@EAA?AW4NodeStatus@BT@@XZPEAV34@@std@@W4NodeStatus@BT@@AEAVTreeNode@4@@std@@EEAAX_N@Z
	?_Desired_grow_bucket_count@?$_Hash@V?$_Umap_traits@V?$basic_string@DU?$char_traits@D@std@@V?$allocator@D@2@@std@@V12@V?$_Uhash_compare@V?$basic_string@DU?$char_traits@D@std@@V?$allocator@D@2@@std@@U?$hash@V?$basic_string@DU?$char_traits@D@std@@V?$allocator@D@2@@std@@@2@U?$equal_to@V?$basic_string@DU?$char_traits@D@std@@V?$allocator@D@2@@std@@@2@@2@V?$allocator@U?$pair@$$CBV?$basic_string@DU?$char_traits@D@std@@V?$allocator@D@2@@std@@V12@@std@@@2@$0A@@std@@@std@@IEBA_K_K@Z
	?_Desired_grow_bucket_count@?$_Hash@V?$_Umap_traits@V?$basic_string@DU?$char_traits@D@std@@V?$allocator@D@2@@std@@VPortInfo@BT@@V?$_Uhash_compare@V?$basic_string@DU?$char_traits@D@std@@V?$allocator@D@2@@std@@U?$hash@V?$basic_string@DU?$char_traits@D@std@@V?$allocator@D@2@@std@@@2@U?$equal_to@V?$basic_string@DU?$char_traits@D@std@@V?$allocator@D@2@@std@@@2@@2@V?$allocator@U?$pair@$$CBV?$basic_string@DU?$char_traits@D@std@@V?$allocator@D@2@@std@@VPortInfo@BT@@@std@@@2@$0A@@std@@@std@@IEBA_K_K@Z
	?_Destroy@?$vector@V?$weak_ptr@V?$function@$$A6AXV?$time_point@Usteady_clock@chrono@std@@V?$duration@_JU?$ratio@$00$0DLJKMKAA@@std@@@23@@chrono@std@@AEBVTreeNode@BT@@W4NodeStatus@5@2@Z@std@@@std@@V?$allocator@V?$weak_ptr@V?$function@$$A6AXV?$time_point@Usteady_clock@chrono@std@@V?$duration@_JU?$ratio@$00$0DLJKMKAA@@std@@@23@@chrono@std@@AEBVTreeNode@BT@@W4NodeStatus@5@2@Z@std@@@std@@@2@@std@@AEAAXPEAV?$weak_ptr@V?$function@$$A6AXV?$time_point@Usteady_clock@chrono@std@@V?$duration@_JU?$ratio@$00$0DLJKMKAA@@std@@@23@@chrono@std@@AEBVTreeNode@BT@@W4NodeStatus@5@2@Z@std@@@2@0@Z
	?_Do_call@?$_Func_impl_no_alloc@V<lambda_57296cd0c6c71135b50e4592291d978e>@@VAny@BT@@V?$basic_string_view@DU?$char_traits@D@std@@@std@@@std@@EEAA?AVAny@BT@@$$QEAV?$basic_string_view@DU?$char_traits@D@std@@@2@@Z
	?_Do_call@?$_Func_impl_no_alloc@V<lambda_a95bbca0faf915955c95630ee1c00895>@@V?$unique_ptr@VTreeNode@BT@@U?$default_delete@VTreeNode@BT@@@std@@@std@@AEBV?$basic_string@DU?$char_traits@D@std@@V?$allocator@D@2@@3@AEBUNodeConfig@BT@@@std@@EEAA?AV?$unique_ptr@VTreeNode@BT@@U?$default_delete@VTreeNode@BT@@@std@@@2@AEBV?$basic_string@DU?$char_traits@D@std@@V?$allocator@D@2@@2@AEBUNodeConfig@BT@@@Z
	?_Do_call@?$_Func_impl_no_alloc@V<lambda_b01c296c30d9c3eb21471946df8728d5>@@V?$unique_ptr@VTreeNode@BT@@U?$default_delete@VTreeNode@BT@@@std@@@std@@AEBV?$basic_string@DU?$char_traits@D@std@@V?$allocator@D@2@@3@AEBUNodeConfig@BT@@@std@@EEAA?AV?$unique_ptr@VTreeNode@BT@@U?$default_delete@VTreeNode@BT@@@std@@@2@AEBV?$basic_string@DU?$char_traits@D@std@@V?$allocator@D@2@@2@AEBUNodeConfig@BT@@@Z
	?_Do_call@?$_Func_impl_no_alloc@V?$_Binder@U_Unforced@std@@A6A?AW4NodeStatus@BT@@XZ$$V@std@@W4NodeStatus@BT@@AEAVTreeNode@4@@std@@EEAA?AW4NodeStatus@BT@@AEAVTreeNode@4@@Z
	?_Do_call@?$_Func_impl_no_alloc@V?$_Binder@U_Unforced@std@@P8GripperInterface@DummyNodes@@EAA?AW4NodeStatus@BT@@XZPEAV34@@std@@W4NodeStatus@BT@@AEAVTreeNode@4@@std@@EEAA?AW4NodeStatus@BT@@AEAVTreeNode@4@@Z
	?_Empty@?$_Func_class@V?$expected@W4NodeStatus@BT@@V?$basic_string@DU?$char_traits@D@std@@V?$allocator@D@2@@std@@@expected_lite@nonstd@@AEAVTreeNode@BT@@W4NodeStatus@5@@std@@IEBA_NXZ
	?_Empty@?$_Func_class@V?$expected@W4NodeStatus@BT@@V?$basic_string@DU?$char_traits@D@std@@V?$allocator@D@2@@std@@@expected_lite@nonstd@@AEAVTreeNode@BT@@W4NodeStatus@5@W465@@std@@IEBA_NXZ
	?_Empty@?$_Func_class@V?$unique_ptr@VTreeNode@BT@@U?$default_delete@VTreeNode@BT@@@std@@@std@@AEBV?$basic_string@DU?$char_traits@D@std@@V?$allocator@D@2@@2@AEBUNodeConfig@BT@@@std@@IEBA_NXZ
	?_Empty@?$_Func_class@VAny@BT@@AEAUEnvironment@Ast@2@@std@@IEBA_NXZ
	?_Empty@?$_Func_class@VAny@BT@@V?$basic_string_view@DU?$char_traits@D@std@@@std@@@std@@IEBA_NXZ
	?_Empty@?$_Func_class@W4NodeStatus@BT@@AEAVTreeNode@2@@std@@IEBA_NXZ
	?_Equal@?$basic_string@DU?$char_traits@D@std@@V?$allocator@D@2@@std@@QEBA_NAEBV12@@Z
	?_Extract@?$_In_place_key_extract_map@V?$basic_string@DU?$char_traits@D@std@@V?$allocator@D@2@@std@@U?$pair@$$CBV?$basic_string@DU?$char_traits@D@std@@V?$allocator@D@2@@std@@VPortInfo@BT@@@2@@std@@SAAEBV?$basic_string@DU?$char_traits@D@std@@V?$allocator@D@2@@2@AEBU?$pair@$$CBV?$basic_string@DU?$char_traits@D@std@@V?$allocator@D@2@@std@@VPortInfo@BT@@@2@@Z
	?_Floor_of_log_2@std@@YAK_K@Z
	?_Fnv1a_append_bytes@std@@YA_K_KQEBE_K@Z
	?_Forced_rehash@?$_Hash@V?$_Umap_traits@V?$basic_string@DU?$char_traits@D@std@@V?$allocator@D@2@@std@@V12@V?$_Uhash_compare@V?$basic_string@DU?$char_traits@D@std@@V?$allocator@D@2@@std@@U?$hash@V?$basic_string@DU?$char_traits@D@std@@V?$allocator@D@2@@std@@@2@U?$equal_to@V?$basic_string@DU?$char_traits@D@std@@V?$allocator@D@2@@std@@@2@@2@V?$allocator@U?$pair@$$CBV?$basic_string@DU?$char_traits@D@std@@V?$allocator@D@2@@std@@V12@@std@@@2@$0A@@std@@@std@@IEAAX_K@Z
	?_Forced_rehash@?$_Hash@V?$_Umap_traits@V?$basic_string@DU?$char_traits@D@std@@V?$allocator@D@2@@std@@VPortInfo@BT@@V?$_Uhash_compare@V?$basic_string@DU?$char_traits@D@std@@V?$allocator@D@2@@std@@U?$hash@V?$basic_string@DU?$char_traits@D@std@@V?$allocator@D@2@@std@@@2@U?$equal_to@V?$basic_string@DU?$char_traits@D@std@@V?$allocator@D@2@@std@@@2@@2@V?$allocator@U?$pair@$$CBV?$basic_string@DU?$char_traits@D@std@@V?$allocator@D@2@@std@@VPortInfo@BT@@@std@@@2@$0A@@std@@@std@@IEAAX_K@Z
	?_Get@?$_Func_impl_no_alloc@V<lambda_57296cd0c6c71135b50e4592291d978e>@@VAny@BT@@V?$basic_string_view@DU?$char_traits@D@std@@@std@@@std@@EEBAPEBXXZ
	?_Get@?$_Func_impl_no_alloc@V<lambda_a95bbca0faf915955c95630ee1c00895>@@V?$unique_ptr@VTreeNode@BT@@U?$default_delete@VTreeNode@BT@@@std@@@std@@AEBV?$basic_string@DU?$char_traits@D@std@@V?$allocator@D@2@@3@AEBUNodeConfig@BT@@@std@@EEBAPEBXXZ
	?_Get@?$_Func_impl_no_alloc@V<lambda_b01c296c30d9c3eb21471946df8728d5>@@V?$unique_ptr@VTreeNode@BT@@U?$default_delete@VTreeNode@BT@@@std@@@std@@AEBV?$basic_string@DU?$char_traits@D@std@@V?$allocator@D@2@@3@AEBUNodeConfig@BT@@@std@@EEBAPEBXXZ
	?_Get@?$_Func_impl_no_alloc@V?$_Binder@U_Unforced@std@@A6A?AW4NodeStatus@BT@@XZ$$V@std@@W4NodeStatus@BT@@AEAVTreeNode@4@@std@@EEBAPEBXXZ
	?_Get@?$_Func_impl_no_alloc@V?$_Binder@U_Unforced@std@@P8GripperInterface@DummyNodes@@EAA?AW4NodeStatus@BT@@XZPEAV34@@std@@W4NodeStatus@BT@@AEAVTreeNode@4@@std@@EEBAPEBXXZ
	?_Get_first@?$_Compressed_pair@P6A?AW4NodeStatus@BT@@XZV?$tuple@$$V@std@@$0A@@std@@QEAAAEAP6A?AW4NodeStatus@BT@@XZXZ
	?_Get_first@?$_Compressed_pair@P8GripperInterface@DummyNodes@@EAA?AW4NodeStatus@BT@@XZV?$tuple@PEAVGripperInterface@DummyNodes@@@std@@$0A@@std@@QEAAAEAP8GripperInterface@DummyNodes@@EAA?AW4NodeStatus@BT@@XZXZ
	?_Get_first@?$_Compressed_pair@U?$default_delete@VApproachObject@DummyNodes@@@std@@PEAVApproachObject@DummyNodes@@$00@std@@QEAAAEAU?$default_delete@VApproachObject@DummyNodes@@@2@XZ
	?_Get_first@?$_Compressed_pair@U?$default_delete@VSaySomething@DummyNodes@@@std@@PEAVSaySomething@DummyNodes@@$00@std@@QEAAAEAU?$default_delete@VSaySomething@DummyNodes@@@2@XZ
	?_Get_first@?$_Compressed_pair@U?$default_delete@VTreeNode@BT@@@std@@PEAVTreeNode@BT@@$00@std@@QEAAAEAU?$default_delete@VTreeNode@BT@@@2@XZ
	?_Get_first@?$_Compressed_pair@U?$equal_to@V?$basic_string@DU?$char_traits@D@std@@V?$allocator@D@2@@std@@@std@@M$00@std@@QEBAAEBU?$equal_to@V?$basic_string@DU?$char_traits@D@std@@V?$allocator@D@2@@std@@@2@XZ
	?_Get_first@?$_Compressed_pair@U?$hash@V?$basic_string@DU?$char_traits@D@std@@V?$allocator@D@2@@std@@@std@@V?$_Compressed_pair@U?$equal_to@V?$basic_string@DU?$char_traits@D@std@@V?$allocator@D@2@@std@@@std@@M$00@2@$00@std@@QEBAAEBU?$hash@V?$basic_string@DU?$char_traits@D@std@@V?$allocator@D@2@@std@@@2@XZ
	?_Get_first@?$_Compressed_pair@U?$less@W4PostCond@BT@@@std@@V?$_Compressed_pair@V?$allocator@U?$_Tree_node@U?$pair@$$CBW4PostCond@BT@@V?$basic_string@DU?$char_traits@D@std@@V?$allocator@D@2@@std@@@std@@PEAX@std@@@std@@V?$_Tree_val@U?$_Tree_simple_types@U?$pair@$$CBW4PostCond@BT@@V?$basic_string@DU?$char_traits@D@std@@V?$allocator@D@2@@std@@@std@@@std@@@2@$00@2@$00@std@@QEAAAEAU?$less@W4PostCond@BT@@@2@XZ
	?_Get_first@?$_Compressed_pair@U?$less@W4PostCond@BT@@@std@@V?$_Compressed_pair@V?$allocator@U?$_Tree_node@U?$pair@$$CBW4PostCond@BT@@V?$basic_string@DU?$char_traits@D@std@@V?$allocator@D@2@@std@@@std@@PEAX@std@@@std@@V?$_Tree_val@U?$_Tree_simple_types@U?$pair@$$CBW4PostCond@BT@@V?$basic_string@DU?$char_traits@D@std@@V?$allocator@D@2@@std@@@std@@@std@@@2@$00@2@$00@std@@QEBAAEBU?$less@W4PostCond@BT@@@2@XZ
	?_Get_first@?$_Compressed_pair@U?$less@W4PreCond@BT@@@std@@V?$_Compressed_pair@V?$allocator@U?$_Tree_node@U?$pair@$$CBW4PreCond@BT@@V?$basic_string@DU?$char_traits@D@std@@V?$allocator@D@2@@std@@@std@@PEAX@std@@@std@@V?$_Tree_val@U?$_Tree_simple_types@U?$pair@$$CBW4PreCond@BT@@V?$basic_string@DU?$char_traits@D@std@@V?$allocator@D@2@@std@@@std@@@std@@@2@$00@2@$00@std@@QEAAAEAU?$less@W4PreCond@BT@@@2@XZ
	?_Get_first@?$_Compressed_pair@U?$less@W4PreCond@BT@@@std@@V?$_Compressed_pair@V?$allocator@U?$_Tree_node@U?$pair@$$CBW4PreCond@BT@@V?$basic_string@DU?$char_traits@D@std@@V?$allocator@D@2@@std@@@std@@PEAX@std@@@std@@V?$_Tree_val@U?$_Tree_simple_types@U?$pair@$$CBW4PreCond@BT@@V?$basic_string@DU?$char_traits@D@std@@V?$allocator@D@2@@std@@@std@@@std@@@2@$00@2@$00@std@@QEBAAEBU?$less@W4PreCond@BT@@@2@XZ
	?_Get_first@?$_Compressed_pair@V?$allocator@D@std@@V?$_String_val@U?$_Simple_types@D@std@@@2@$00@std@@QEAAAEAV?$allocator@D@2@XZ
	?_Get_first@?$_Compressed_pair@V?$allocator@D@std@@V?$_String_val@U?$_Simple_types@D@std@@@2@$00@std@@QEBAAEBV?$allocator@D@2@XZ
	?_Get_first@?$_Compressed_pair@V?$allocator@U?$_List_node@U?$pair@$$CBV?$basic_string@DU?$char_traits@D@std@@V?$allocator@D@2@@std@@V12@@std@@PEAX@std@@@std@@V?$_List_val@U?$_List_simple_types@U?$pair@$$CBV?$basic_string@DU?$char_traits@D@std@@V?$allocator@D@2@@std@@V12@@std@@@std@@@2@$00@std@@QEAAAEAV?$allocator@U?$_List_node@U?$pair@$$CBV?$basic_string@DU?$char_traits@D@std@@V?$allocator@D@2@@std@@V12@@std@@PEAX@std@@@2@XZ
	?_Get_first@?$_Compressed_pair@V?$allocator@U?$_List_node@U?$pair@$$CBV?$basic_string@DU?$char_traits@D@std@@V?$allocator@D@2@@std@@V12@@std@@PEAX@std@@@std@@V?$_List_val@U?$_List_simple_types@U?$pair@$$CBV?$basic_string@DU?$char_traits@D@std@@V?$allocator@D@2@@std@@V12@@std@@@std@@@2@$00@std@@QEBAAEBV?$allocator@U?$_List_node@U?$pair@$$CBV?$basic_string@DU?$char_traits@D@std@@V?$allocator@D@2@@std@@V12@@std@@PEAX@std@@@2@XZ
	?_Get_first@?$_Compressed_pair@V?$allocator@U?$_List_node@U?$pair@$$CBV?$basic_string@DU?$char_traits@D@std@@V?$allocator@D@2@@std@@VPortInfo@BT@@@std@@PEAX@std@@@std@@V?$_List_val@U?$_List_simple_types@U?$pair@$$CBV?$basic_string@DU?$char_traits@D@std@@V?$allocator@D@2@@std@@VPortInfo@BT@@@std@@@std@@@2@$00@std@@QEAAAEAV?$allocator@U?$_List_node@U?$pair@$$CBV?$basic_string@DU?$char_traits@D@std@@V?$allocator@D@2@@std@@VPortInfo@BT@@@std@@PEAX@std@@@2@XZ
	?_Get_first@?$_Compressed_pair@V?$allocator@U?$_List_node@U?$pair@$$CBV?$basic_string@DU?$char_traits@D@std@@V?$allocator@D@2@@std@@VPortInfo@BT@@@std@@PEAX@std@@@std@@V?$_List_val@U?$_List_simple_types@U?$pair@$$CBV?$basic_string@DU?$char_traits@D@std@@V?$allocator@D@2@@std@@VPortInfo@BT@@@std@@@std@@@2@$00@std@@QEBAAEBV?$allocator@U?$_List_node@U?$pair@$$CBV?$basic_string@DU?$char_traits@D@std@@V?$allocator@D@2@@std@@VPortInfo@BT@@@std@@PEAX@std@@@2@XZ
	?_Get_first@?$_Compressed_pair@V?$allocator@U?$_Tree_node@U?$pair@$$CBW4PostCond@BT@@V?$basic_string@DU?$char_traits@D@std@@V?$allocator@D@2@@std@@@std@@PEAX@std@@@std@@V?$_Tree_val@U?$_Tree_simple_types@U?$pair@$$CBW4PostCond@BT@@V?$basic_string@DU?$char_traits@D@std@@V?$allocator@D@2@@std@@@std@@@std@@@2@$00@std@@QEAAAEAV?$allocator@U?$_Tree_node@U?$pair@$$CBW4PostCond@BT@@V?$basic_string@DU?$char_traits@D@std@@V?$allocator@D@2@@std@@@std@@PEAX@std@@@2@XZ
	?_Get_first@?$_Compressed_pair@V?$allocator@U?$_Tree_node@U?$pair@$$CBW4PostCond@BT@@V?$basic_string@DU?$char_traits@D@std@@V?$allocator@D@2@@std@@@std@@PEAX@std@@@std@@V?$_Tree_val@U?$_Tree_simple_types@U?$pair@$$CBW4PostCond@BT@@V?$basic_string@DU?$char_traits@D@std@@V?$allocator@D@2@@std@@@std@@@std@@@2@$00@std@@QEBAAEBV?$allocator@U?$_Tree_node@U?$pair@$$CBW4PostCond@BT@@V?$basic_string@DU?$char_traits@D@std@@V?$allocator@D@2@@std@@@std@@PEAX@std@@@2@XZ
	?_Get_first@?$_Compressed_pair@V?$allocator@U?$_Tree_node@U?$pair@$$CBW4PreCond@BT@@V?$basic_string@DU?$char_traits@D@std@@V?$allocator@D@2@@std@@@std@@PEAX@std@@@std@@V?$_Tree_val@U?$_Tree_simple_types@U?$pair@$$CBW4PreCond@BT@@V?$basic_string@DU?$char_traits@D@std@@V?$allocator@D@2@@std@@@std@@@std@@@2@$00@std@@QEAAAEAV?$allocator@U?$_Tree_node@U?$pair@$$CBW4PreCond@BT@@V?$basic_string@DU?$char_traits@D@std@@V?$allocator@D@2@@std@@@std@@PEAX@std@@@2@XZ
	?_Get_first@?$_Compressed_pair@V?$allocator@U?$_Tree_node@U?$pair@$$CBW4PreCond@BT@@V?$basic_string@DU?$char_traits@D@std@@V?$allocator@D@2@@std@@@std@@PEAX@std@@@std@@V?$_Tree_val@U?$_Tree_simple_types@U?$pair@$$CBW4PreCond@BT@@V?$basic_string@DU?$char_traits@D@std@@V?$allocator@D@2@@std@@@std@@@std@@@2@$00@std@@QEBAAEBV?$allocator@U?$_Tree_node@U?$pair@$$CBW4PreCond@BT@@V?$basic_string@DU?$char_traits@D@std@@V?$allocator@D@2@@std@@@std@@PEAX@std@@@2@XZ
	?_Get_first@?$_Compressed_pair@V?$allocator@V?$_List_unchecked_iterator@V?$_List_val@U?$_List_simple_types@U?$pair@$$CBV?$basic_string@DU?$char_traits@D@std@@V?$allocator@D@2@@std@@V12@@std@@@std@@@std@@@std@@@std@@V?$_Vector_val@U?$_Simple_types@V?$_List_unchecked_iterator@V?$_List_val@U?$_List_simple_types@U?$pair@$$CBV?$basic_string@DU?$char_traits@D@std@@V?$allocator@D@2@@std@@V12@@std@@@std@@@std@@@std@@@std@@@2@$00@std@@QEAAAEAV?$allocator@V?$_List_unchecked_iterator@V?$_List_val@U?$_List_simple_types@U?$pair@$$CBV?$basic_string@DU?$char_traits@D@std@@V?$allocator@D@2@@std@@V12@@std@@@std@@@std@@@std@@@2@XZ
	?_Get_first@?$_Compressed_pair@V?$allocator@V?$_List_unchecked_iterator@V?$_List_val@U?$_List_simple_types@U?$pair@$$CBV?$basic_string@DU?$char_traits@D@std@@V?$allocator@D@2@@std@@V12@@std@@@std@@@std@@@std@@@std@@V?$_Vector_val@U?$_Simple_types@V?$_List_unchecked_iterator@V?$_List_val@U?$_List_simple_types@U?$pair@$$CBV?$basic_string@DU?$char_traits@D@std@@V?$allocator@D@2@@std@@V12@@std@@@std@@@std@@@std@@@std@@@2@$00@std@@QEBAAEBV?$allocator@V?$_List_unchecked_iterator@V?$_List_val@U?$_List_simple_types@U?$pair@$$CBV?$basic_string@DU?$char_traits@D@std@@V?$allocator@D@2@@std@@V12@@std@@@std@@@std@@@std@@@2@XZ
	?_Get_first@?$_Compressed_pair@V?$allocator@V?$_List_unchecked_iterator@V?$_List_val@U?$_List_simple_types@U?$pair@$$CBV?$basic_string@DU?$char_traits@D@std@@V?$allocator@D@2@@std@@VPortInfo@BT@@@std@@@std@@@std@@@std@@@std@@V?$_Vector_val@U?$_Simple_types@V?$_List_unchecked_iterator@V?$_List_val@U?$_List_simple_types@U?$pair@$$CBV?$basic_string@DU?$char_traits@D@std@@V?$allocator@D@2@@std@@VPortInfo@BT@@@std@@@std@@@std@@@std@@@std@@@2@$00@std@@QEAAAEAV?$allocator@V?$_List_unchecked_iterator@V?$_List_val@U?$_List_simple_types@U?$pair@$$CBV?$basic_string@DU?$char_traits@D@std@@V?$allocator@D@2@@std@@VPortInfo@BT@@@std@@@std@@@std@@@std@@@2@XZ
	?_Get_first@?$_Compressed_pair@V?$allocator@V?$_List_unchecked_iterator@V?$_List_val@U?$_List_simple_types@U?$pair@$$CBV?$basic_string@DU?$char_traits@D@std@@V?$allocator@D@2@@std@@VPortInfo@BT@@@std@@@std@@@std@@@std@@@std@@V?$_Vector_val@U?$_Simple_types@V?$_List_unchecked_iterator@V?$_List_val@U?$_List_simple_types@U?$pair@$$CBV?$basic_string@DU?$char_traits@D@std@@V?$allocator@D@2@@std@@VPortInfo@BT@@@std@@@std@@@std@@@std@@@std@@@2@$00@std@@QEBAAEBV?$allocator@V?$_List_unchecked_iterator@V?$_List_val@U?$_List_simple_types@U?$pair@$$CBV?$basic_string@DU?$char_traits@D@std@@V?$allocator@D@2@@std@@VPortInfo@BT@@@std@@@std@@@std@@@std@@@2@XZ
	?_Get_first@?$_Compressed_pair@V?$allocator@V?$weak_ptr@V?$function@$$A6AXV?$time_point@Usteady_clock@chrono@std@@V?$duration@_JU?$ratio@$00$0DLJKMKAA@@std@@@23@@chrono@std@@AEBVTreeNode@BT@@W4NodeStatus@5@2@Z@std@@@std@@@std@@V?$_Vector_val@U?$_Simple_types@V?$weak_ptr@V?$function@$$A6AXV?$time_point@Usteady_clock@chrono@std@@V?$duration@_JU?$ratio@$00$0DLJKMKAA@@std@@@23@@chrono@std@@AEBVTreeNode@BT@@W4NodeStatus@5@2@Z@std@@@std@@@std@@@2@$00@std@@QEAAAEAV?$allocator@V?$weak_ptr@V?$function@$$A6AXV?$time_point@Usteady_clock@chrono@std@@V?$duration@_JU?$ratio@$00$0DLJKMKAA@@std@@@23@@chrono@std@@AEBVTreeNode@BT@@W4NodeStatus@5@2@Z@std@@@std@@@2@XZ
	?_Get_max_bucket_size@?$_Uhash_compare@V?$basic_string@DU?$char_traits@D@std@@V?$allocator@D@2@@std@@U?$hash@V?$basic_string@DU?$char_traits@D@std@@V?$allocator@D@2@@std@@@2@U?$equal_to@V?$basic_string@DU?$char_traits@D@std@@V?$allocator@D@2@@std@@@2@@std@@QEAAAEAMXZ
	?_Get_max_bucket_size@?$_Uhash_compare@V?$basic_string@DU?$char_traits@D@std@@V?$allocator@D@2@@std@@U?$hash@V?$basic_string@DU?$char_traits@D@std@@V?$allocator@D@2@@std@@@2@U?$equal_to@V?$basic_string@DU?$char_traits@D@std@@V?$allocator@D@2@@std@@@2@@std@@QEBAAEBMXZ
	?_Get_scary@?$_Tree@V?$_Tmap_traits@W4PostCond@BT@@V?$basic_string@DU?$char_traits@D@std@@V?$allocator@D@2@@std@@U?$less@W4PostCond@BT@@@4@V?$allocator@U?$pair@$$CBW4PostCond@BT@@V?$basic_string@DU?$char_traits@D@std@@V?$allocator@D@2@@std@@@std@@@4@$0A@@std@@@std@@IEAAPEAV?$_Tree_val@U?$_Tree_simple_types@U?$pair@$$CBW4PostCond@BT@@V?$basic_string@DU?$char_traits@D@std@@V?$allocator@D@2@@std@@@std@@@std@@@2@XZ
	?_Get_scary@?$_Tree@V?$_Tmap_traits@W4PostCond@BT@@V?$basic_string@DU?$char_traits@D@std@@V?$allocator@D@2@@std@@U?$less@W4PostCond@BT@@@4@V?$allocator@U?$pair@$$CBW4PostCond@BT@@V?$basic_string@DU?$char_traits@D@std@@V?$allocator@D@2@@std@@@std@@@4@$0A@@std@@@std@@IEBAPEBV?$_Tree_val@U?$_Tree_simple_types@U?$pair@$$CBW4PostCond@BT@@V?$basic_string@DU?$char_traits@D@std@@V?$allocator@D@2@@std@@@std@@@std@@@2@XZ
	?_Get_scary@?$_Tree@V?$_Tmap_traits@W4PreCond@BT@@V?$basic_string@DU?$char_traits@D@std@@V?$allocator@D@2@@std@@U?$less@W4PreCond@BT@@@4@V?$allocator@U?$pair@$$CBW4PreCond@BT@@V?$basic_string@DU?$char_traits@D@std@@V?$allocator@D@2@@std@@@std@@@4@$0A@@std@@@std@@IEAAPEAV?$_Tree_val@U?$_Tree_simple_types@U?$pair@$$CBW4PreCond@BT@@V?$basic_string@DU?$char_traits@D@std@@V?$allocator@D@2@@std@@@std@@@std@@@2@XZ
	?_Get_scary@?$_Tree@V?$_Tmap_traits@W4PreCond@BT@@V?$basic_string@DU?$char_traits@D@std@@V?$allocator@D@2@@std@@U?$less@W4PreCond@BT@@@4@V?$allocator@U?$pair@$$CBW4PreCond@BT@@V?$basic_string@DU?$char_traits@D@std@@V?$allocator@D@2@@std@@@std@@@4@$0A@@std@@@std@@IEBAPEBV?$_Tree_val@U?$_Tree_simple_types@U?$pair@$$CBW4PreCond@BT@@V?$basic_string@DU?$char_traits@D@std@@V?$allocator@D@2@@std@@@std@@@std@@@2@XZ
	?_Getal@?$_Hash@V?$_Umap_traits@V?$basic_string@DU?$char_traits@D@std@@V?$allocator@D@2@@std@@VPortInfo@BT@@V?$_Uhash_compare@V?$basic_string@DU?$char_traits@D@std@@V?$allocator@D@2@@std@@U?$hash@V?$basic_string@DU?$char_traits@D@std@@V?$allocator@D@2@@std@@@2@U?$equal_to@V?$basic_string@DU?$char_traits@D@std@@V?$allocator@D@2@@std@@@2@@2@V?$allocator@U?$pair@$$CBV?$basic_string@DU?$char_traits@D@std@@V?$allocator@D@2@@std@@VPortInfo@BT@@@std@@@2@$0A@@std@@@std@@IEBAAEBV?$allocator@U?$_List_node@U?$pair@$$CBV?$basic_string@DU?$char_traits@D@std@@V?$allocator@D@2@@std@@VPortInfo@BT@@@std@@PEAX@std@@@2@XZ
	?_Getal@?$_Tree@V?$_Tmap_traits@W4PostCond@BT@@V?$basic_string@DU?$char_traits@D@std@@V?$allocator@D@2@@std@@U?$less@W4PostCond@BT@@@4@V?$allocator@U?$pair@$$CBW4PostCond@BT@@V?$basic_string@DU?$char_traits@D@std@@V?$allocator@D@2@@std@@@std@@@4@$0A@@std@@@std@@IEAAAEAV?$allocator@U?$_Tree_node@U?$pair@$$CBW4PostCond@BT@@V?$basic_string@DU?$char_traits@D@std@@V?$allocator@D@2@@std@@@std@@PEAX@std@@@2@XZ
	?_Getal@?$_Tree@V?$_Tmap_traits@W4PostCond@BT@@V?$basic_string@DU?$char_traits@D@std@@V?$allocator@D@2@@std@@U?$less@W4PostCond@BT@@@4@V?$allocator@U?$pair@$$CBW4PostCond@BT@@V?$basic_string@DU?$char_traits@D@std@@V?$allocator@D@2@@std@@@std@@@4@$0A@@std@@@std@@IEBAAEBV?$allocator@U?$_Tree_node@U?$pair@$$CBW4PostCond@BT@@V?$basic_string@DU?$char_traits@D@std@@V?$allocator@D@2@@std@@@std@@PEAX@std@@@2@XZ
	?_Getal@?$_Tree@V?$_Tmap_traits@W4PreCond@BT@@V?$basic_string@DU?$char_traits@D@std@@V?$allocator@D@2@@std@@U?$less@W4PreCond@BT@@@4@V?$allocator@U?$pair@$$CBW4PreCond@BT@@V?$basic_string@DU?$char_traits@D@std@@V?$allocator@D@2@@std@@@std@@@4@$0A@@std@@@std@@IEAAAEAV?$allocator@U?$_Tree_node@U?$pair@$$CBW4PreCond@BT@@V?$basic_string@DU?$char_traits@D@std@@V?$allocator@D@2@@std@@@std@@PEAX@std@@@2@XZ
	?_Getal@?$_Tree@V?$_Tmap_traits@W4PreCond@BT@@V?$basic_string@DU?$char_traits@D@std@@V?$allocator@D@2@@std@@U?$less@W4PreCond@BT@@@4@V?$allocator@U?$pair@$$CBW4PreCond@BT@@V?$basic_string@DU?$char_traits@D@std@@V?$allocator@D@2@@std@@@std@@@4@$0A@@std@@@std@@IEBAAEBV?$allocator@U?$_Tree_node@U?$pair@$$CBW4PreCond@BT@@V?$basic_string@DU?$char_traits@D@std@@V?$allocator@D@2@@std@@@std@@PEAX@std@@@2@XZ
	?_Getal@?$basic_string@DU?$char_traits@D@std@@V?$allocator@D@2@@std@@AEAAAEAV?$allocator@D@2@XZ
	?_Getal@?$basic_string@DU?$char_traits@D@std@@V?$allocator@D@2@@std@@AEBAAEBV?$allocator@D@2@XZ
	?_Getal@?$list@U?$pair@$$CBV?$basic_string@DU?$char_traits@D@std@@V?$allocator@D@2@@std@@V12@@std@@V?$allocator@U?$pair@$$CBV?$basic_string@DU?$char_traits@D@std@@V?$allocator@D@2@@std@@V12@@std@@@2@@std@@AEAAAEAV?$allocator@U?$_List_node@U?$pair@$$CBV?$basic_string@DU?$char_traits@D@std@@V?$allocator@D@2@@std@@V12@@std@@PEAX@std@@@2@XZ
	?_Getal@?$list@U?$pair@$$CBV?$basic_string@DU?$char_traits@D@std@@V?$allocator@D@2@@std@@V12@@std@@V?$allocator@U?$pair@$$CBV?$basic_string@DU?$char_traits@D@std@@V?$allocator@D@2@@std@@V12@@std@@@2@@std@@AEBAAEBV?$allocator@U?$_List_node@U?$pair@$$CBV?$basic_string@DU?$char_traits@D@std@@V?$allocator@D@2@@std@@V12@@std@@PEAX@std@@@2@XZ
	?_Getal@?$list@U?$pair@$$CBV?$basic_string@DU?$char_traits@D@std@@V?$allocator@D@2@@std@@VPortInfo@BT@@@std@@V?$allocator@U?$pair@$$CBV?$basic_string@DU?$char_traits@D@std@@V?$allocator@D@2@@std@@VPortInfo@BT@@@std@@@2@@std@@AEAAAEAV?$allocator@U?$_List_node@U?$pair@$$CBV?$basic_string@DU?$char_traits@D@std@@V?$allocator@D@2@@std@@VPortInfo@BT@@@std@@PEAX@std@@@2@XZ
	?_Getal@?$list@U?$pair@$$CBV?$basic_string@DU?$char_traits@D@std@@V?$allocator@D@2@@std@@VPortInfo@BT@@@std@@V?$allocator@U?$pair@$$CBV?$basic_string@DU?$char_traits@D@std@@V?$allocator@D@2@@std@@VPortInfo@BT@@@std@@@2@@std@@AEBAAEBV?$allocator@U?$_List_node@U?$pair@$$CBV?$basic_string@DU?$char_traits@D@std@@V?$allocator@D@2@@std@@VPortInfo@BT@@@std@@PEAX@std@@@2@XZ
	?_Getal@?$vector@V?$weak_ptr@V?$function@$$A6AXV?$time_point@Usteady_clock@chrono@std@@V?$duration@_JU?$ratio@$00$0DLJKMKAA@@std@@@23@@chrono@std@@AEBVTreeNode@BT@@W4NodeStatus@5@2@Z@std@@@std@@V?$allocator@V?$weak_ptr@V?$function@$$A6AXV?$time_point@Usteady_clock@chrono@std@@V?$duration@_JU?$ratio@$00$0DLJKMKAA@@std@@@23@@chrono@std@@AEBVTreeNode@BT@@W4NodeStatus@5@2@Z@std@@@std@@@2@@std@@AEAAAEAV?$allocator@V?$weak_ptr@V?$function@$$A6AXV?$time_point@Usteady_clock@chrono@std@@V?$duration@_JU?$ratio@$00$0DLJKMKAA@@std@@@23@@chrono@std@@AEBVTreeNode@BT@@W4NodeStatus@5@2@Z@std@@@std@@@2@XZ
	?_Getcomp@?$_Tree@V?$_Tmap_traits@W4PostCond@BT@@V?$basic_string@DU?$char_traits@D@std@@V?$allocator@D@2@@std@@U?$less@W4PostCond@BT@@@4@V?$allocator@U?$pair@$$CBW4PostCond@BT@@V?$basic_string@DU?$char_traits@D@std@@V?$allocator@D@2@@std@@@std@@@4@$0A@@std@@@std@@IEAAAEAU?$less@W4PostCond@BT@@@2@XZ
	?_Getcomp@?$_Tree@V?$_Tmap_traits@W4PostCond@BT@@V?$basic_string@DU?$char_traits@D@std@@V?$allocator@D@2@@std@@U?$less@W4PostCond@BT@@@4@V?$allocator@U?$pair@$$CBW4PostCond@BT@@V?$basic_string@DU?$char_traits@D@std@@V?$allocator@D@2@@std@@@std@@@4@$0A@@std@@@std@@IEBAAEBU?$less@W4PostCond@BT@@@2@XZ
	?_Getcomp@?$_Tree@V?$_Tmap_traits@W4PreCond@BT@@V?$basic_string@DU?$char_traits@D@std@@V?$allocator@D@2@@std@@U?$less@W4PreCond@BT@@@4@V?$allocator@U?$pair@$$CBW4PreCond@BT@@V?$basic_string@DU?$char_traits@D@std@@V?$allocator@D@2@@std@@@std@@@4@$0A@@std@@@std@@IEAAAEAU?$less@W4PreCond@BT@@@2@XZ
	?_Getcomp@?$_Tree@V?$_Tmap_traits@W4PreCond@BT@@V?$basic_string@DU?$char_traits@D@std@@V?$allocator@D@2@@std@@U?$less@W4PreCond@BT@@@4@V?$allocator@U?$pair@$$CBW4PreCond@BT@@V?$basic_string@DU?$char_traits@D@std@@V?$allocator@D@2@@std@@@std@@@4@$0A@@std@@@std@@IEBAAEBU?$less@W4PreCond@BT@@@2@XZ
	?_Getimpl@?$_Func_class@V?$expected@W4NodeStatus@BT@@V?$basic_string@DU?$char_traits@D@std@@V?$allocator@D@2@@std@@@expected_lite@nonstd@@AEAVTreeNode@BT@@W4NodeStatus@5@@std@@AEBAPEAV?$_Func_base@V?$expected@W4NodeStatus@BT@@V?$basic_string@DU?$char_traits@D@std@@V?$allocator@D@2@@std@@@expected_lite@nonstd@@AEAVTreeNode@BT@@W4NodeStatus@5@@2@XZ
	?_Getimpl@?$_Func_class@V?$expected@W4NodeStatus@BT@@V?$basic_string@DU?$char_traits@D@std@@V?$allocator@D@2@@std@@@expected_lite@nonstd@@AEAVTreeNode@BT@@W4NodeStatus@5@W465@@std@@AEBAPEAV?$_Func_base@V?$expected@W4NodeStatus@BT@@V?$basic_string@DU?$char_traits@D@std@@V?$allocator@D@2@@std@@@expected_lite@nonstd@@AEAVTreeNode@BT@@W4NodeStatus@5@W465@@2@XZ
	?_Getimpl@?$_Func_class@V?$unique_ptr@VTreeNode@BT@@U?$default_delete@VTreeNode@BT@@@std@@@std@@AEBV?$basic_string@DU?$char_traits@D@std@@V?$allocator@D@2@@2@AEBUNodeConfig@BT@@@std@@AEBAPEAV?$_Func_base@V?$unique_ptr@VTreeNode@BT@@U?$default_delete@VTreeNode@BT@@@std@@@std@@AEBV?$basic_string@DU?$char_traits@D@std@@V?$allocator@D@2@@2@AEBUNodeConfig@BT@@@2@XZ
	?_Getimpl@?$_Func_class@VAny@BT@@AEAUEnvironment@Ast@2@@std@@AEBAPEAV?$_Func_base@VAny@BT@@AEAUEnvironment@Ast@2@@2@XZ
	?_Getimpl@?$_Func_class@VAny@BT@@V?$basic_string_view@DU?$char_traits@D@std@@@std@@@std@@AEBAPEAV?$_Func_base@VAny@BT@@V?$basic_string_view@DU?$char_traits@D@std@@@std@@@2@XZ
	?_Getimpl@?$_Func_class@W4NodeStatus@BT@@AEAVTreeNode@2@@std@@AEBAPEAV?$_Func_base@W4NodeStatus@BT@@AEAVTreeNode@2@@2@XZ
	?_Incref@?$_Ptr_base@V?$unordered_map@V?$basic_string@DU?$char_traits@D@std@@V?$allocator@D@2@@std@@HU?$hash@V?$basic_string@DU?$char_traits@D@std@@V?$allocator@D@2@@std@@@2@U?$equal_to@V?$basic_string@DU?$char_traits@D@std@@V?$allocator@D@2@@std@@@2@V?$allocator@U?$pair@$$CBV?$basic_string@DU?$char_traits@D@std@@V?$allocator@D@2@@std@@H@std@@@2@@std@@@std@@IEBAXXZ
	?_Incref@?$_Ptr_base@VBlackboard@BT@@@std@@IEBAXXZ
	?_Incref@_Ref_count_base@std@@QEAAXXZ
	?_Incref_nz@_Ref_count_base@std@@QEAA_NXZ
	?_Insert_new_node_before@?$_Hash@V?$_Umap_traits@V?$basic_string@DU?$char_traits@D@std@@V?$allocator@D@2@@std@@VPortInfo@BT@@V?$_Uhash_compare@V?$basic_string@DU?$char_traits@D@std@@V?$allocator@D@2@@std@@U?$hash@V?$basic_string@DU?$char_traits@D@std@@V?$allocator@D@2@@std@@@2@U?$equal_to@V?$basic_string@DU?$char_traits@D@std@@V?$allocator@D@2@@std@@@2@@2@V?$allocator@U?$pair@$$CBV?$basic_string@DU?$char_traits@D@std@@V?$allocator@D@2@@std@@VPortInfo@BT@@@std@@@2@$0A@@std@@@std@@IEAAPEAU?$_List_node@U?$pair@$$CBV?$basic_string@DU?$char_traits@D@std@@V?$allocator@D@2@@std@@VPortInfo@BT@@@std@@PEAX@2@_KQEAU32@1@Z
	?_Large_string_engaged@?$_String_val@U?$_Simple_types@D@std@@@std@@QEBA_NXZ
	?_Local@?$_Func_class@V?$expected@W4NodeStatus@BT@@V?$basic_string@DU?$char_traits@D@std@@V?$allocator@D@2@@std@@@expected_lite@nonstd@@AEAVTreeNode@BT@@W4NodeStatus@5@@std@@AEBA_NXZ
	?_Local@?$_Func_class@V?$expected@W4NodeStatus@BT@@V?$basic_string@DU?$char_traits@D@std@@V?$allocator@D@2@@std@@@expected_lite@nonstd@@AEAVTreeNode@BT@@W4NodeStatus@5@W465@@std@@AEBA_NXZ
	?_Local@?$_Func_class@V?$unique_ptr@VTreeNode@BT@@U?$default_delete@VTreeNode@BT@@@std@@@std@@AEBV?$basic_string@DU?$char_traits@D@std@@V?$allocator@D@2@@2@AEBUNodeConfig@BT@@@std@@AEBA_NXZ
	?_Local@?$_Func_class@VAny@BT@@AEAUEnvironment@Ast@2@@std@@AEBA_NXZ
	?_Local@?$_Func_class@VAny@BT@@V?$basic_string_view@DU?$char_traits@D@std@@@std@@@std@@AEBA_NXZ
	?_Local@?$_Func_class@W4NodeStatus@BT@@AEAVTreeNode@2@@std@@AEBA_NXZ
	?_Make_const_iter@?$list@U?$pair@$$CBV?$basic_string@DU?$char_traits@D@std@@V?$allocator@D@2@@std@@V12@@std@@V?$allocator@U?$pair@$$CBV?$basic_string@DU?$char_traits@D@std@@V?$allocator@D@2@@std@@V12@@std@@@2@@std@@QEBA?AV?$_List_const_iterator@V?$_List_val@U?$_List_simple_types@U?$pair@$$CBV?$basic_string@DU?$char_traits@D@std@@V?$allocator@D@2@@std@@V12@@std@@@std@@@std@@@2@PEAU?$_List_node@U?$pair@$$CBV?$basic_string@DU?$char_traits@D@std@@V?$allocator@D@2@@std@@V12@@std@@PEAX@2@@Z
	?_Make_iter@?$list@U?$pair@$$CBV?$basic_string@DU?$char_traits@D@std@@V?$allocator@D@2@@std@@UEntry@Blackboard@BT@@@std@@V?$allocator@U?$pair@$$CBV?$basic_string@DU?$char_traits@D@std@@V?$allocator@D@2@@std@@UEntry@Blackboard@BT@@@std@@@2@@std@@QEBA?AV?$_List_iterator@V?$_List_val@U?$_List_simple_types@U?$pair@$$CBV?$basic_string@DU?$char_traits@D@std@@V?$allocator@D@2@@std@@UEntry@Blackboard@BT@@@std@@@std@@@std@@@2@PEAU?$_List_node@U?$pair@$$CBV?$basic_string@DU?$char_traits@D@std@@V?$allocator@D@2@@std@@UEntry@Blackboard@BT@@@std@@PEAX@2@@Z
	?_Make_iter@?$list@U?$pair@$$CBV?$basic_string@DU?$char_traits@D@std@@V?$allocator@D@2@@std@@V12@@std@@V?$allocator@U?$pair@$$CBV?$basic_string@DU?$char_traits@D@std@@V?$allocator@D@2@@std@@V12@@std@@@2@@std@@QEBA?AV?$_List_iterator@V?$_List_val@U?$_List_simple_types@U?$pair@$$CBV?$basic_string@DU?$char_traits@D@std@@V?$allocator@D@2@@std@@V12@@std@@@std@@@std@@@2@PEAU?$_List_node@U?$pair@$$CBV?$basic_string@DU?$char_traits@D@std@@V?$allocator@D@2@@std@@V12@@std@@PEAX@2@@Z
	?_Make_iter@?$list@U?$pair@$$CBV?$basic_string@DU?$char_traits@D@std@@V?$allocator@D@2@@std@@VPortInfo@BT@@@std@@V?$allocator@U?$pair@$$CBV?$basic_string@DU?$char_traits@D@std@@V?$allocator@D@2@@std@@VPortInfo@BT@@@std@@@2@@std@@QEBA?AV?$_List_iterator@V?$_List_val@U?$_List_simple_types@U?$pair@$$CBV?$basic_string@DU?$char_traits@D@std@@V?$allocator@D@2@@std@@VPortInfo@BT@@@std@@@std@@@std@@@2@PEAU?$_List_node@U?$pair@$$CBV?$basic_string@DU?$char_traits@D@std@@V?$allocator@D@2@@std@@VPortInfo@BT@@@std@@PEAX@2@@Z
	?_Max@?$_Tree_val@U?$_Tree_simple_types@U?$pair@$$CBW4PostCond@BT@@V?$basic_string@DU?$char_traits@D@std@@V?$allocator@D@2@@std@@@std@@@std@@@std@@SAPEAU?$_Tree_node@U?$pair@$$CBW4PostCond@BT@@V?$basic_string@DU?$char_traits@D@std@@V?$allocator@D@2@@std@@@std@@PEAX@2@PEAU32@@Z
	?_Max@?$_Tree_val@U?$_Tree_simple_types@U?$pair@$$CBW4PreCond@BT@@V?$basic_string@DU?$char_traits@D@std@@V?$allocator@D@2@@std@@@std@@@std@@@std@@SAPEAU?$_Tree_node@U?$pair@$$CBW4PreCond@BT@@V?$basic_string@DU?$char_traits@D@std@@V?$allocator@D@2@@std@@@std@@PEAX@2@PEAU32@@Z
	?_Max_bucket_size@?$_Hash@V?$_Umap_traits@V?$basic_string@DU?$char_traits@D@std@@V?$allocator@D@2@@std@@V12@V?$_Uhash_compare@V?$basic_string@DU?$char_traits@D@std@@V?$allocator@D@2@@std@@U?$hash@V?$basic_string@DU?$char_traits@D@std@@V?$allocator@D@2@@std@@@2@U?$equal_to@V?$basic_string@DU?$char_traits@D@std@@V?$allocator@D@2@@std@@@2@@2@V?$allocator@U?$pair@$$CBV?$basic_string@DU?$char_traits@D@std@@V?$allocator@D@2@@std@@V12@@std@@@2@$0A@@std@@@std@@IEAAAEAMXZ
	?_Max_bucket_size@?$_Hash@V?$_Umap_traits@V?$basic_string@DU?$char_traits@D@std@@V?$allocator@D@2@@std@@V12@V?$_Uhash_compare@V?$basic_string@DU?$char_traits@D@std@@V?$allocator@D@2@@std@@U?$hash@V?$basic_string@DU?$char_traits@D@std@@V?$allocator@D@2@@std@@@2@U?$equal_to@V?$basic_string@DU?$char_traits@D@std@@V?$allocator@D@2@@std@@@2@@2@V?$allocator@U?$pair@$$CBV?$basic_string@DU?$char_traits@D@std@@V?$allocator@D@2@@std@@V12@@std@@@2@$0A@@std@@@std@@IEBAAEBMXZ
	?_Max_bucket_size@?$_Hash@V?$_Umap_traits@V?$basic_string@DU?$char_traits@D@std@@V?$allocator@D@2@@std@@VPortInfo@BT@@V?$_Uhash_compare@V?$basic_string@DU?$char_traits@D@std@@V?$allocator@D@2@@std@@U?$hash@V?$basic_string@DU?$char_traits@D@std@@V?$allocator@D@2@@std@@@2@U?$equal_to@V?$basic_string@DU?$char_traits@D@std@@V?$allocator@D@2@@std@@@2@@2@V?$allocator@U?$pair@$$CBV?$basic_string@DU?$char_traits@D@std@@V?$allocator@D@2@@std@@VPortInfo@BT@@@std@@@2@$0A@@std@@@std@@IEAAAEAMXZ
	?_Max_bucket_size@?$_Hash@V?$_Umap_traits@V?$basic_string@DU?$char_traits@D@std@@V?$allocator@D@2@@std@@VPortInfo@BT@@V?$_Uhash_compare@V?$basic_string@DU?$char_traits@D@std@@V?$allocator@D@2@@std@@U?$hash@V?$basic_string@DU?$char_traits@D@std@@V?$allocator@D@2@@std@@@2@U?$equal_to@V?$basic_string@DU?$char_traits@D@std@@V?$allocator@D@2@@std@@@2@@2@V?$allocator@U?$pair@$$CBV?$basic_string@DU?$char_traits@D@std@@V?$allocator@D@2@@std@@VPortInfo@BT@@@std@@@2@$0A@@std@@@std@@IEBAAEBMXZ
	?_Memcpy_val_from@?$basic_string@DU?$char_traits@D@std@@V?$allocator@D@2@@std@@AEAAXAEBV12@@Z
	?_Min@?$_Tree_val@U?$_Tree_simple_types@U?$pair@$$CBW4PostCond@BT@@V?$basic_string@DU?$char_traits@D@std@@V?$allocator@D@2@@std@@@std@@@std@@@std@@SAPEAU?$_Tree_node@U?$pair@$$CBW4PostCond@BT@@V?$basic_string@DU?$char_traits@D@std@@V?$allocator@D@2@@std@@@std@@PEAX@2@PEAU32@@Z
	?_Min@?$_Tree_val@U?$_Tree_simple_types@U?$pair@$$CBW4PreCond@BT@@V?$basic_string@DU?$char_traits@D@std@@V?$allocator@D@2@@std@@@std@@@std@@@std@@SAPEAU?$_Tree_node@U?$pair@$$CBW4PreCond@BT@@V?$basic_string@DU?$char_traits@D@std@@V?$allocator@D@2@@std@@@std@@PEAX@2@PEAU32@@Z
	?_Min_load_factor_buckets@?$_Hash@V?$_Umap_traits@V?$basic_string@DU?$char_traits@D@std@@V?$allocator@D@2@@std@@V12@V?$_Uhash_compare@V?$basic_string@DU?$char_traits@D@std@@V?$allocator@D@2@@std@@U?$hash@V?$basic_string@DU?$char_traits@D@std@@V?$allocator@D@2@@std@@@2@U?$equal_to@V?$basic_string@DU?$char_traits@D@std@@V?$allocator@D@2@@std@@@2@@2@V?$allocator@U?$pair@$$CBV?$basic_string@DU?$char_traits@D@std@@V?$allocator@D@2@@std@@V12@@std@@@2@$0A@@std@@@std@@IEBA_K_K@Z
	?_Min_load_factor_buckets@?$_Hash@V?$_Umap_traits@V?$basic_string@DU?$char_traits@D@std@@V?$allocator@D@2@@std@@VPortInfo@BT@@V?$_Uhash_compare@V?$basic_string@DU?$char_traits@D@std@@V?$allocator@D@2@@std@@U?$hash@V?$basic_string@DU?$char_traits@D@std@@V?$allocator@D@2@@std@@@2@U?$equal_to@V?$basic_string@DU?$char_traits@D@std@@V?$allocator@D@2@@std@@@2@@2@V?$allocator@U?$pair@$$CBV?$basic_string@DU?$char_traits@D@std@@V?$allocator@D@2@@std@@VPortInfo@BT@@@std@@@2@$0A@@std@@@std@@IEBA_K_K@Z
	?_Move@?$_Func_impl_no_alloc@V<lambda_57296cd0c6c71135b50e4592291d978e>@@VAny@BT@@V?$basic_string_view@DU?$char_traits@D@std@@@std@@@std@@EEAAPEAV?$_Func_base@VAny@BT@@V?$basic_string_view@DU?$char_traits@D@std@@@std@@@2@PEAX@Z
	?_Move@?$_Func_impl_no_alloc@V<lambda_a95bbca0faf915955c95630ee1c00895>@@V?$unique_ptr@VTreeNode@BT@@U?$default_delete@VTreeNode@BT@@@std@@@std@@AEBV?$basic_string@DU?$char_traits@D@std@@V?$allocator@D@2@@3@AEBUNodeConfig@BT@@@std@@EEAAPEAV?$_Func_base@V?$unique_ptr@VTreeNode@BT@@U?$default_delete@VTreeNode@BT@@@std@@@std@@AEBV?$basic_string@DU?$char_traits@D@std@@V?$allocator@D@2@@2@AEBUNodeConfig@BT@@@2@PEAX@Z
	?_Move@?$_Func_impl_no_alloc@V<lambda_b01c296c30d9c3eb21471946df8728d5>@@V?$unique_ptr@VTreeNode@BT@@U?$default_delete@VTreeNode@BT@@@std@@@std@@AEBV?$basic_string@DU?$char_traits@D@std@@V?$allocator@D@2@@3@AEBUNodeConfig@BT@@@std@@EEAAPEAV?$_Func_base@V?$unique_ptr@VTreeNode@BT@@U?$default_delete@VTreeNode@BT@@@std@@@std@@AEBV?$basic_string@DU?$char_traits@D@std@@V?$allocator@D@2@@2@AEBUNodeConfig@BT@@@2@PEAX@Z
	?_Move@?$_Func_impl_no_alloc@V?$_Binder@U_Unforced@std@@A6A?AW4NodeStatus@BT@@XZ$$V@std@@W4NodeStatus@BT@@AEAVTreeNode@4@@std@@EEAAPEAV?$_Func_base@W4NodeStatus@BT@@AEAVTreeNode@2@@2@PEAX@Z
	?_Move@?$_Func_impl_no_alloc@V?$_Binder@U_Unforced@std@@P8GripperInterface@DummyNodes@@EAA?AW4NodeStatus@BT@@XZPEAV34@@std@@W4NodeStatus@BT@@AEAVTreeNode@4@@std@@EEAAPEAV?$_Func_base@W4NodeStatus@BT@@AEAVTreeNode@2@@2@PEAX@Z
	?_Move_assign@?$basic_string@DU?$char_traits@D@std@@V?$allocator@D@2@@std@@AEAAXAEAV12@U_Equal_allocators@2@@Z
	?_Mycnd@condition_variable@std@@AEAAPEAU_Cnd_internal_imp_t@@XZ
	?_Mymtx@_Mutex_base@std@@AEAAPEAU_Mtx_internal_imp_t@@XZ
	?_Myptr@?$_String_val@U?$_Simple_types@D@std@@@std@@QEAAPEADXZ
	?_Myptr@?$_String_val@U?$_Simple_types@D@std@@@std@@QEBAPEBDXZ
	?_Orphan_all@_Container_base0@std@@QEAAXXZ
	?_Orphan_non_end@?$_List_val@U?$_List_simple_types@U?$pair@$$CBV?$basic_string@DU?$char_traits@D@std@@V?$allocator@D@2@@std@@V12@@std@@@std@@@std@@QEAAXXZ
	?_Orphan_non_end@?$_List_val@U?$_List_simple_types@U?$pair@$$CBV?$basic_string@DU?$char_traits@D@std@@V?$allocator@D@2@@std@@VPortInfo@BT@@@std@@@std@@@std@@QEAAXXZ
	?_Orphan_ptr@?$_Tree_val@U?$_Tree_simple_types@U?$pair@$$CBW4PostCond@BT@@V?$basic_string@DU?$char_traits@D@std@@V?$allocator@D@2@@std@@@std@@@std@@@std@@QEAAXQEAU?$_Tree_node@U?$pair@$$CBW4PostCond@BT@@V?$basic_string@DU?$char_traits@D@std@@V?$allocator@D@2@@std@@@std@@PEAX@2@@Z
	?_Orphan_ptr@?$_Tree_val@U?$_Tree_simple_types@U?$pair@$$CBW4PreCond@BT@@V?$basic_string@DU?$char_traits@D@std@@V?$allocator@D@2@@std@@@std@@@std@@@std@@QEAAXQEAU?$_Tree_node@U?$pair@$$CBW4PreCond@BT@@V?$basic_string@DU?$char_traits@D@std@@V?$allocator@D@2@@std@@@std@@PEAX@2@@Z
	?_Pocca_both@?$_Hash@V?$_Umap_traits@V?$basic_string@DU?$char_traits@D@std@@V?$allocator@D@2@@std@@V12@V?$_Uhash_compare@V?$basic_string@DU?$char_traits@D@std@@V?$allocator@D@2@@std@@U?$hash@V?$basic_string@DU?$char_traits@D@std@@V?$allocator@D@2@@std@@@2@U?$equal_to@V?$basic_string@DU?$char_traits@D@std@@V?$allocator@D@2@@std@@@2@@2@V?$allocator@U?$pair@$$CBV?$basic_string@DU?$char_traits@D@std@@V?$allocator@D@2@@std@@V12@@std@@@2@$0A@@std@@@std@@AEAAXAEBV12@@Z
	?_Rehash_for_1@?$_Hash@V?$_Umap_traits@V?$basic_string@DU?$char_traits@D@std@@V?$allocator@D@2@@std@@VPortInfo@BT@@V?$_Uhash_compare@V?$basic_string@DU?$char_traits@D@std@@V?$allocator@D@2@@std@@U?$hash@V?$basic_string@DU?$char_traits@D@std@@V?$allocator@D@2@@std@@@2@U?$equal_to@V?$basic_string@DU?$char_traits@D@std@@V?$allocator@D@2@@std@@@2@@2@V?$allocator@U?$pair@$$CBV?$basic_string@DU?$char_traits@D@std@@V?$allocator@D@2@@std@@VPortInfo@BT@@@std@@@2@$0A@@std@@@std@@IEAAXXZ
	?_Reinsert_with_invalid_vec@?$_Hash@V?$_Umap_traits@V?$basic_string@DU?$char_traits@D@std@@V?$allocator@D@2@@std@@V12@V?$_Uhash_compare@V?$basic_string@DU?$char_traits@D@std@@V?$allocator@D@2@@std@@U?$hash@V?$basic_string@DU?$char_traits@D@std@@V?$allocator@D@2@@std@@@2@U?$equal_to@V?$basic_string@DU?$char_traits@D@std@@V?$allocator@D@2@@std@@@2@@2@V?$allocator@U?$pair@$$CBV?$basic_string@DU?$char_traits@D@std@@V?$allocator@D@2@@std@@V12@@std@@@2@$0A@@std@@@std@@IEAAXXZ
	?_Release@?$_Alloc_construct_ptr@V?$allocator@U?$_List_node@U?$pair@$$CBV?$basic_string@DU?$char_traits@D@std@@V?$allocator@D@2@@std@@VPortInfo@BT@@@std@@PEAX@std@@@std@@@std@@QEAAPEAU?$_List_node@U?$pair@$$CBV?$basic_string@DU?$char_traits@D@std@@V?$allocator@D@2@@std@@VPortInfo@BT@@@std@@PEAX@2@XZ
	?_Release@?$_Alloc_construct_ptr@V?$allocator@U?$_Tree_node@U?$pair@$$CBW4PostCond@BT@@V?$basic_string@DU?$char_traits@D@std@@V?$allocator@D@2@@std@@@std@@PEAX@std@@@std@@@std@@QEAAPEAU?$_Tree_node@U?$pair@$$CBW4PostCond@BT@@V?$basic_string@DU?$char_traits@D@std@@V?$allocator@D@2@@std@@@std@@PEAX@2@XZ
	?_Release@?$_Alloc_construct_ptr@V?$allocator@U?$_Tree_node@U?$pair@$$CBW4PreCond@BT@@V?$basic_string@DU?$char_traits@D@std@@V?$allocator@D@2@@std@@@std@@PEAX@std@@@std@@@std@@QEAAPEAU?$_Tree_node@U?$pair@$$CBW4PreCond@BT@@V?$basic_string@DU?$char_traits@D@std@@V?$allocator@D@2@@std@@@std@@PEAX@2@XZ
	?_Release@?$_Uninitialized_backout@PEAV?$_List_unchecked_iterator@V?$_List_val@U?$_List_simple_types@U?$pair@$$CBV?$basic_string@DU?$char_traits@D@std@@V?$allocator@D@2@@std@@V12@@std@@@std@@@std@@@std@@@std@@QEAAPEAV?$_List_unchecked_iterator@V?$_List_val@U?$_List_simple_types@U?$pair@$$CBV?$basic_string@DU?$char_traits@D@std@@V?$allocator@D@2@@std@@V12@@std@@@std@@@std@@@2@XZ
	?_Release@?$_Uninitialized_backout@PEAV?$_List_unchecked_iterator@V?$_List_val@U?$_List_simple_types@U?$pair@$$CBV?$basic_string@DU?$char_traits@D@std@@V?$allocator@D@2@@std@@VPortInfo@BT@@@std@@@std@@@std@@@std@@@std@@QEAAPEAV?$_List_unchecked_iterator@V?$_List_val@U?$_List_simple_types@U?$pair@$$CBV?$basic_string@DU?$char_traits@D@std@@V?$allocator@D@2@@std@@VPortInfo@BT@@@std@@@std@@@std@@@2@XZ
	?_Release@_Fake_proxy_ptr_impl@std@@QEAAXXZ
	?_Reset_copy@?$_Func_class@VAny@BT@@V?$basic_string_view@DU?$char_traits@D@std@@@std@@@std@@IEAAXAEBV12@@Z
	?_Reset_move@?$_Func_class@VAny@BT@@V?$basic_string_view@DU?$char_traits@D@std@@@std@@@std@@IEAAX$$QEAV12@@Z
	?_Set@?$_Func_class@V?$expected@W4NodeStatus@BT@@V?$basic_string@DU?$char_traits@D@std@@V?$allocator@D@2@@std@@@expected_lite@nonstd@@AEAVTreeNode@BT@@W4NodeStatus@5@@std@@AEAAXPEAV?$_Func_base@V?$expected@W4NodeStatus@BT@@V?$basic_string@DU?$char_traits@D@std@@V?$allocator@D@2@@std@@@expected_lite@nonstd@@AEAVTreeNode@BT@@W4NodeStatus@5@@2@@Z
	?_Set@?$_Func_class@V?$expected@W4NodeStatus@BT@@V?$basic_string@DU?$char_traits@D@std@@V?$allocator@D@2@@std@@@expected_lite@nonstd@@AEAVTreeNode@BT@@W4NodeStatus@5@W465@@std@@AEAAXPEAV?$_Func_base@V?$expected@W4NodeStatus@BT@@V?$basic_string@DU?$char_traits@D@std@@V?$allocator@D@2@@std@@@expected_lite@nonstd@@AEAVTreeNode@BT@@W4NodeStatus@5@W465@@2@@Z
	?_Set@?$_Func_class@V?$unique_ptr@VTreeNode@BT@@U?$default_delete@VTreeNode@BT@@@std@@@std@@AEBV?$basic_string@DU?$char_traits@D@std@@V?$allocator@D@2@@2@AEBUNodeConfig@BT@@@std@@AEAAXPEAV?$_Func_base@V?$unique_ptr@VTreeNode@BT@@U?$default_delete@VTreeNode@BT@@@std@@@std@@AEBV?$basic_string@DU?$char_traits@D@std@@V?$allocator@D@2@@2@AEBUNodeConfig@BT@@@2@@Z
	?_Set@?$_Func_class@VAny@BT@@AEAUEnvironment@Ast@2@@std@@AEAAXPEAV?$_Func_base@VAny@BT@@AEAUEnvironment@Ast@2@@2@@Z
	?_Set@?$_Func_class@VAny@BT@@V?$basic_string_view@DU?$char_traits@D@std@@@std@@@std@@AEAAXPEAV?$_Func_base@VAny@BT@@V?$basic_string_view@DU?$char_traits@D@std@@@std@@@2@@Z
	?_Set@?$_Func_class@W4NodeStatus@BT@@AEAVTreeNode@2@@std@@AEAAXPEAV?$_Func_base@W4NodeStatus@BT@@AEAVTreeNode@2@@2@@Z
	?_Swap@?$_Ptr_base@V?$unordered_map@V?$basic_string@DU?$char_traits@D@std@@V?$allocator@D@2@@std@@HU?$hash@V?$basic_string@DU?$char_traits@D@std@@V?$allocator@D@2@@std@@@2@U?$equal_to@V?$basic_string@DU?$char_traits@D@std@@V?$allocator@D@2@@std@@@2@V?$allocator@U?$pair@$$CBV?$basic_string@DU?$char_traits@D@std@@V?$allocator@D@2@@std@@H@std@@@2@@std@@@std@@IEAAXAEAV12@@Z
	?_Swap@?$_Ptr_base@VBlackboard@BT@@@std@@IEAAXAEAV12@@Z
	?_Swap_proxy_and_iterators@?$basic_string@DU?$char_traits@D@std@@V?$allocator@D@2@@std@@AEAAXAEAV12@@Z
	?_Swap_proxy_and_iterators@_Container_base0@std@@QEAAXAEAU12@@Z
	?_Take_contents@?$basic_string@DU?$char_traits@D@std@@V?$allocator@D@2@@std@@AEAAXAEAV12@@Z
	?_Target_type@?$_Func_impl_no_alloc@V<lambda_57296cd0c6c71135b50e4592291d978e>@@VAny@BT@@V?$basic_string_view@DU?$char_traits@D@std@@@std@@@std@@EEBAAEBVtype_info@@XZ
	?_Target_type@?$_Func_impl_no_alloc@V<lambda_a95bbca0faf915955c95630ee1c00895>@@V?$unique_ptr@VTreeNode@BT@@U?$default_delete@VTreeNode@BT@@@std@@@std@@AEBV?$basic_string@DU?$char_traits@D@std@@V?$allocator@D@2@@3@AEBUNodeConfig@BT@@@std@@EEBAAEBVtype_info@@XZ
	?_Target_type@?$_Func_impl_no_alloc@V<lambda_b01c296c30d9c3eb21471946df8728d5>@@V?$unique_ptr@VTreeNode@BT@@U?$default_delete@VTreeNode@BT@@@std@@@std@@AEBV?$basic_string@DU?$char_traits@D@std@@V?$allocator@D@2@@3@AEBUNodeConfig@BT@@@std@@EEBAAEBVtype_info@@XZ
	?_Target_type@?$_Func_impl_no_alloc@V?$_Binder@U_Unforced@std@@A6A?AW4NodeStatus@BT@@XZ$$V@std@@W4NodeStatus@BT@@AEAVTreeNode@4@@std@@EEBAAEBVtype_info@@XZ
	?_Target_type@?$_Func_impl_no_alloc@V?$_Binder@U_Unforced@std@@P8GripperInterface@DummyNodes@@EAA?AW4NodeStatus@BT@@XZPEAV34@@std@@W4NodeStatus@BT@@AEAVTreeNode@4@@std@@EEBAAEBVtype_info@@XZ
	?_Throw_bad_array_new_length@std@@YAXXZ
	?_Tidy@?$_Func_class@V?$expected@W4NodeStatus@BT@@V?$basic_string@DU?$char_traits@D@std@@V?$allocator@D@2@@std@@@expected_lite@nonstd@@AEAVTreeNode@BT@@W4NodeStatus@5@@std@@IEAAXXZ
	?_Tidy@?$_Func_class@V?$expected@W4NodeStatus@BT@@V?$basic_string@DU?$char_traits@D@std@@V?$allocator@D@2@@std@@@expected_lite@nonstd@@AEAVTreeNode@BT@@W4NodeStatus@5@W465@@std@@IEAAXXZ
	?_Tidy@?$_Func_class@V?$unique_ptr@VTreeNode@BT@@U?$default_delete@VTreeNode@BT@@@std@@@std@@AEBV?$basic_string@DU?$char_traits@D@std@@V?$allocator@D@2@@2@AEBUNodeConfig@BT@@@std@@IEAAXXZ
	?_Tidy@?$_Func_class@VAny@BT@@AEAUEnvironment@Ast@2@@std@@IEAAXXZ
	?_Tidy@?$_Func_class@VAny@BT@@V?$basic_string_view@DU?$char_traits@D@std@@@std@@@std@@IEAAXXZ
	?_Tidy@?$_Func_class@W4NodeStatus@BT@@AEAVTreeNode@2@@std@@IEAAXXZ
	?_Tidy@?$_Hash_vec@V?$allocator@V?$_List_unchecked_iterator@V?$_List_val@U?$_List_simple_types@U?$pair@$$CBV?$basic_string@DU?$char_traits@D@std@@V?$allocator@D@2@@std@@V12@@std@@@std@@@std@@@std@@@std@@@std@@QEAAXXZ
	?_Tidy@?$_Hash_vec@V?$allocator@V?$_List_unchecked_iterator@V?$_List_val@U?$_List_simple_types@U?$pair@$$CBV?$basic_string@DU?$char_traits@D@std@@V?$allocator@D@2@@std@@VPortInfo@BT@@@std@@@std@@@std@@@std@@@std@@@std@@QEAAXXZ
	?_Tidy@?$list@U?$pair@$$CBV?$basic_string@DU?$char_traits@D@std@@V?$allocator@D@2@@std@@V12@@std@@V?$allocator@U?$pair@$$CBV?$basic_string@DU?$char_traits@D@std@@V?$allocator@D@2@@std@@V12@@std@@@2@@std@@AEAAXXZ
	?_Tidy@?$list@U?$pair@$$CBV?$basic_string@DU?$char_traits@D@std@@V?$allocator@D@2@@std@@VPortInfo@BT@@@std@@V?$allocator@U?$pair@$$CBV?$basic_string@DU?$char_traits@D@std@@V?$allocator@D@2@@std@@VPortInfo@BT@@@std@@@2@@std@@AEAAXXZ
	?_Tidy@?$vector@V?$weak_ptr@V?$function@$$A6AXV?$time_point@Usteady_clock@chrono@std@@V?$duration@_JU?$ratio@$00$0DLJKMKAA@@std@@@23@@chrono@std@@AEBVTreeNode@BT@@W4NodeStatus@5@2@Z@std@@@std@@V?$allocator@V?$weak_ptr@V?$function@$$A6AXV?$time_point@Usteady_clock@chrono@std@@V?$duration@_JU?$ratio@$00$0DLJKMKAA@@std@@@23@@chrono@std@@AEBVTreeNode@BT@@W4NodeStatus@5@2@Z@std@@@std@@@2@@std@@AEAAXXZ
	?_Tidy_deallocate@?$basic_string@DU?$char_traits@D@std@@V?$allocator@D@2@@std@@AEAAXXZ
	?_Tidy_init@?$basic_string@DU?$char_traits@D@std@@V?$allocator@D@2@@std@@AEAAXXZ
	?_Unchecked_begin@?$_Hash@V?$_Umap_traits@V?$basic_string@DU?$char_traits@D@std@@V?$allocator@D@2@@std@@V12@V?$_Uhash_compare@V?$basic_string@DU?$char_traits@D@std@@V?$allocator@D@2@@std@@U?$hash@V?$basic_string@DU?$char_traits@D@std@@V?$allocator@D@2@@std@@@2@U?$equal_to@V?$basic_string@DU?$char_traits@D@std@@V?$allocator@D@2@@std@@@2@@2@V?$allocator@U?$pair@$$CBV?$basic_string@DU?$char_traits@D@std@@V?$allocator@D@2@@std@@V12@@std@@@2@$0A@@std@@@std@@QEAA?AV?$_List_unchecked_iterator@V?$_List_val@U?$_List_simple_types@U?$pair@$$CBV?$basic_string@DU?$char_traits@D@std@@V?$allocator@D@2@@std@@V12@@std@@@std@@@std@@@2@XZ
	?_Unchecked_begin@?$_Hash@V?$_Umap_traits@V?$basic_string@DU?$char_traits@D@std@@V?$allocator@D@2@@std@@VPortInfo@BT@@V?$_Uhash_compare@V?$basic_string@DU?$char_traits@D@std@@V?$allocator@D@2@@std@@U?$hash@V?$basic_string@DU?$char_traits@D@std@@V?$allocator@D@2@@std@@@2@U?$equal_to@V?$basic_string@DU?$char_traits@D@std@@V?$allocator@D@2@@std@@@2@@2@V?$allocator@U?$pair@$$CBV?$basic_string@DU?$char_traits@D@std@@V?$allocator@D@2@@std@@VPortInfo@BT@@@std@@@2@$0A@@std@@@std@@QEAA?AV?$_List_unchecked_iterator@V?$_List_val@U?$_List_simple_types@U?$pair@$$CBV?$basic_string@DU?$char_traits@D@std@@V?$allocator@D@2@@std@@VPortInfo@BT@@@std@@@std@@@std@@@2@XZ
	?_Unchecked_begin@?$_Hash@V?$_Umap_traits@V?$basic_string@DU?$char_traits@D@std@@V?$allocator@D@2@@std@@VPortInfo@BT@@V?$_Uhash_compare@V?$basic_string@DU?$char_traits@D@std@@V?$allocator@D@2@@std@@U?$hash@V?$basic_string@DU?$char_traits@D@std@@V?$allocator@D@2@@std@@@2@U?$equal_to@V?$basic_string@DU?$char_traits@D@std@@V?$allocator@D@2@@std@@@2@@2@V?$allocator@U?$pair@$$CBV?$basic_string@DU?$char_traits@D@std@@V?$allocator@D@2@@std@@VPortInfo@BT@@@std@@@2@$0A@@std@@@std@@QEBA?AV?$_List_unchecked_const_iterator@V?$_List_val@U?$_List_simple_types@U?$pair@$$CBV?$basic_string@DU?$char_traits@D@std@@V?$allocator@D@2@@std@@VPortInfo@BT@@@std@@@std@@@std@@U_Iterator_base0@2@@2@XZ
	?_Unchecked_begin@?$list@U?$pair@$$CBV?$basic_string@DU?$char_traits@D@std@@V?$allocator@D@2@@std@@V12@@std@@V?$allocator@U?$pair@$$CBV?$basic_string@DU?$char_traits@D@std@@V?$allocator@D@2@@std@@V12@@std@@@2@@std@@QEAA?AV?$_List_unchecked_iterator@V?$_List_val@U?$_List_simple_types@U?$pair@$$CBV?$basic_string@DU?$char_traits@D@std@@V?$allocator@D@2@@std@@V12@@std@@@std@@@std@@@2@XZ
	?_Unchecked_begin@?$list@U?$pair@$$CBV?$basic_string@DU?$char_traits@D@std@@V?$allocator@D@2@@std@@V12@@std@@V?$allocator@U?$pair@$$CBV?$basic_string@DU?$char_traits@D@std@@V?$allocator@D@2@@std@@V12@@std@@@2@@std@@QEBA?AV?$_List_unchecked_const_iterator@V?$_List_val@U?$_List_simple_types@U?$pair@$$CBV?$basic_string@DU?$char_traits@D@std@@V?$allocator@D@2@@std@@V12@@std@@@std@@@std@@U_Iterator_base0@2@@2@XZ
	?_Unchecked_begin@?$list@U?$pair@$$CBV?$basic_string@DU?$char_traits@D@std@@V?$allocator@D@2@@std@@VPortInfo@BT@@@std@@V?$allocator@U?$pair@$$CBV?$basic_string@DU?$char_traits@D@std@@V?$allocator@D@2@@std@@VPortInfo@BT@@@std@@@2@@std@@QEAA?AV?$_List_unchecked_iterator@V?$_List_val@U?$_List_simple_types@U?$pair@$$CBV?$basic_string@DU?$char_traits@D@std@@V?$allocator@D@2@@std@@VPortInfo@BT@@@std@@@std@@@std@@@2@XZ
	?_Unchecked_begin@?$list@U?$pair@$$CBV?$basic_string@DU?$char_traits@D@std@@V?$allocator@D@2@@std@@VPortInfo@BT@@@std@@V?$allocator@U?$pair@$$CBV?$basic_string@DU?$char_traits@D@std@@V?$allocator@D@2@@std@@VPortInfo@BT@@@std@@@2@@std@@QEBA?AV?$_List_unchecked_const_iterator@V?$_List_val@U?$_List_simple_types@U?$pair@$$CBV?$basic_string@DU?$char_traits@D@std@@V?$allocator@D@2@@std@@VPortInfo@BT@@@std@@@std@@@std@@U_Iterator_base0@2@@2@XZ
	?_Unchecked_end@?$_Hash@V?$_Umap_traits@V?$basic_string@DU?$char_traits@D@std@@V?$allocator@D@2@@std@@V12@V?$_Uhash_compare@V?$basic_string@DU?$char_traits@D@std@@V?$allocator@D@2@@std@@U?$hash@V?$basic_string@DU?$char_traits@D@std@@V?$allocator@D@2@@std@@@2@U?$equal_to@V?$basic_string@DU?$char_traits@D@std@@V?$allocator@D@2@@std@@@2@@2@V?$allocator@U?$pair@$$CBV?$basic_string@DU?$char_traits@D@std@@V?$allocator@D@2@@std@@V12@@std@@@2@$0A@@std@@@std@@QEAA?AV?$_List_unchecked_iterator@V?$_List_val@U?$_List_simple_types@U?$pair@$$CBV?$basic_string@DU?$char_traits@D@std@@V?$allocator@D@2@@std@@V12@@std@@@std@@@std@@@2@XZ
	?_Unchecked_end@?$_Hash@V?$_Umap_traits@V?$basic_string@DU?$char_traits@D@std@@V?$allocator@D@2@@std@@VPortInfo@BT@@V?$_Uhash_compare@V?$basic_string@DU?$char_traits@D@std@@V?$allocator@D@2@@std@@U?$hash@V?$basic_string@DU?$char_traits@D@std@@V?$allocator@D@2@@std@@@2@U?$equal_to@V?$basic_string@DU?$char_traits@D@std@@V?$allocator@D@2@@std@@@2@@2@V?$allocator@U?$pair@$$CBV?$basic_string@DU?$char_traits@D@std@@V?$allocator@D@2@@std@@VPortInfo@BT@@@std@@@2@$0A@@std@@@std@@QEAA?AV?$_List_unchecked_iterator@V?$_List_val@U?$_List_simple_types@U?$pair@$$CBV?$basic_string@DU?$char_traits@D@std@@V?$allocator@D@2@@std@@VPortInfo@BT@@@std@@@std@@@std@@@2@XZ
	?_Unchecked_end@?$_Hash@V?$_Umap_traits@V?$basic_string@DU?$char_traits@D@std@@V?$allocator@D@2@@std@@VPortInfo@BT@@V?$_Uhash_compare@V?$basic_string@DU?$char_traits@D@std@@V?$allocator@D@2@@std@@U?$hash@V?$basic_string@DU?$char_traits@D@std@@V?$allocator@D@2@@std@@@2@U?$equal_to@V?$basic_string@DU?$char_traits@D@std@@V?$allocator@D@2@@std@@@2@@2@V?$allocator@U?$pair@$$CBV?$basic_string@DU?$char_traits@D@std@@V?$allocator@D@2@@std@@VPortInfo@BT@@@std@@@2@$0A@@std@@@std@@QEBA?AV?$_List_unchecked_const_iterator@V?$_List_val@U?$_List_simple_types@U?$pair@$$CBV?$basic_string@DU?$char_traits@D@std@@V?$allocator@D@2@@std@@VPortInfo@BT@@@std@@@std@@@std@@U_Iterator_base0@2@@2@XZ
	?_Unchecked_end@?$list@U?$pair@$$CBV?$basic_string@DU?$char_traits@D@std@@V?$allocator@D@2@@std@@V12@@std@@V?$allocator@U?$pair@$$CBV?$basic_string@DU?$char_traits@D@std@@V?$allocator@D@2@@std@@V12@@std@@@2@@std@@QEAA?AV?$_List_unchecked_iterator@V?$_List_val@U?$_List_simple_types@U?$pair@$$CBV?$basic_string@DU?$char_traits@D@std@@V?$allocator@D@2@@std@@V12@@std@@@std@@@std@@@2@XZ
	?_Unchecked_end@?$list@U?$pair@$$CBV?$basic_string@DU?$char_traits@D@std@@V?$allocator@D@2@@std@@V12@@std@@V?$allocator@U?$pair@$$CBV?$basic_string@DU?$char_traits@D@std@@V?$allocator@D@2@@std@@V12@@std@@@2@@std@@QEBA?AV?$_List_unchecked_const_iterator@V?$_List_val@U?$_List_simple_types@U?$pair@$$CBV?$basic_string@DU?$char_traits@D@std@@V?$allocator@D@2@@std@@V12@@std@@@std@@@std@@U_Iterator_base0@2@@2@XZ
	?_Unchecked_end@?$list@U?$pair@$$CBV?$basic_string@DU?$char_traits@D@std@@V?$allocator@D@2@@std@@VPortInfo@BT@@@std@@V?$allocator@U?$pair@$$CBV?$basic_string@DU?$char_traits@D@std@@V?$allocator@D@2@@std@@VPortInfo@BT@@@std@@@2@@std@@QEAA?AV?$_List_unchecked_iterator@V?$_List_val@U?$_List_simple_types@U?$pair@$$CBV?$basic_string@DU?$char_traits@D@std@@V?$allocator@D@2@@std@@VPortInfo@BT@@@std@@@std@@@std@@@2@XZ
	?_Unchecked_end@?$list@U?$pair@$$CBV?$basic_string@DU?$char_traits@D@std@@V?$allocator@D@2@@std@@VPortInfo@BT@@@std@@V?$allocator@U?$pair@$$CBV?$basic_string@DU?$char_traits@D@std@@V?$allocator@D@2@@std@@VPortInfo@BT@@@std@@@2@@std@@QEBA?AV?$_List_unchecked_const_iterator@V?$_List_val@U?$_List_simple_types@U?$pair@$$CBV?$basic_string@DU?$char_traits@D@std@@V?$allocator@D@2@@std@@VPortInfo@BT@@@std@@@std@@@std@@U_Iterator_base0@2@@2@XZ
	?_Unchecked_erase@?$_Hash@V?$_Umap_traits@V?$basic_string@DU?$char_traits@D@std@@V?$allocator@D@2@@std@@V12@V?$_Uhash_compare@V?$basic_string@DU?$char_traits@D@std@@V?$allocator@D@2@@std@@U?$hash@V?$basic_string@DU?$char_traits@D@std@@V?$allocator@D@2@@std@@@2@U?$equal_to@V?$basic_string@DU?$char_traits@D@std@@V?$allocator@D@2@@std@@@2@@2@V?$allocator@U?$pair@$$CBV?$basic_string@DU?$char_traits@D@std@@V?$allocator@D@2@@std@@V12@@std@@@2@$0A@@std@@@std@@AEAAPEAU?$_List_node@U?$pair@$$CBV?$basic_string@DU?$char_traits@D@std@@V?$allocator@D@2@@std@@V12@@std@@PEAX@2@PEAU32@QEAU32@@Z
	?_Unchecked_erase@?$_Hash@V?$_Umap_traits@V?$basic_string@DU?$char_traits@D@std@@V?$allocator@D@2@@std@@VPortInfo@BT@@V?$_Uhash_compare@V?$basic_string@DU?$char_traits@D@std@@V?$allocator@D@2@@std@@U?$hash@V?$basic_string@DU?$char_traits@D@std@@V?$allocator@D@2@@std@@@2@U?$equal_to@V?$basic_string@DU?$char_traits@D@std@@V?$allocator@D@2@@std@@@2@@2@V?$allocator@U?$pair@$$CBV?$basic_string@DU?$char_traits@D@std@@V?$allocator@D@2@@std@@VPortInfo@BT@@@std@@@2@$0A@@std@@@std@@AEAAPEAU?$_List_node@U?$pair@$$CBV?$basic_string@DU?$char_traits@D@std@@V?$allocator@D@2@@std@@VPortInfo@BT@@@std@@PEAX@2@PEAU32@QEAU32@@Z
	?_Unchecked_erase@?$list@U?$pair@$$CBV?$basic_string@DU?$char_traits@D@std@@V?$allocator@D@2@@std@@V12@@std@@V?$allocator@U?$pair@$$CBV?$basic_string@DU?$char_traits@D@std@@V?$allocator@D@2@@std@@V12@@std@@@2@@std@@AEAAPEAU?$_List_node@U?$pair@$$CBV?$basic_string@DU?$char_traits@D@std@@V?$allocator@D@2@@std@@V12@@std@@PEAX@2@PEAU32@QEAU32@@Z
	?_Unchecked_splice@?$_List_val@U?$_List_simple_types@U?$pair@$$CBV?$basic_string@DU?$char_traits@D@std@@V?$allocator@D@2@@std@@V12@@std@@@std@@@std@@SAPEAU?$_List_node@U?$pair@$$CBV?$basic_string@DU?$char_traits@D@std@@V?$allocator@D@2@@std@@V12@@std@@PEAX@2@QEAU32@00@Z
	?_Unchecked_splice@?$_List_val@U?$_List_simple_types@U?$pair@$$CBV?$basic_string@DU?$char_traits@D@std@@V?$allocator@D@2@@std@@VPortInfo@BT@@@std@@@std@@@std@@SAPEAU?$_List_node@U?$pair@$$CBV?$basic_string@DU?$char_traits@D@std@@V?$allocator@D@2@@std@@VPortInfo@BT@@@std@@PEAX@2@QEAU32@00@Z
	?_Xlen_string@std@@YAXXZ
	?allocate@?$allocator@D@std@@QEAAPEAD_K@Z
	?allocate@?$allocator@U?$_List_node@U?$pair@$$CBV?$basic_string@DU?$char_traits@D@std@@V?$allocator@D@2@@std@@V12@@std@@PEAX@std@@@std@@QEAAPEAU?$_List_node@U?$pair@$$CBV?$basic_string@DU?$char_traits@D@std@@V?$allocator@D@2@@std@@V12@@std@@PEAX@2@_K@Z
	?allocate@?$allocator@U?$_List_node@U?$pair@$$CBV?$basic_string@DU?$char_traits@D@std@@V?$allocator@D@2@@std@@VPortInfo@BT@@@std@@PEAX@std@@@std@@QEAAPEAU?$_List_node@U?$pair@$$CBV?$basic_string@DU?$char_traits@D@std@@V?$allocator@D@2@@std@@VPortInfo@BT@@@std@@PEAX@2@_K@Z
	?allocate@?$allocator@U?$_Tree_node@U?$pair@$$CBW4PostCond@BT@@V?$basic_string@DU?$char_traits@D@std@@V?$allocator@D@2@@std@@@std@@PEAX@std@@@std@@QEAAPEAU?$_Tree_node@U?$pair@$$CBW4PostCond@BT@@V?$basic_string@DU?$char_traits@D@std@@V?$allocator@D@2@@std@@@std@@PEAX@2@_K@Z
	?allocate@?$allocator@U?$_Tree_node@U?$pair@$$CBW4PreCond@BT@@V?$basic_string@DU?$char_traits@D@std@@V?$allocator@D@2@@std@@@std@@PEAX@std@@@std@@QEAAPEAU?$_Tree_node@U?$pair@$$CBW4PreCond@BT@@V?$basic_string@DU?$char_traits@D@std@@V?$allocator@D@2@@std@@@std@@PEAX@2@_K@Z
	?allocate@?$allocator@V?$_List_unchecked_iterator@V?$_List_val@U?$_List_simple_types@U?$pair@$$CBV?$basic_string@DU?$char_traits@D@std@@V?$allocator@D@2@@std@@V12@@std@@@std@@@std@@@std@@@std@@QEAAPEAV?$_List_unchecked_iterator@V?$_List_val@U?$_List_simple_types@U?$pair@$$CBV?$basic_string@DU?$char_traits@D@std@@V?$allocator@D@2@@std@@V12@@std@@@std@@@std@@@2@_K@Z
	?allocate@?$allocator@V?$_List_unchecked_iterator@V?$_List_val@U?$_List_simple_types@U?$pair@$$CBV?$basic_string@DU?$char_traits@D@std@@V?$allocator@D@2@@std@@VPortInfo@BT@@@std@@@std@@@std@@@std@@@std@@QEAAPEAV?$_List_unchecked_iterator@V?$_List_val@U?$_List_simple_types@U?$pair@$$CBV?$basic_string@DU?$char_traits@D@std@@V?$allocator@D@2@@std@@VPortInfo@BT@@@std@@@std@@@std@@@2@_K@Z
	?append@?$basic_string@DU?$char_traits@D@std@@V?$allocator@D@2@@std@@QEAAAEAV12@QEBD_K@Z
	?assign@?$_Narrow_char_traits@DH@std@@SAPEADQEAD_KD@Z
	?assign@?$_Narrow_char_traits@DH@std@@SAXAEADAEBD@Z
	?assign@?$basic_string@DU?$char_traits@D@std@@V?$allocator@D@2@@std@@QEAAAEAV12@QEBD@Z
	?assign@?$basic_string@DU?$char_traits@D@std@@V?$allocator@D@2@@std@@QEAAAEAV12@QEBD_K@Z
	?assign@?$basic_string@DU?$char_traits@D@std@@V?$allocator@D@2@@std@@QEAAAEAV12@_KD@Z
	?begin@?$initializer_list@U?$pair@$$CBV?$basic_string@DU?$char_traits@D@std@@V?$allocator@D@2@@std@@VPortInfo@BT@@@std@@@std@@QEBAPEBU?$pair@$$CBV?$basic_string@DU?$char_traits@D@std@@V?$allocator@D@2@@std@@VPortInfo@BT@@@2@XZ
	?begin@?$initializer_list@V?$basic_string_view@DU?$char_traits@D@std@@@std@@@std@@QEBAPEBV?$basic_string_view@DU?$char_traits@D@std@@@2@XZ
	?bucket@?$_Hash@V?$_Umap_traits@V?$basic_string@DU?$char_traits@D@std@@V?$allocator@D@2@@std@@V12@V?$_Uhash_compare@V?$basic_string@DU?$char_traits@D@std@@V?$allocator@D@2@@std@@U?$hash@V?$basic_string@DU?$char_traits@D@std@@V?$allocator@D@2@@std@@@2@U?$equal_to@V?$basic_string@DU?$char_traits@D@std@@V?$allocator@D@2@@std@@@2@@2@V?$allocator@U?$pair@$$CBV?$basic_string@DU?$char_traits@D@std@@V?$allocator@D@2@@std@@V12@@std@@@2@$0A@@std@@@std@@QEBA_KAEBV?$basic_string@DU?$char_traits@D@std@@V?$allocator@D@2@@2@@Z
	?bucket@?$_Hash@V?$_Umap_traits@V?$basic_string@DU?$char_traits@D@std@@V?$allocator@D@2@@std@@VPortInfo@BT@@V?$_Uhash_compare@V?$basic_string@DU?$char_traits@D@std@@V?$allocator@D@2@@std@@U?$hash@V?$basic_string@DU?$char_traits@D@std@@V?$allocator@D@2@@std@@@2@U?$equal_to@V?$basic_string@DU?$char_traits@D@std@@V?$allocator@D@2@@std@@@2@@2@V?$allocator@U?$pair@$$CBV?$basic_string@DU?$char_traits@D@std@@V?$allocator@D@2@@std@@VPortInfo@BT@@@std@@@2@$0A@@std@@@std@@QEBA_KAEBV?$basic_string@DU?$char_traits@D@std@@V?$allocator@D@2@@2@@Z
	?bucket_count@?$_Hash@V?$_Umap_traits@V?$basic_string@DU?$char_traits@D@std@@V?$allocator@D@2@@std@@V12@V?$_Uhash_compare@V?$basic_string@DU?$char_traits@D@std@@V?$allocator@D@2@@std@@U?$hash@V?$basic_string@DU?$char_traits@D@std@@V?$allocator@D@2@@std@@@2@U?$equal_to@V?$basic_string@DU?$char_traits@D@std@@V?$allocator@D@2@@std@@@2@@2@V?$allocator@U?$pair@$$CBV?$basic_string@DU?$char_traits@D@std@@V?$allocator@D@2@@std@@V12@@std@@@2@$0A@@std@@@std@@QEBA_KXZ
	?bucket_count@?$_Hash@V?$_Umap_traits@V?$basic_string@DU?$char_traits@D@std@@V?$allocator@D@2@@std@@VPortInfo@BT@@V?$_Uhash_compare@V?$basic_string@DU?$char_traits@D@std@@V?$allocator@D@2@@std@@U?$hash@V?$basic_string@DU?$char_traits@D@std@@V?$allocator@D@2@@std@@@2@U?$equal_to@V?$basic_string@DU?$char_traits@D@std@@V?$allocator@D@2@@std@@@2@@2@V?$allocator@U?$pair@$$CBV?$basic_string@DU?$char_traits@D@std@@V?$allocator@D@2@@std@@VPortInfo@BT@@@std@@@2@$0A@@std@@@std@@QEBA_KXZ
	?c_str@?$basic_string@DU?$char_traits@D@std@@V?$allocator@D@2@@std@@QEBAPEBDXZ
	?clear@?$_Hash@V?$_Umap_traits@V?$basic_string@DU?$char_traits@D@std@@V?$allocator@D@2@@std@@V12@V?$_Uhash_compare@V?$basic_string@DU?$char_traits@D@std@@V?$allocator@D@2@@std@@U?$hash@V?$basic_string@DU?$char_traits@D@std@@V?$allocator@D@2@@std@@@2@U?$equal_to@V?$basic_string@DU?$char_traits@D@std@@V?$allocator@D@2@@std@@@2@@2@V?$allocator@U?$pair@$$CBV?$basic_string@DU?$char_traits@D@std@@V?$allocator@D@2@@std@@V12@@std@@@2@$0A@@std@@@std@@QEAAXXZ
	?clear@?$_Hash@V?$_Umap_traits@V?$basic_string@DU?$char_traits@D@std@@V?$allocator@D@2@@std@@VPortInfo@BT@@V?$_Uhash_compare@V?$basic_string@DU?$char_traits@D@std@@V?$allocator@D@2@@std@@U?$hash@V?$basic_string@DU?$char_traits@D@std@@V?$allocator@D@2@@std@@@2@U?$equal_to@V?$basic_string@DU?$char_traits@D@std@@V?$allocator@D@2@@std@@@2@@2@V?$allocator@U?$pair@$$CBV?$basic_string@DU?$char_traits@D@std@@V?$allocator@D@2@@std@@VPortInfo@BT@@@std@@@2@$0A@@std@@@std@@QEAAXXZ
	?clear@?$_Tree@V?$_Tmap_traits@W4PostCond@BT@@V?$basic_string@DU?$char_traits@D@std@@V?$allocator@D@2@@std@@U?$less@W4PostCond@BT@@@4@V?$allocator@U?$pair@$$CBW4PostCond@BT@@V?$basic_string@DU?$char_traits@D@std@@V?$allocator@D@2@@std@@@std@@@4@$0A@@std@@@std@@QEAAXXZ
	?clear@?$_Tree@V?$_Tmap_traits@W4PreCond@BT@@V?$basic_string@DU?$char_traits@D@std@@V?$allocator@D@2@@std@@U?$less@W4PreCond@BT@@@4@V?$allocator@U?$pair@$$CBW4PreCond@BT@@V?$basic_string@DU?$char_traits@D@std@@V?$allocator@D@2@@std@@@std@@@4@$0A@@std@@@std@@QEAAXXZ
	?clear@?$list@U?$pair@$$CBV?$basic_string@DU?$char_traits@D@std@@V?$allocator@D@2@@std@@V12@@std@@V?$allocator@U?$pair@$$CBV?$basic_string@DU?$char_traits@D@std@@V?$allocator@D@2@@std@@V12@@std@@@2@@std@@QEAAXXZ
	?clear@?$list@U?$pair@$$CBV?$basic_string@DU?$char_traits@D@std@@V?$allocator@D@2@@std@@VPortInfo@BT@@@std@@V?$allocator@U?$pair@$$CBV?$basic_string@DU?$char_traits@D@std@@V?$allocator@D@2@@std@@VPortInfo@BT@@@std@@@2@@std@@QEAAXXZ
	?clear@any@linb@@QEAAXXZ
	?close@GripperInterface@DummyNodes@@QEAA?AW4NodeStatus@BT@@XZ
	?compare@?$_Narrow_char_traits@DH@std@@SAHQEBD0_K@Z
	?construct_error@?$storage_t_impl@Umonostate@std@@V?$basic_string@DU?$char_traits@D@std@@V?$allocator@D@2@@2@@detail@expected_lite@nonstd@@QEAAX$$QEAV?$basic_string@DU?$char_traits@D@std@@V?$allocator@D@2@@std@@@Z
	?construct_error@?$storage_t_impl@V?$basic_string@DU?$char_traits@D@std@@V?$allocator@D@2@@std@@V12@@detail@expected_lite@nonstd@@QEAAX$$QEAV?$basic_string@DU?$char_traits@D@std@@V?$allocator@D@2@@std@@@Z
	?construct_value@?$storage_t_impl@Umonostate@std@@V?$basic_string@DU?$char_traits@D@std@@V?$allocator@D@2@@2@@detail@expected_lite@nonstd@@QEAAX$$QEAUmonostate@std@@@Z
	?construct_value@?$storage_t_impl@V?$basic_string@DU?$char_traits@D@std@@V?$allocator@D@2@@std@@V12@@detail@expected_lite@nonstd@@QEAAX$$QEAV?$basic_string@DU?$char_traits@D@std@@V?$allocator@D@2@@std@@@Z
	?construct_value@?$storage_t_impl@V?$basic_string@DU?$char_traits@D@std@@V?$allocator@D@2@@std@@V12@@detail@expected_lite@nonstd@@QEAAXAEBV?$basic_string@DU?$char_traits@D@std@@V?$allocator@D@2@@std@@@Z
	?copy@?$_Char_traits@DH@std@@SAPEADQEADQEBD_K@Z
	?copy@?$vtable_dynamic@VSimpleString@SafeAny@@@any@linb@@SAXAEBTstorage_union@23@AEAT423@@Z
	?createImpl@SimpleString@SafeAny@@AEAAXPEBD_K@Z
	?data@?$basic_string@DU?$char_traits@D@std@@V?$allocator@D@2@@std@@QEBAPEBDXZ
	?data@?$basic_string_view@DU?$char_traits@D@std@@@std@@QEBAPEBDXZ
	?data@SimpleString@SafeAny@@QEBAPEBDXZ
	?deallocate@?$_Default_allocator_traits@V?$allocator@U?$_List_node@U?$pair@$$CBV?$basic_string@DU?$char_traits@D@std@@V?$allocator@D@2@@std@@V12@@std@@PEAX@std@@@std@@@std@@SAXAEAV?$allocator@U?$_List_node@U?$pair@$$CBV?$basic_string@DU?$char_traits@D@std@@V?$allocator@D@2@@std@@V12@@std@@PEAX@std@@@2@QEAU?$_List_node@U?$pair@$$CBV?$basic_string@DU?$char_traits@D@std@@V?$allocator@D@2@@std@@V12@@std@@PEAX@2@_K@Z
	?deallocate@?$_Default_allocator_traits@V?$allocator@U?$_List_node@U?$pair@$$CBV?$basic_string@DU?$char_traits@D@std@@V?$allocator@D@2@@std@@VPortInfo@BT@@@std@@PEAX@std@@@std@@@std@@SAXAEAV?$allocator@U?$_List_node@U?$pair@$$CBV?$basic_string@DU?$char_traits@D@std@@V?$allocator@D@2@@std@@VPortInfo@BT@@@std@@PEAX@std@@@2@QEAU?$_List_node@U?$pair@$$CBV?$basic_string@DU?$char_traits@D@std@@V?$allocator@D@2@@std@@VPortInfo@BT@@@std@@PEAX@2@_K@Z
	?deallocate@?$_Default_allocator_traits@V?$allocator@U?$_Tree_node@U?$pair@$$CBW4PostCond@BT@@V?$basic_string@DU?$char_traits@D@std@@V?$allocator@D@2@@std@@@std@@PEAX@std@@@std@@@std@@SAXAEAV?$allocator@U?$_Tree_node@U?$pair@$$CBW4PostCond@BT@@V?$basic_string@DU?$char_traits@D@std@@V?$allocator@D@2@@std@@@std@@PEAX@std@@@2@QEAU?$_Tree_node@U?$pair@$$CBW4PostCond@BT@@V?$basic_string@DU?$char_traits@D@std@@V?$allocator@D@2@@std@@@std@@PEAX@2@_K@Z
	?deallocate@?$_Default_allocator_traits@V?$allocator@U?$_Tree_node@U?$pair@$$CBW4PreCond@BT@@V?$basic_string@DU?$char_traits@D@std@@V?$allocator@D@2@@std@@@std@@PEAX@std@@@std@@@std@@SAXAEAV?$allocator@U?$_Tree_node@U?$pair@$$CBW4PreCond@BT@@V?$basic_string@DU?$char_traits@D@std@@V?$allocator@D@2@@std@@@std@@PEAX@std@@@2@QEAU?$_Tree_node@U?$pair@$$CBW4PreCond@BT@@V?$basic_string@DU?$char_traits@D@std@@V?$allocator@D@2@@std@@@std@@PEAX@2@_K@Z
	?deallocate@?$allocator@D@std@@QEAAXQEAD_K@Z
	?deallocate@?$allocator@U?$_List_node@U?$pair@$$CBV?$basic_string@DU?$char_traits@D@std@@V?$allocator@D@2@@std@@V12@@std@@PEAX@std@@@std@@QEAAXQEAU?$_List_node@U?$pair@$$CBV?$basic_string@DU?$char_traits@D@std@@V?$allocator@D@2@@std@@V12@@std@@PEAX@2@_K@Z
	?deallocate@?$allocator@U?$_List_node@U?$pair@$$CBV?$basic_string@DU?$char_traits@D@std@@V?$allocator@D@2@@std@@VPortInfo@BT@@@std@@PEAX@std@@@std@@QEAAXQEAU?$_List_node@U?$pair@$$CBV?$basic_string@DU?$char_traits@D@std@@V?$allocator@D@2@@std@@VPortInfo@BT@@@std@@PEAX@2@_K@Z
	?deallocate@?$allocator@U?$_Tree_node@U?$pair@$$CBW4PostCond@BT@@V?$basic_string@DU?$char_traits@D@std@@V?$allocator@D@2@@std@@@std@@PEAX@std@@@std@@QEAAXQEAU?$_Tree_node@U?$pair@$$CBW4PostCond@BT@@V?$basic_string@DU?$char_traits@D@std@@V?$allocator@D@2@@std@@@std@@PEAX@2@_K@Z
	?deallocate@?$allocator@U?$_Tree_node@U?$pair@$$CBW4PreCond@BT@@V?$basic_string@DU?$char_traits@D@std@@V?$allocator@D@2@@std@@@std@@PEAX@std@@@std@@QEAAXQEAU?$_Tree_node@U?$pair@$$CBW4PreCond@BT@@V?$basic_string@DU?$char_traits@D@std@@V?$allocator@D@2@@std@@@std@@PEAX@2@_K@Z
	?deallocate@?$allocator@V?$_List_unchecked_iterator@V?$_List_val@U?$_List_simple_types@U?$pair@$$CBV?$basic_string@DU?$char_traits@D@std@@V?$allocator@D@2@@std@@V12@@std@@@std@@@std@@@std@@@std@@QEAAXQEAV?$_List_unchecked_iterator@V?$_List_val@U?$_List_simple_types@U?$pair@$$CBV?$basic_string@DU?$char_traits@D@std@@V?$allocator@D@2@@std@@V12@@std@@@std@@@std@@@2@_K@Z
	?deallocate@?$allocator@V?$_List_unchecked_iterator@V?$_List_val@U?$_List_simple_types@U?$pair@$$CBV?$basic_string@DU?$char_traits@D@std@@V?$allocator@D@2@@std@@VPortInfo@BT@@@std@@@std@@@std@@@std@@@std@@QEAAXQEAV?$_List_unchecked_iterator@V?$_List_val@U?$_List_simple_types@U?$pair@$$CBV?$basic_string@DU?$char_traits@D@std@@V?$allocator@D@2@@std@@VPortInfo@BT@@@std@@@std@@@std@@@2@_K@Z
	?deallocate@?$allocator@V?$weak_ptr@V?$function@$$A6AXV?$time_point@Usteady_clock@chrono@std@@V?$duration@_JU?$ratio@$00$0DLJKMKAA@@std@@@23@@chrono@std@@AEBVTreeNode@BT@@W4NodeStatus@5@2@Z@std@@@std@@@std@@QEAAXQEAV?$weak_ptr@V?$function@$$A6AXV?$time_point@Usteady_clock@chrono@std@@V?$duration@_JU?$ratio@$00$0DLJKMKAA@@std@@@23@@chrono@std@@AEBVTreeNode@BT@@W4NodeStatus@5@2@Z@std@@@2@_K@Z
	?demangle@BT@@YA?AV?$basic_string@DU?$char_traits@D@std@@V?$allocator@D@2@@std@@AEBVtype_info@@@Z
	?demangle@BT@@YA?AV?$basic_string@DU?$char_traits@D@std@@V?$allocator@D@2@@std@@PEBVtype_info@@@Z
	?demangle_alloc@BT@@YAPEBDPEBD@Z
	?demangle_free@BT@@YAXPEBD@Z
	?destroy@?$vtable_dynamic@VSimpleString@SafeAny@@@any@linb@@SAXAEATstorage_union@23@@Z
	?destruct_error@?$storage_t_impl@Umonostate@std@@V?$basic_string@DU?$char_traits@D@std@@V?$allocator@D@2@@2@@detail@expected_lite@nonstd@@QEAAXXZ
	?destruct_error@?$storage_t_impl@V?$basic_string@DU?$char_traits@D@std@@V?$allocator@D@2@@std@@V12@@detail@expected_lite@nonstd@@QEAAXXZ
	?destruct_error@?$storage_t_impl@V?$basic_string_view@DU?$char_traits@D@std@@@std@@V?$basic_string@DU?$char_traits@D@std@@V?$allocator@D@2@@2@@detail@expected_lite@nonstd@@QEAAXXZ
	?destruct_value@?$storage_t_impl@Umonostate@std@@V?$basic_string@DU?$char_traits@D@std@@V?$allocator@D@2@@2@@detail@expected_lite@nonstd@@QEAAXXZ
	?destruct_value@?$storage_t_impl@V?$basic_string@DU?$char_traits@D@std@@V?$allocator@D@2@@std@@V12@@detail@expected_lite@nonstd@@QEAAXXZ
	?destruct_value@?$storage_t_impl@V?$basic_string_view@DU?$char_traits@D@std@@@std@@V?$basic_string@DU?$char_traits@D@std@@V?$allocator@D@2@@2@@detail@expected_lite@nonstd@@QEAAXXZ
	?empty@?$basic_string_view@DU?$char_traits@D@std@@@std@@QEBA_NXZ
	?empty@Any@BT@@QEBA_NXZ
	?empty@any@linb@@QEBA_NXZ
	?end@?$_Hash@V?$_Umap_traits@V?$basic_string@DU?$char_traits@D@std@@V?$allocator@D@2@@std@@UEntry@Blackboard@BT@@V?$_Uhash_compare@V?$basic_string@DU?$char_traits@D@std@@V?$allocator@D@2@@std@@U?$hash@V?$basic_string@DU?$char_traits@D@std@@V?$allocator@D@2@@std@@@2@U?$equal_to@V?$basic_string@DU?$char_traits@D@std@@V?$allocator@D@2@@std@@@2@@2@V?$allocator@U?$pair@$$CBV?$basic_string@DU?$char_traits@D@std@@V?$allocator@D@2@@std@@UEntry@Blackboard@BT@@@std@@@2@$0A@@std@@@std@@QEAA?AV?$_List_iterator@V?$_List_val@U?$_List_simple_types@U?$pair@$$CBV?$basic_string@DU?$char_traits@D@std@@V?$allocator@D@2@@std@@UEntry@Blackboard@BT@@@std@@@std@@@std@@@2@XZ
	?end@?$_Hash@V?$_Umap_traits@V?$basic_string@DU?$char_traits@D@std@@V?$allocator@D@2@@std@@V12@V?$_Uhash_compare@V?$basic_string@DU?$char_traits@D@std@@V?$allocator@D@2@@std@@U?$hash@V?$basic_string@DU?$char_traits@D@std@@V?$allocator@D@2@@std@@@2@U?$equal_to@V?$basic_string@DU?$char_traits@D@std@@V?$allocator@D@2@@std@@@2@@2@V?$allocator@U?$pair@$$CBV?$basic_string@DU?$char_traits@D@std@@V?$allocator@D@2@@std@@V12@@std@@@2@$0A@@std@@@std@@QEAA?AV?$_List_iterator@V?$_List_val@U?$_List_simple_types@U?$pair@$$CBV?$basic_string@DU?$char_traits@D@std@@V?$allocator@D@2@@std@@V12@@std@@@std@@@std@@@2@XZ
	?end@?$_Hash@V?$_Umap_traits@V?$basic_string@DU?$char_traits@D@std@@V?$allocator@D@2@@std@@V12@V?$_Uhash_compare@V?$basic_string@DU?$char_traits@D@std@@V?$allocator@D@2@@std@@U?$hash@V?$basic_string@DU?$char_traits@D@std@@V?$allocator@D@2@@std@@@2@U?$equal_to@V?$basic_string@DU?$char_traits@D@std@@V?$allocator@D@2@@std@@@2@@2@V?$allocator@U?$pair@$$CBV?$basic_string@DU?$char_traits@D@std@@V?$allocator@D@2@@std@@V12@@std@@@2@$0A@@std@@@std@@QEBA?AV?$_List_const_iterator@V?$_List_val@U?$_List_simple_types@U?$pair@$$CBV?$basic_string@DU?$char_traits@D@std@@V?$allocator@D@2@@std@@V12@@std@@@std@@@std@@@2@XZ
	?end@?$initializer_list@U?$pair@$$CBV?$basic_string@DU?$char_traits@D@std@@V?$allocator@D@2@@std@@VPortInfo@BT@@@std@@@std@@QEBAPEBU?$pair@$$CBV?$basic_string@DU?$char_traits@D@std@@V?$allocator@D@2@@std@@VPortInfo@BT@@@2@XZ
	?end@?$initializer_list@V?$basic_string_view@DU?$char_traits@D@std@@@std@@@std@@QEBAPEBV?$basic_string_view@DU?$char_traits@D@std@@@2@XZ
	?end@?$list@U?$pair@$$CBV?$basic_string@DU?$char_traits@D@std@@V?$allocator@D@2@@std@@UEntry@Blackboard@BT@@@std@@V?$allocator@U?$pair@$$CBV?$basic_string@DU?$char_traits@D@std@@V?$allocator@D@2@@std@@UEntry@Blackboard@BT@@@std@@@2@@std@@QEAA?AV?$_List_iterator@V?$_List_val@U?$_List_simple_types@U?$pair@$$CBV?$basic_string@DU?$char_traits@D@std@@V?$allocator@D@2@@std@@UEntry@Blackboard@BT@@@std@@@std@@@std@@@2@XZ
	?end@?$list@U?$pair@$$CBV?$basic_string@DU?$char_traits@D@std@@V?$allocator@D@2@@std@@V12@@std@@V?$allocator@U?$pair@$$CBV?$basic_string@DU?$char_traits@D@std@@V?$allocator@D@2@@std@@V12@@std@@@2@@std@@QEAA?AV?$_List_iterator@V?$_List_val@U?$_List_simple_types@U?$pair@$$CBV?$basic_string@DU?$char_traits@D@std@@V?$allocator@D@2@@std@@V12@@std@@@std@@@std@@@2@XZ
	?end@?$list@U?$pair@$$CBV?$basic_string@DU?$char_traits@D@std@@V?$allocator@D@2@@std@@V12@@std@@V?$allocator@U?$pair@$$CBV?$basic_string@DU?$char_traits@D@std@@V?$allocator@D@2@@std@@V12@@std@@@2@@std@@QEBA?AV?$_List_const_iterator@V?$_List_val@U?$_List_simple_types@U?$pair@$$CBV?$basic_string@DU?$char_traits@D@std@@V?$allocator@D@2@@std@@V12@@std@@@std@@@std@@@2@XZ
	?entryMutex@Blackboard@BT@@QEAAAEAVmutex@std@@XZ
	?eof@?$_Narrow_char_traits@DH@std@@SAHXZ
	?eq_int_type@?$_Narrow_char_traits@DH@std@@SA_NAEBH0@Z
	?error@?$expected@Umonostate@std@@V?$basic_string@DU?$char_traits@D@std@@V?$allocator@D@2@@2@@expected_lite@nonstd@@QEGAAAEAV?$basic_string@DU?$char_traits@D@std@@V?$allocator@D@2@@std@@XZ
	?error@?$expected@V?$basic_string@DU?$char_traits@D@std@@V?$allocator@D@2@@std@@V12@@expected_lite@nonstd@@QEGAAAEAV?$basic_string@DU?$char_traits@D@std@@V?$allocator@D@2@@std@@XZ
	?error@?$storage_t_impl@Umonostate@std@@V?$basic_string@DU?$char_traits@D@std@@V?$allocator@D@2@@2@@detail@expected_lite@nonstd@@QEGAAAEAV?$basic_string@DU?$char_traits@D@std@@V?$allocator@D@2@@std@@XZ
	?error@?$storage_t_impl@V?$basic_string@DU?$char_traits@D@std@@V?$allocator@D@2@@std@@V12@@detail@expected_lite@nonstd@@QEGAAAEAV?$basic_string@DU?$char_traits@D@std@@V?$allocator@D@2@@std@@XZ
	?error@?$storage_t_impl@V?$basic_string_view@DU?$char_traits@D@std@@@std@@V?$basic_string@DU?$char_traits@D@std@@V?$allocator@D@2@@2@@detail@expected_lite@nonstd@@QEGAAAEAV?$basic_string@DU?$char_traits@D@std@@V?$allocator@D@2@@std@@XZ
	?get@?$_Ptr_base@VBlackboard@BT@@@std@@IEBAPEAVBlackboard@BT@@XZ
	?get@scoped_demangled_name@BT@@QEBAPEBDXZ
	?getAny@Blackboard@BT@@QEAAPEAVAny@2@AEBV?$basic_string@DU?$char_traits@D@std@@V?$allocator@D@2@@std@@@Z
	?get_deleter@?$unique_ptr@VApproachObject@DummyNodes@@U?$default_delete@VApproachObject@DummyNodes@@@std@@@std@@QEAAAEAU?$default_delete@VApproachObject@DummyNodes@@@2@XZ
	?get_deleter@?$unique_ptr@VSaySomething@DummyNodes@@U?$default_delete@VSaySomething@DummyNodes@@@std@@@std@@QEAAAEAU?$default_delete@VSaySomething@DummyNodes@@@2@XZ
	?halt@SyncActionNode@BT@@UEAAXXZ
	?has_value@?$expected@Umonostate@std@@V?$basic_string@DU?$char_traits@D@std@@V?$allocator@D@2@@2@@expected_lite@nonstd@@QEBA_NXZ
	?has_value@?$expected@V?$basic_string@DU?$char_traits@D@std@@V?$allocator@D@2@@std@@V12@@expected_lite@nonstd@@QEBA_NXZ
	?has_value@?$expected@V?$basic_string_view@DU?$char_traits@D@std@@@std@@V?$basic_string@DU?$char_traits@D@std@@V?$allocator@D@2@@2@@expected_lite@nonstd@@QEBA_NXZ
	?has_value@?$storage_t_impl@Umonostate@std@@V?$basic_string@DU?$char_traits@D@std@@V?$allocator@D@2@@2@@detail@expected_lite@nonstd@@QEBA_NXZ
	?has_value@?$storage_t_impl@V?$basic_string@DU?$char_traits@D@std@@V?$allocator@D@2@@std@@V12@@detail@expected_lite@nonstd@@QEBA_NXZ
	?has_value@?$storage_t_impl@V?$basic_string_view@DU?$char_traits@D@std@@@std@@V?$basic_string@DU?$char_traits@D@std@@V?$allocator@D@2@@2@@detail@expected_lite@nonstd@@QEBA_NXZ
	?insert@?$_Hash@V?$_Umap_traits@V?$basic_string@DU?$char_traits@D@std@@V?$allocator@D@2@@std@@VPortInfo@BT@@V?$_Uhash_compare@V?$basic_string@DU?$char_traits@D@std@@V?$allocator@D@2@@std@@U?$hash@V?$basic_string@DU?$char_traits@D@std@@V?$allocator@D@2@@std@@@2@U?$equal_to@V?$basic_string@DU?$char_traits@D@std@@V?$allocator@D@2@@std@@@2@@2@V?$allocator@U?$pair@$$CBV?$basic_string@DU?$char_traits@D@std@@V?$allocator@D@2@@std@@VPortInfo@BT@@@std@@@2@$0A@@std@@@std@@QEAAXV?$initializer_list@U?$pair@$$CBV?$basic_string@DU?$char_traits@D@std@@V?$allocator@D@2@@std@@VPortInfo@BT@@@std@@@2@@Z
	?isSOO@SimpleString@SafeAny@@QEBA_NXZ
	?is_same@any@linb@@KA_NAEBVtype_info@@0@Z
	?is_typed@any@linb@@IEBA_NAEBVtype_info@@@Z
	?length@?$_Narrow_char_traits@DH@std@@SA_KQEBD@Z
	?lock@?$weak_ptr@VBlackboard@BT@@@std@@QEBA?AV?$shared_ptr@VBlackboard@BT@@@2@XZ
	?lock@_Mutex_base@std@@QEAAXXZ
	?max@?$numeric_limits@_J@std@@SA_JXZ
	?max_load_factor@?$_Hash@V?$_Umap_traits@V?$basic_string@DU?$char_traits@D@std@@V?$allocator@D@2@@std@@V12@V?$_Uhash_compare@V?$basic_string@DU?$char_traits@D@std@@V?$allocator@D@2@@std@@U?$hash@V?$basic_string@DU?$char_traits@D@std@@V?$allocator@D@2@@std@@@2@U?$equal_to@V?$basic_string@DU?$char_traits@D@std@@V?$allocator@D@2@@std@@@2@@2@V?$allocator@U?$pair@$$CBV?$basic_string@DU?$char_traits@D@std@@V?$allocator@D@2@@std@@V12@@std@@@2@$0A@@std@@@std@@QEBAMXZ
	?max_load_factor@?$_Hash@V?$_Umap_traits@V?$basic_string@DU?$char_traits@D@std@@V?$allocator@D@2@@std@@VPortInfo@BT@@V?$_Uhash_compare@V?$basic_string@DU?$char_traits@D@std@@V?$allocator@D@2@@std@@U?$hash@V?$basic_string@DU?$char_traits@D@std@@V?$allocator@D@2@@std@@@2@U?$equal_to@V?$basic_string@DU?$char_traits@D@std@@V?$allocator@D@2@@std@@@2@@2@V?$allocator@U?$pair@$$CBV?$basic_string@DU?$char_traits@D@std@@V?$allocator@D@2@@std@@VPortInfo@BT@@@std@@@2@$0A@@std@@@std@@QEBAMXZ
	?max_size@?$_Default_allocator_traits@V?$allocator@D@std@@@std@@SA_KAEBV?$allocator@D@2@@Z
	?max_size@?$_Default_allocator_traits@V?$allocator@U?$_List_node@U?$pair@$$CBV?$basic_string@DU?$char_traits@D@std@@V?$allocator@D@2@@std@@VPortInfo@BT@@@std@@PEAX@std@@@std@@@std@@SA_KAEBV?$allocator@U?$_List_node@U?$pair@$$CBV?$basic_string@DU?$char_traits@D@std@@V?$allocator@D@2@@std@@VPortInfo@BT@@@std@@PEAX@std@@@2@@Z
	?max_size@?$_Default_allocator_traits@V?$allocator@V?$_List_unchecked_iterator@V?$_List_val@U?$_List_simple_types@U?$pair@$$CBV?$basic_string@DU?$char_traits@D@std@@V?$allocator@D@2@@std@@V12@@std@@@std@@@std@@@std@@@std@@@std@@SA_KAEBV?$allocator@V?$_List_unchecked_iterator@V?$_List_val@U?$_List_simple_types@U?$pair@$$CBV?$basic_string@DU?$char_traits@D@std@@V?$allocator@D@2@@std@@V12@@std@@@std@@@std@@@std@@@2@@Z
	?max_size@?$_Default_allocator_traits@V?$allocator@V?$_List_unchecked_iterator@V?$_List_val@U?$_List_simple_types@U?$pair@$$CBV?$basic_string@DU?$char_traits@D@std@@V?$allocator@D@2@@std@@VPortInfo@BT@@@std@@@std@@@std@@@std@@@std@@@std@@SA_KAEBV?$allocator@V?$_List_unchecked_iterator@V?$_List_val@U?$_List_simple_types@U?$pair@$$CBV?$basic_string@DU?$char_traits@D@std@@V?$allocator@D@2@@std@@VPortInfo@BT@@@std@@@std@@@std@@@std@@@2@@Z
	?max_size@?$_Hash_vec@V?$allocator@V?$_List_unchecked_iterator@V?$_List_val@U?$_List_simple_types@U?$pair@$$CBV?$basic_string@DU?$char_traits@D@std@@V?$allocator@D@2@@std@@V12@@std@@@std@@@std@@@std@@@std@@@std@@QEBA_KXZ
	?max_size@?$_Hash_vec@V?$allocator@V?$_List_unchecked_iterator@V?$_List_val@U?$_List_simple_types@U?$pair@$$CBV?$basic_string@DU?$char_traits@D@std@@V?$allocator@D@2@@std@@VPortInfo@BT@@@std@@@std@@@std@@@std@@@std@@@std@@QEBA_KXZ
	?max_size@?$basic_string@DU?$char_traits@D@std@@V?$allocator@D@2@@std@@QEBA_KXZ
	?max_size@?$list@U?$pair@$$CBV?$basic_string@DU?$char_traits@D@std@@V?$allocator@D@2@@std@@VPortInfo@BT@@@std@@V?$allocator@U?$pair@$$CBV?$basic_string@DU?$char_traits@D@std@@V?$allocator@D@2@@std@@VPortInfo@BT@@@std@@@2@@std@@QEBA_KXZ
	?move@?$_Char_traits@DH@std@@SAPEADQEADQEBD_K@Z
	?move@?$vtable_dynamic@VSimpleString@SafeAny@@@any@linb@@SAXAEATstorage_union@23@0@Z
	?name@type_info@@QEBAPEBDXZ
	?open@GripperInterface@DummyNodes@@QEAA?AW4NodeStatus@BT@@XZ
	?pointer_to@?$pointer_traits@PEAU?$pair@$$CBV?$basic_string@DU?$char_traits@D@std@@V?$allocator@D@2@@std@@UEntry@Blackboard@BT@@@std@@@std@@SAPEAU?$pair@$$CBV?$basic_string@DU?$char_traits@D@std@@V?$allocator@D@2@@std@@UEntry@Blackboard@BT@@@2@AEAU32@@Z
	?pointer_to@?$pointer_traits@PEAU?$pair@$$CBV?$basic_string@DU?$char_traits@D@std@@V?$allocator@D@2@@std@@V12@@std@@@std@@SAPEAU?$pair@$$CBV?$basic_string@DU?$char_traits@D@std@@V?$allocator@D@2@@std@@V12@@2@AEAU32@@Z
	?pointer_to@?$pointer_traits@PEBU?$pair@$$CBV?$basic_string@DU?$char_traits@D@std@@V?$allocator@D@2@@std@@V12@@std@@@std@@SAPEBU?$pair@$$CBV?$basic_string@DU?$char_traits@D@std@@V?$allocator@D@2@@std@@V12@@2@AEBU32@@Z
	?providedPorts@SaySomething@DummyNodes@@SA?AV?$unordered_map@V?$basic_string@DU?$char_traits@D@std@@V?$allocator@D@2@@std@@VPortInfo@BT@@U?$hash@V?$basic_string@DU?$char_traits@D@std@@V?$allocator@D@2@@std@@@2@U?$equal_to@V?$basic_string@DU?$char_traits@D@std@@V?$allocator@D@2@@std@@@2@V?$allocator@U?$pair@$$CBV?$basic_string@DU?$char_traits@D@std@@V?$allocator@D@2@@std@@VPortInfo@BT@@@std@@@2@@std@@XZ
	?release@?$unique_ptr@VApproachObject@DummyNodes@@U?$default_delete@VApproachObject@DummyNodes@@@std@@@std@@QEAAPEAVApproachObject@DummyNodes@@XZ
	?release@?$unique_ptr@VSaySomething@DummyNodes@@U?$default_delete@VSaySomething@DummyNodes@@@std@@@std@@QEAAPEAVSaySomething@DummyNodes@@XZ
	?reserve@?$basic_string@DU?$char_traits@D@std@@V?$allocator@D@2@@std@@QEAAX_K@Z
	?rethrow@?$error_traits@V?$basic_string@DU?$char_traits@D@std@@V?$allocator@D@2@@std@@@expected_lite@nonstd@@SAXAEBV?$basic_string@DU?$char_traits@D@std@@V?$allocator@D@2@@std@@@Z
	?select_on_container_copy_construction@?$_Default_allocator_traits@V?$allocator@D@std@@@std@@SA?AV?$allocator@D@2@AEBV32@@Z
	?select_on_container_copy_construction@?$_Default_allocator_traits@V?$allocator@U?$_List_node@U?$pair@$$CBV?$basic_string@DU?$char_traits@D@std@@V?$allocator@D@2@@std@@VPortInfo@BT@@@std@@PEAX@std@@@std@@@std@@SA?AV?$allocator@U?$_List_node@U?$pair@$$CBV?$basic_string@DU?$char_traits@D@std@@V?$allocator@D@2@@std@@VPortInfo@BT@@@std@@PEAX@std@@@2@AEBV32@@Z
	?size@?$_Hash_vec@V?$allocator@V?$_List_unchecked_iterator@V?$_List_val@U?$_List_simple_types@U?$pair@$$CBV?$basic_string@DU?$char_traits@D@std@@V?$allocator@D@2@@std@@V12@@std@@@std@@@std@@@std@@@std@@@std@@QEBA_KXZ
	?size@?$_Hash_vec@V?$allocator@V?$_List_unchecked_iterator@V?$_List_val@U?$_List_simple_types@U?$pair@$$CBV?$basic_string@DU?$char_traits@D@std@@V?$allocator@D@2@@std@@VPortInfo@BT@@@std@@@std@@@std@@@std@@@std@@@std@@QEBA_KXZ
	?size@?$basic_string@DU?$char_traits@D@std@@V?$allocator@D@2@@std@@QEBA_KXZ
	?size@?$basic_string_view@DU?$char_traits@D@std@@@std@@QEBA_KXZ
	?size@?$list@U?$pair@$$CBV?$basic_string@DU?$char_traits@D@std@@V?$allocator@D@2@@std@@V12@@std@@V?$allocator@U?$pair@$$CBV?$basic_string@DU?$char_traits@D@std@@V?$allocator@D@2@@std@@V12@@std@@@2@@std@@QEBA_KXZ
	?size@SimpleString@SafeAny@@QEBA_KXZ
	?swap@?$shared_ptr@V?$unordered_map@V?$basic_string@DU?$char_traits@D@std@@V?$allocator@D@2@@std@@HU?$hash@V?$basic_string@DU?$char_traits@D@std@@V?$allocator@D@2@@std@@@2@U?$equal_to@V?$basic_string@DU?$char_traits@D@std@@V?$allocator@D@2@@std@@@2@V?$allocator@U?$pair@$$CBV?$basic_string@DU?$char_traits@D@std@@V?$allocator@D@2@@std@@H@std@@@2@@std@@@std@@QEAAXAEAV12@@Z
	?swap@?$shared_ptr@VBlackboard@BT@@@std@@QEAAXAEAV12@@Z
	?swap@?$vtable_dynamic@VSimpleString@SafeAny@@@any@linb@@SAXAEATstorage_union@23@0@Z
	?tick@ApproachObject@DummyNodes@@UEAA?AW4NodeStatus@BT@@XZ
	?tick@SaySomething@DummyNodes@@UEAA?AW4NodeStatus@BT@@XZ
	?toStdString@SimpleString@SafeAny@@QEBA?AV?$basic_string@DU?$char_traits@D@std@@V?$allocator@D@2@@std@@XZ
	?to_string@std@@YA?AV?$basic_string@DU?$char_traits@D@std@@V?$allocator@D@2@@1@N@Z
	?to_string@std@@YA?AV?$basic_string@DU?$char_traits@D@std@@V?$allocator@D@2@@1@_J@Z
	?to_string@std@@YA?AV?$basic_string@DU?$char_traits@D@std@@V?$allocator@D@2@@1@_K@Z
	?type@?$vtable_dynamic@VSimpleString@SafeAny@@@any@linb@@SAAEBVtype_info@@XZ
	?type@ActionNodeBase@BT@@UEBA?AW4NodeType@2@XZ
	?type@any@linb@@QEBAAEBVtype_info@@XZ
	?unlock@_Mutex_base@std@@QEAAXXZ
	?value@?$expected@V?$basic_string@DU?$char_traits@D@std@@V?$allocator@D@2@@std@@V12@@expected_lite@nonstd@@QEGAAAEAV?$basic_string@DU?$char_traits@D@std@@V?$allocator@D@2@@std@@XZ
	?value@?$expected@V?$basic_string_view@DU?$char_traits@D@std@@@std@@V?$basic_string@DU?$char_traits@D@std@@V?$allocator@D@2@@2@@expected_lite@nonstd@@QEGAAAEAV?$basic_string_view@DU?$char_traits@D@std@@@std@@XZ
	?value@?$storage_t_impl@V?$basic_string@DU?$char_traits@D@std@@V?$allocator@D@2@@std@@V12@@detail@expected_lite@nonstd@@QEGAAAEAV?$basic_string@DU?$char_traits@D@std@@V?$allocator@D@2@@std@@XZ
	?value@?$storage_t_impl@V?$basic_string_view@DU?$char_traits@D@std@@@std@@V?$basic_string@DU?$char_traits@D@std@@V?$allocator@D@2@@2@@detail@expected_lite@nonstd@@QEGAAAEAV?$basic_string_view@DU?$char_traits@D@std@@@std@@XZ
	?value@?$unexpected_type@PEBD@expected_lite@nonstd@@QEGAAAEAPEBDXZ
	?value@?$unexpected_type@V?$basic_string@DU?$char_traits@D@std@@V?$allocator@D@2@@std@@@expected_lite@nonstd@@QEGAAAEAV?$basic_string@DU?$char_traits@D@std@@V?$allocator@D@2@@std@@XZ
	?what@?$bad_expected_access@V?$basic_string@DU?$char_traits@D@std@@V?$allocator@D@2@@std@@@expected_lite@nonstd@@UEBAPEBDXZ
	?what@BehaviorTreeException@BT@@UEBAPEBDXZ
	?what@bad_any_cast@linb@@UEBAPEBDXZ
	?what@exception@std@@UEBAPEBDXZ
	BT_RegisterNodesFromPlugin
	__local_stdio_printf_options
	_scprintf
	_vscprintf_l
	_vsprintf_s_l
	sprintf_s
